
build/SDBOOT.elf:     file format elf32-littlearm


Disassembly of section .text:

20000000 <__logical_binary_start>:
20000000:	20081000 	.word	0x20081000
20000004:	20000161 	.word	0x20000161
20000008:	200001d9 	.word	0x200001d9
2000000c:	200001d9 	.word	0x200001d9
20000010:	200001d9 	.word	0x200001d9
20000014:	200001d9 	.word	0x200001d9
20000018:	200001d9 	.word	0x200001d9
2000001c:	200001d9 	.word	0x200001d9
20000020:	200001d9 	.word	0x200001d9
20000024:	200001d9 	.word	0x200001d9
20000028:	200001d9 	.word	0x200001d9
2000002c:	200001d9 	.word	0x200001d9
20000030:	200001d9 	.word	0x200001d9
20000034:	200001d9 	.word	0x200001d9
20000038:	200001d9 	.word	0x200001d9
2000003c:	200001d9 	.word	0x200001d9
20000040:	200001d9 	.word	0x200001d9
20000044:	200001d9 	.word	0x200001d9
20000048:	200001d9 	.word	0x200001d9
2000004c:	200001d9 	.word	0x200001d9
20000050:	200001d9 	.word	0x200001d9
20000054:	200001d9 	.word	0x200001d9
20000058:	200001d9 	.word	0x200001d9
2000005c:	200001d9 	.word	0x200001d9
20000060:	200001d9 	.word	0x200001d9
20000064:	200001d9 	.word	0x200001d9
20000068:	200001d9 	.word	0x200001d9
2000006c:	200001d9 	.word	0x200001d9
20000070:	200001d9 	.word	0x200001d9
20000074:	200001d9 	.word	0x200001d9
20000078:	200001d9 	.word	0x200001d9
2000007c:	200001d9 	.word	0x200001d9
20000080:	200001d9 	.word	0x200001d9
20000084:	200001d9 	.word	0x200001d9
20000088:	200001d9 	.word	0x200001d9
2000008c:	200001d9 	.word	0x200001d9
20000090:	200001d9 	.word	0x200001d9
20000094:	200001d9 	.word	0x200001d9
20000098:	200001d9 	.word	0x200001d9
2000009c:	200001d9 	.word	0x200001d9
200000a0:	200001d9 	.word	0x200001d9
200000a4:	200001d9 	.word	0x200001d9
200000a8:	200001d9 	.word	0x200001d9
200000ac:	200001d9 	.word	0x200001d9
200000b0:	200001d9 	.word	0x200001d9
200000b4:	200001d9 	.word	0x200001d9
200000b8:	200001d9 	.word	0x200001d9
200000bc:	200001d9 	.word	0x200001d9
200000c0:	200001d9 	.word	0x200001d9
200000c4:	200001d9 	.word	0x200001d9
200000c8:	200001d9 	.word	0x200001d9
200000cc:	200001d9 	.word	0x200001d9
200000d0:	200001d9 	.word	0x200001d9
200000d4:	200001d9 	.word	0x200001d9
200000d8:	200001d9 	.word	0x200001d9
200000dc:	200001d9 	.word	0x200001d9
200000e0:	200001d9 	.word	0x200001d9
200000e4:	200001d9 	.word	0x200001d9
200000e8:	200001d9 	.word	0x200001d9
200000ec:	200001d9 	.word	0x200001d9
200000f0:	200001d9 	.word	0x200001d9
200000f4:	200001d9 	.word	0x200001d9
200000f8:	200001d9 	.word	0x200001d9
200000fc:	200001d9 	.word	0x200001d9
20000100:	200001d9 	.word	0x200001d9
20000104:	200001d9 	.word	0x200001d9
20000108:	200001d9 	.word	0x200001d9
2000010c:	200001d9 	.word	0x200001d9

20000110 <picopad_info_header>:
20000110:	44415050 	.word	0x44415050
20000114:	01234567 	.word	0x01234567
20000118:	89abcdef 	.word	0x89abcdef
2000011c:	20081000 	.word	0x20081000
20000120:	20000161 	.word	0x20000161
20000124:	64617070 	.word	0x64617070

20000128 <binary_info_header>:
20000128:	7188ebf2 	.word	0x7188ebf2
2000012c:	2000aa88 	.word	0x2000aa88
20000130:	2000aa88 	.word	0x2000aa88
20000134:	200001a0 	.word	0x200001a0
20000138:	e71aa390 	.word	0xe71aa390

2000013c <__binary_info_header_end>:
2000013c:	ffffded3 	.word	0xffffded3
20000140:	10210142 	.word	0x10210142
20000144:	00000248 	.word	0x00000248
20000148:	00010000 	.word	0x00010000
2000014c:	00000203 	.word	0x00000203
20000150:	20000000 	.word	0x20000000
20000154:	000005ff 	.word	0x000005ff
20000158:	00000000 	.word	0x00000000
2000015c:	ab123579 	.word	0xab123579

20000160 <_reset_handler>:
20000160:	4815      	ldr	r0, [pc, #84]	@ (200001b8 <GoToAppRam+0x6>)
20000162:	f380 8808 	msr	MSP, r0
20000166:	4815      	ldr	r0, [pc, #84]	@ (200001bc <GoToAppRam+0xa>)
20000168:	4915      	ldr	r1, [pc, #84]	@ (200001c0 <GoToAppRam+0xe>)
2000016a:	6008      	str	r0, [r1, #0]
2000016c:	f04f 4050 	mov.w	r0, #3489660928	@ 0xd0000000
20000170:	6800      	ldr	r0, [r0, #0]
20000172:	2800      	cmp	r0, #0
20000174:	f040 800c 	bne.w	20000190 <Core1ExitBootrom>
20000178:	4912      	ldr	r1, [pc, #72]	@ (200001c4 <GoToAppRam+0x12>)
2000017a:	4a13      	ldr	r2, [pc, #76]	@ (200001c8 <GoToAppRam+0x16>)
2000017c:	2000      	movs	r0, #0
2000017e:	e000      	b.n	20000182 <bss_fill_test>

20000180 <bss_fill_loop>:
20000180:	c101      	stmia	r1!, {r0}

20000182 <bss_fill_test>:
20000182:	4291      	cmp	r1, r2
20000184:	d1fc      	bne.n	20000180 <bss_fill_loop>
20000186:	4911      	ldr	r1, [pc, #68]	@ (200001cc <GoToAppRam+0x1a>)
20000188:	4788      	blx	r1
2000018a:	4911      	ldr	r1, [pc, #68]	@ (200001d0 <GoToAppRam+0x1e>)
2000018c:	4788      	blx	r1
2000018e:	e7fe      	b.n	2000018e <bss_fill_test+0xc>

20000190 <Core1ExitBootrom>:
20000190:	b672      	cpsid	i
20000192:	490b      	ldr	r1, [pc, #44]	@ (200001c0 <GoToAppRam+0xe>)
20000194:	2000      	movs	r0, #0
20000196:	6008      	str	r0, [r1, #0]
20000198:	c806      	ldmia	r0!, {r1, r2}
2000019a:	f381 8808 	msr	MSP, r1
2000019e:	4710      	bx	r2

200001a0 <data_cpy_table>:
200001a0:	00000000 	.word	0x00000000

200001a4 <GoToApp>:
200001a4:	480b      	ldr	r0, [pc, #44]	@ (200001d4 <GoToAppRam+0x22>)
200001a6:	4906      	ldr	r1, [pc, #24]	@ (200001c0 <GoToAppRam+0xe>)
200001a8:	6008      	str	r0, [r1, #0]
200001aa:	c803      	ldmia	r0, {r0, r1}
200001ac:	f380 8808 	msr	MSP, r0
200001b0:	4708      	bx	r1

200001b2 <GoToAppRam>:
200001b2:	f04f 5000 	mov.w	r0, #536870912	@ 0x20000000
200001b6:	e7f6      	b.n	200001a6 <GoToApp+0x2>
200001b8:	20081000 	.word	0x20081000
200001bc:	20000000 	.word	0x20000000
200001c0:	e000ed08 	.word	0xe000ed08
200001c4:	2000aad8 	.word	0x2000aad8
200001c8:	20032a4c 	.word	0x20032a4c
200001cc:	20001e75 	.word	0x20001e75
200001d0:	20008c4d 	.word	0x20008c4d
200001d4:	10010000 	.word	0x10010000

200001d8 <isr_busfault>:
200001d8:	b672      	cpsid	i
200001da:	b671      	cpsid	f
200001dc:	f3bf 8f6f 	isb	sy
200001e0:	b090      	sub	sp, #64	@ 0x40
200001e2:	f3ef 8005 	mrs	r0, IPSR
200001e6:	b2c0      	uxtb	r0, r0
200001e8:	3810      	subs	r0, #16
200001ea:	9000      	str	r0, [sp, #0]
200001ec:	9401      	str	r4, [sp, #4]
200001ee:	9502      	str	r5, [sp, #8]
200001f0:	9603      	str	r6, [sp, #12]
200001f2:	9704      	str	r7, [sp, #16]
200001f4:	f8cd 8014 	str.w	r8, [sp, #20]
200001f8:	f8cd 9018 	str.w	r9, [sp, #24]
200001fc:	f8cd a01c 	str.w	sl, [sp, #28]
20000200:	f8cd b020 	str.w	fp, [sp, #32]
20000204:	4668      	mov	r0, sp
20000206:	f100 0060 	add.w	r0, r0, #96	@ 0x60
2000020a:	9009      	str	r0, [sp, #36]	@ 0x24
2000020c:	f3ef 8014 	mrs	r0, CONTROL
20000210:	900a      	str	r0, [sp, #40]	@ 0x28
20000212:	4810      	ldr	r0, [pc, #64]	@ (20000254 <unhandled_irq_3+0x6>)
20000214:	6a81      	ldr	r1, [r0, #40]	@ 0x28
20000216:	910b      	str	r1, [sp, #44]	@ 0x2c
20000218:	6ac1      	ldr	r1, [r0, #44]	@ 0x2c
2000021a:	910c      	str	r1, [sp, #48]	@ 0x30
2000021c:	6b01      	ldr	r1, [r0, #48]	@ 0x30
2000021e:	910d      	str	r1, [sp, #52]	@ 0x34
20000220:	6b41      	ldr	r1, [r0, #52]	@ 0x34
20000222:	910e      	str	r1, [sp, #56]	@ 0x38
20000224:	6b81      	ldr	r1, [r0, #56]	@ 0x38
20000226:	910f      	str	r1, [sp, #60]	@ 0x3c
20000228:	4668      	mov	r0, sp
2000022a:	4b0b      	ldr	r3, [pc, #44]	@ (20000258 <unhandled_irq_3+0xa>)
2000022c:	4798      	blx	r3

2000022e <FatalErrorStop>:
2000022e:	4b0b      	ldr	r3, [pc, #44]	@ (2000025c <unhandled_irq_3+0xe>)
20000230:	2256      	movs	r2, #86	@ 0x56
20000232:	601a      	str	r2, [r3, #0]
20000234:	60da      	str	r2, [r3, #12]
20000236:	4b0a      	ldr	r3, [pc, #40]	@ (20000260 <unhandled_irq_3+0x12>)
20000238:	2205      	movs	r2, #5
2000023a:	601a      	str	r2, [r3, #0]
2000023c:	619a      	str	r2, [r3, #24]
2000023e:	4b09      	ldr	r3, [pc, #36]	@ (20000264 <unhandled_irq_3+0x16>)
20000240:	2201      	movs	r2, #1
20000242:	00d2      	lsls	r2, r2, #3
20000244:	3201      	adds	r2, #1
20000246:	0592      	lsls	r2, r2, #22
20000248:	611a      	str	r2, [r3, #16]

2000024a <unhandled_irq_2>:
2000024a:	601a      	str	r2, [r3, #0]
2000024c:	4906      	ldr	r1, [pc, #24]	@ (20000268 <unhandled_irq_3+0x1a>)

2000024e <unhandled_irq_3>:
2000024e:	3901      	subs	r1, #1
20000250:	d1fd      	bne.n	2000024e <unhandled_irq_3>
20000252:	e7fa      	b.n	2000024a <unhandled_irq_2>
20000254:	e000ed00 	.word	0xe000ed00
20000258:	20001265 	.word	0x20001265
2000025c:	4003805c 	.word	0x4003805c
20000260:	400280b4 	.word	0x400280b4
20000264:	d0000028 	.word	0xd0000028
20000268:	002dc6c0 	.word	0x002dc6c0

2000026c <generic_save_state>:
2000026c:	b086      	sub	sp, #24
2000026e:	b403      	push	{r0, r1}
20000270:	fc51 0408 	mrrc2	4, 0, r0, r1, cr8
20000274:	e9cd 0102 	strd	r0, r1, [sp, #8]
20000278:	fc51 0409 	mrrc2	4, 0, r0, r1, cr9
2000027c:	e9cd 0104 	strd	r0, r1, [sp, #16]
20000280:	ec51 040a 	mrrc	4, 0, r0, r1, cr10
20000284:	e9cd 0106 	strd	r0, r1, [sp, #24]
20000288:	bc03      	pop	{r0, r1}
2000028a:	47f0      	blx	lr

2000028c <generic_restore_state>:
2000028c:	e8bd 5000 	ldmia.w	sp!, {ip, lr}
20000290:	ec4e c400 	mcrr	4, 0, ip, lr, cr0
20000294:	e8bd 5000 	ldmia.w	sp!, {ip, lr}
20000298:	ec4e c401 	mcrr	4, 0, ip, lr, cr1
2000029c:	e8bd 5000 	ldmia.w	sp!, {ip, lr}
200002a0:	ec4e c402 	mcrr	4, 0, ip, lr, cr2
200002a4:	bd00      	pop	{pc}
200002a6:	0000      	movs	r0, r0
200002a8:	b500      	push	{lr}
200002aa:	f7ff ffdf 	bl	2000026c <generic_save_state>
200002ae:	e002      	b.n	200002b6 <__wrap___aeabi_dadd+0x6>

200002b0 <__wrap___aeabi_dadd>:
200002b0:	fe10 f430 	mrc2	4, 0, pc, cr0, cr0, {1}
200002b4:	d4f8      	bmi.n	200002a8 <generic_restore_state+0x1c>
200002b6:	ec41 0410 	mcrr	4, 1, r0, r1, cr0
200002ba:	ec43 2411 	mcrr	4, 1, r2, r3, cr1
200002be:	ee00 0401 			@ <UNDEFINED> instruction: 0xee000401
200002c2:	ee10 0401 			@ <UNDEFINED> instruction: 0xee100401
200002c6:	ee80 0420 			@ <UNDEFINED> instruction: 0xee800420
200002ca:	ec51 0410 	mrrc	4, 1, r0, r1, cr0
200002ce:	4770      	bx	lr
200002d0:	b500      	push	{lr}
200002d2:	f7ff ffcb 	bl	2000026c <generic_save_state>
200002d6:	e002      	b.n	200002de <__wrap___aeabi_dsub+0x6>

200002d8 <__wrap___aeabi_dsub>:
200002d8:	fe10 f430 	mrc2	4, 0, pc, cr0, cr0, {1}
200002dc:	d4f8      	bmi.n	200002d0 <__wrap___aeabi_dadd+0x20>
200002de:	ec41 0410 	mcrr	4, 1, r0, r1, cr0
200002e2:	ec43 2411 	mcrr	4, 1, r2, r3, cr1
200002e6:	ee00 0401 			@ <UNDEFINED> instruction: 0xee000401
200002ea:	ee10 0421 			@ <UNDEFINED> instruction: 0xee100421
200002ee:	ee80 0420 			@ <UNDEFINED> instruction: 0xee800420
200002f2:	ec51 0430 	mrrc	4, 3, r0, r1, cr0
200002f6:	4770      	bx	lr
200002f8:	b500      	push	{lr}
200002fa:	f7ff ffb7 	bl	2000026c <generic_save_state>
200002fe:	e002      	b.n	20000306 <__wrap___aeabi_dmul+0x6>

20000300 <__wrap___aeabi_dmul>:
20000300:	fe10 f430 	mrc2	4, 0, pc, cr0, cr0, {1}
20000304:	d4f8      	bmi.n	200002f8 <__wrap___aeabi_dsub+0x20>
20000306:	b510      	push	{r4, lr}
20000308:	ec41 0410 	mcrr	4, 1, r0, r1, cr0
2000030c:	ec43 2411 	mcrr	4, 1, r2, r3, cr1
20000310:	ec51 0404 	mrrc	4, 0, r0, r1, cr4
20000314:	ec53 2405 	mrrc	4, 0, r2, r3, cr5
20000318:	fba0 4c02 	umull	r4, ip, r0, r2
2000031c:	f05f 0e00 	movs.w	lr, #0
20000320:	fbe0 ce03 	umlal	ip, lr, r0, r3
20000324:	fbe1 ce02 	umlal	ip, lr, r1, r2
20000328:	ec4c 4420 	mcrr	4, 2, r4, ip, cr0
2000032c:	2400      	movs	r4, #0
2000032e:	fbe1 e403 	umlal	lr, r4, r1, r3
20000332:	ec44 e430 	mcrr	4, 3, lr, r4, cr0
20000336:	ee80 0420 			@ <UNDEFINED> instruction: 0xee800420
2000033a:	ec51 0450 	mrrc	4, 5, r0, r1, cr0
2000033e:	e8bd 4010 	ldmia.w	sp!, {r4, lr}
20000342:	4770      	bx	lr
20000344:	b500      	push	{lr}
20000346:	f7ff ff91 	bl	2000026c <generic_save_state>
2000034a:	e002      	b.n	20000352 <__wrap___aeabi_i2d+0x6>

2000034c <__wrap___aeabi_i2d>:
2000034c:	fe10 f430 	mrc2	4, 0, pc, cr0, cr0, {1}
20000350:	d4f8      	bmi.n	20000344 <__wrap___aeabi_dmul+0x44>
20000352:	ec40 0470 	mcrr	4, 7, r0, r0, cr0
20000356:	ee00 0401 			@ <UNDEFINED> instruction: 0xee000401
2000035a:	ee10 0421 			@ <UNDEFINED> instruction: 0xee100421
2000035e:	ee80 0420 			@ <UNDEFINED> instruction: 0xee800420
20000362:	ec51 0430 	mrrc	4, 3, r0, r1, cr0
20000366:	4770      	bx	lr
20000368:	b500      	push	{lr}
2000036a:	f7ff ff7f 	bl	2000026c <generic_save_state>
2000036e:	e002      	b.n	20000376 <__wrap___aeabi_d2uiz+0x6>

20000370 <__wrap___aeabi_d2uiz>:
20000370:	fe10 f430 	mrc2	4, 0, pc, cr0, cr0, {1}
20000374:	d4f8      	bmi.n	20000368 <__wrap___aeabi_i2d+0x1c>
20000376:	ec41 0480 	mcrr	4, 8, r0, r1, cr0
2000037a:	ee00 0401 			@ <UNDEFINED> instruction: 0xee000401
2000037e:	ee10 0401 			@ <UNDEFINED> instruction: 0xee100401
20000382:	ee80 0440 			@ <UNDEFINED> instruction: 0xee800440
20000386:	ee10 0433 			@ <UNDEFINED> instruction: 0xee100433
2000038a:	4770      	bx	lr
2000038c:	b500      	push	{lr}
2000038e:	f7ff ff6d 	bl	2000026c <generic_save_state>
20000392:	e002      	b.n	2000039a <__wrap___aeabi_dcmpeq+0x6>

20000394 <__wrap___aeabi_dcmpeq>:
20000394:	fe10 f430 	mrc2	4, 0, pc, cr0, cr0, {1}
20000398:	d4f8      	bmi.n	2000038c <__wrap___aeabi_d2uiz+0x1c>
2000039a:	ec41 0410 	mcrr	4, 1, r0, r1, cr0
2000039e:	ec43 2411 	mcrr	4, 1, r2, r3, cr1
200003a2:	ee00 0401 			@ <UNDEFINED> instruction: 0xee000401
200003a6:	ee10 0430 			@ <UNDEFINED> instruction: 0xee100430
200003aa:	f3c0 7080 	ubfx	r0, r0, #30, #1
200003ae:	4770      	bx	lr
200003b0:	b500      	push	{lr}
200003b2:	f7ff ff5b 	bl	2000026c <generic_save_state>
200003b6:	e002      	b.n	200003be <__wrap___aeabi_dcmplt+0x6>

200003b8 <__wrap___aeabi_dcmplt>:
200003b8:	fe10 f430 	mrc2	4, 0, pc, cr0, cr0, {1}
200003bc:	d4f8      	bmi.n	200003b0 <__wrap___aeabi_dcmpeq+0x1c>
200003be:	ec43 2410 	mcrr	4, 1, r2, r3, cr0
200003c2:	ec41 0411 	mcrr	4, 1, r0, r1, cr1
200003c6:	ee00 0401 			@ <UNDEFINED> instruction: 0xee000401
200003ca:	ee10 f430 			@ <UNDEFINED> instruction: 0xee10f430
200003ce:	bf8c      	ite	hi
200003d0:	2001      	movhi	r0, #1
200003d2:	2000      	movls	r0, #0
200003d4:	4770      	bx	lr
200003d6:	0000      	movs	r0, r0
200003d8:	b500      	push	{lr}
200003da:	f7ff ff47 	bl	2000026c <generic_save_state>
200003de:	e002      	b.n	200003e6 <__wrap___aeabi_dcmpge+0x6>

200003e0 <__wrap___aeabi_dcmpge>:
200003e0:	fe10 f430 	mrc2	4, 0, pc, cr0, cr0, {1}
200003e4:	d4f8      	bmi.n	200003d8 <__wrap___aeabi_dcmplt+0x20>
200003e6:	ec41 0410 	mcrr	4, 1, r0, r1, cr0
200003ea:	ec43 2411 	mcrr	4, 1, r2, r3, cr1
200003ee:	ee00 0401 			@ <UNDEFINED> instruction: 0xee000401
200003f2:	ee10 f430 			@ <UNDEFINED> instruction: 0xee10f430
200003f6:	bf2c      	ite	cs
200003f8:	2001      	movcs	r0, #1
200003fa:	2000      	movcc	r0, #0
200003fc:	4770      	bx	lr
	...

20000400 <LedOff>:
20000400:	2801      	cmp	r0, #1
20000402:	d803      	bhi.n	2000040c <LedOff+0xc>
20000404:	4b02      	ldr	r3, [pc, #8]	@ (20000410 <LedOff+0x10>)
20000406:	5c1b      	ldrb	r3, [r3, r0]
20000408:	eee0 3010 			@ <UNDEFINED> instruction: 0xeee03010
2000040c:	4770      	bx	lr
2000040e:	bf00      	nop
20000410:	2000aa8a 	.word	0x2000aa8a

20000414 <QMI_ReadFlashSreg>:
20000414:	4b04      	ldr	r3, [pc, #16]	@ (20000428 <QMI_ReadFlashSreg+0x14>)
20000416:	6058      	str	r0, [r3, #4]
20000418:	6058      	str	r0, [r3, #4]
2000041a:	681a      	ldr	r2, [r3, #0]
2000041c:	0792      	lsls	r2, r2, #30
2000041e:	d4fc      	bmi.n	2000041a <QMI_ReadFlashSreg+0x6>
20000420:	689a      	ldr	r2, [r3, #8]
20000422:	6898      	ldr	r0, [r3, #8]
20000424:	b2c0      	uxtb	r0, r0
20000426:	4770      	bx	lr
20000428:	400d0000 	.word	0x400d0000

2000042c <QSPI_InitFlash>:
2000042c:	2221      	movs	r2, #33	@ 0x21
2000042e:	4b09      	ldr	r3, [pc, #36]	@ (20000454 <QSPI_InitFlash+0x28>)
20000430:	605a      	str	r2, [r3, #4]
20000432:	225a      	movs	r2, #90	@ 0x5a
20000434:	619a      	str	r2, [r3, #24]
20000436:	2250      	movs	r2, #80	@ 0x50
20000438:	609a      	str	r2, [r3, #8]
2000043a:	60da      	str	r2, [r3, #12]
2000043c:	611a      	str	r2, [r3, #16]
2000043e:	615a      	str	r2, [r3, #20]
20000440:	2200      	movs	r2, #0
20000442:	f5a3 3380 	sub.w	r3, r3, #65536	@ 0x10000
20000446:	615a      	str	r2, [r3, #20]
20000448:	61da      	str	r2, [r3, #28]
2000044a:	625a      	str	r2, [r3, #36]	@ 0x24
2000044c:	62da      	str	r2, [r3, #44]	@ 0x2c
2000044e:	635a      	str	r2, [r3, #52]	@ 0x34
20000450:	63da      	str	r2, [r3, #60]	@ 0x3c
20000452:	4770      	bx	lr
20000454:	40040000 	.word	0x40040000

20000458 <QMI_FlashQspi>:
20000458:	b570      	push	{r4, r5, r6, lr}
2000045a:	4604      	mov	r4, r0
2000045c:	f3ef 8510 	mrs	r5, PRIMASK
20000460:	b672      	cpsid	i
20000462:	f7ff ffe3 	bl	2000042c <QSPI_InitFlash>
20000466:	4e22      	ldr	r6, [pc, #136]	@ (200004f0 <QMI_FlashQspi+0x98>)
20000468:	4b22      	ldr	r3, [pc, #136]	@ (200004f4 <QMI_FlashQspi+0x9c>)
2000046a:	6831      	ldr	r1, [r6, #0]
2000046c:	6033      	str	r3, [r6, #0]
2000046e:	6833      	ldr	r3, [r6, #0]
20000470:	0798      	lsls	r0, r3, #30
20000472:	d4fc      	bmi.n	2000046e <QMI_FlashQspi+0x16>
20000474:	2035      	movs	r0, #53	@ 0x35
20000476:	f7ff ffcd 	bl	20000414 <QMI_ReadFlashSreg>
2000047a:	2802      	cmp	r0, #2
2000047c:	d017      	beq.n	200004ae <QMI_FlashQspi+0x56>
2000047e:	2306      	movs	r3, #6
20000480:	6073      	str	r3, [r6, #4]
20000482:	4b1b      	ldr	r3, [pc, #108]	@ (200004f0 <QMI_FlashQspi+0x98>)
20000484:	681a      	ldr	r2, [r3, #0]
20000486:	f012 0202 	ands.w	r2, r2, #2
2000048a:	d1fb      	bne.n	20000484 <QMI_FlashQspi+0x2c>
2000048c:	6898      	ldr	r0, [r3, #8]
2000048e:	2001      	movs	r0, #1
20000490:	6058      	str	r0, [r3, #4]
20000492:	605a      	str	r2, [r3, #4]
20000494:	2202      	movs	r2, #2
20000496:	605a      	str	r2, [r3, #4]
20000498:	681a      	ldr	r2, [r3, #0]
2000049a:	0792      	lsls	r2, r2, #30
2000049c:	d4fc      	bmi.n	20000498 <QMI_FlashQspi+0x40>
2000049e:	689a      	ldr	r2, [r3, #8]
200004a0:	689a      	ldr	r2, [r3, #8]
200004a2:	689b      	ldr	r3, [r3, #8]
200004a4:	2005      	movs	r0, #5
200004a6:	f7ff ffb5 	bl	20000414 <QMI_ReadFlashSreg>
200004aa:	07c3      	lsls	r3, r0, #31
200004ac:	d4fa      	bmi.n	200004a4 <QMI_FlashQspi+0x4c>
200004ae:	4b12      	ldr	r3, [pc, #72]	@ (200004f8 <QMI_FlashQspi+0xa0>)
200004b0:	4a0f      	ldr	r2, [pc, #60]	@ (200004f0 <QMI_FlashQspi+0x98>)
200004b2:	400b      	ands	r3, r1
200004b4:	f043 73c0 	orr.w	r3, r3, #25165824	@ 0x1800000
200004b8:	f043 0340 	orr.w	r3, r3, #64	@ 0x40
200004bc:	6013      	str	r3, [r2, #0]
200004be:	f24a 03eb 	movw	r3, #41195	@ 0xa0eb
200004c2:	f044 4480 	orr.w	r4, r4, #1073741824	@ 0x40000000
200004c6:	f444 7400 	orr.w	r4, r4, #512	@ 0x200
200004ca:	60d4      	str	r4, [r2, #12]
200004cc:	6153      	str	r3, [r2, #20]
200004ce:	4b0b      	ldr	r3, [pc, #44]	@ (200004fc <QMI_FlashQspi+0xa4>)
200004d0:	6113      	str	r3, [r2, #16]
200004d2:	f3bf 8f5f 	dmb	sy
200004d6:	f04f 53a0 	mov.w	r3, #335544320	@ 0x14000000
200004da:	781b      	ldrb	r3, [r3, #0]
200004dc:	f3bf 8f5f 	dmb	sy
200004e0:	f44f 5280 	mov.w	r2, #4096	@ 0x1000
200004e4:	4b06      	ldr	r3, [pc, #24]	@ (20000500 <QMI_FlashQspi+0xa8>)
200004e6:	611a      	str	r2, [r3, #16]
200004e8:	f385 8810 	msr	PRIMASK, r5
200004ec:	bd70      	pop	{r4, r5, r6, pc}
200004ee:	bf00      	nop
200004f0:	400d0000 	.word	0x400d0000
200004f4:	47800041 	.word	0x47800041
200004f8:	c0000080 	.word	0xc0000080
200004fc:	000492a8 	.word	0x000492a8
20000500:	400d3000 	.word	0x400d3000

20000504 <QMI_InitFlash>:
20000504:	b538      	push	{r3, r4, r5, lr}
20000506:	4604      	mov	r4, r0
20000508:	f3ef 8510 	mrs	r5, PRIMASK
2000050c:	b672      	cpsid	i
2000050e:	4b09      	ldr	r3, [pc, #36]	@ (20000534 <QMI_InitFlash+0x30>)
20000510:	681b      	ldr	r3, [r3, #0]
20000512:	4798      	blx	r3
20000514:	4b08      	ldr	r3, [pc, #32]	@ (20000538 <QMI_InitFlash+0x34>)
20000516:	681b      	ldr	r3, [r3, #0]
20000518:	4798      	blx	r3
2000051a:	4b08      	ldr	r3, [pc, #32]	@ (2000053c <QMI_InitFlash+0x38>)
2000051c:	681b      	ldr	r3, [r3, #0]
2000051e:	4798      	blx	r3
20000520:	4b07      	ldr	r3, [pc, #28]	@ (20000540 <QMI_InitFlash+0x3c>)
20000522:	681b      	ldr	r3, [r3, #0]
20000524:	4798      	blx	r3
20000526:	4620      	mov	r0, r4
20000528:	f7ff ff96 	bl	20000458 <QMI_FlashQspi>
2000052c:	f385 8810 	msr	PRIMASK, r5
20000530:	bd38      	pop	{r3, r4, r5, pc}
20000532:	bf00      	nop
20000534:	2000be50 	.word	0x2000be50
20000538:	2000be48 	.word	0x2000be48
2000053c:	2000be4c 	.word	0x2000be4c
20000540:	2000be44 	.word	0x2000be44

20000544 <FlashErase>:
20000544:	b5f8      	push	{r3, r4, r5, r6, r7, lr}
20000546:	4604      	mov	r4, r0
20000548:	460d      	mov	r5, r1
2000054a:	f3ef 8610 	mrs	r6, PRIMASK
2000054e:	b672      	cpsid	i
20000550:	4b14      	ldr	r3, [pc, #80]	@ (200005a4 <FlashErase+0x60>)
20000552:	681b      	ldr	r3, [r3, #0]
20000554:	4798      	blx	r3
20000556:	4b14      	ldr	r3, [pc, #80]	@ (200005a8 <FlashErase+0x64>)
20000558:	681b      	ldr	r3, [r3, #0]
2000055a:	4798      	blx	r3
2000055c:	b2a2      	uxth	r2, r4
2000055e:	f5b2 4f00 	cmp.w	r2, #32768	@ 0x8000
20000562:	d10c      	bne.n	2000057e <FlashErase+0x3a>
20000564:	f5b5 4f00 	cmp.w	r5, #32768	@ 0x8000
20000568:	d309      	bcc.n	2000057e <FlashErase+0x3a>
2000056a:	4b10      	ldr	r3, [pc, #64]	@ (200005ac <FlashErase+0x68>)
2000056c:	4620      	mov	r0, r4
2000056e:	681f      	ldr	r7, [r3, #0]
20000570:	4611      	mov	r1, r2
20000572:	2352      	movs	r3, #82	@ 0x52
20000574:	47b8      	blx	r7
20000576:	f504 4400 	add.w	r4, r4, #32768	@ 0x8000
2000057a:	f5a5 4500 	sub.w	r5, r5, #32768	@ 0x8000
2000057e:	b13d      	cbz	r5, 20000590 <FlashErase+0x4c>
20000580:	4b0a      	ldr	r3, [pc, #40]	@ (200005ac <FlashErase+0x68>)
20000582:	f44f 3280 	mov.w	r2, #65536	@ 0x10000
20000586:	681f      	ldr	r7, [r3, #0]
20000588:	4629      	mov	r1, r5
2000058a:	23d8      	movs	r3, #216	@ 0xd8
2000058c:	4620      	mov	r0, r4
2000058e:	47b8      	blx	r7
20000590:	4b07      	ldr	r3, [pc, #28]	@ (200005b0 <FlashErase+0x6c>)
20000592:	681b      	ldr	r3, [r3, #0]
20000594:	4798      	blx	r3
20000596:	2002      	movs	r0, #2
20000598:	f7ff ff5e 	bl	20000458 <QMI_FlashQspi>
2000059c:	f386 8810 	msr	PRIMASK, r6
200005a0:	bdf8      	pop	{r3, r4, r5, r6, r7, pc}
200005a2:	bf00      	nop
200005a4:	2000be50 	.word	0x2000be50
200005a8:	2000be48 	.word	0x2000be48
200005ac:	20031810 	.word	0x20031810
200005b0:	2000be4c 	.word	0x2000be4c

200005b4 <FlashProgram>:
200005b4:	b5f8      	push	{r3, r4, r5, r6, r7, lr}
200005b6:	4604      	mov	r4, r0
200005b8:	460d      	mov	r5, r1
200005ba:	4616      	mov	r6, r2
200005bc:	f3ef 8710 	mrs	r7, PRIMASK
200005c0:	b672      	cpsid	i
200005c2:	4b0a      	ldr	r3, [pc, #40]	@ (200005ec <FlashProgram+0x38>)
200005c4:	681b      	ldr	r3, [r3, #0]
200005c6:	4798      	blx	r3
200005c8:	4b09      	ldr	r3, [pc, #36]	@ (200005f0 <FlashProgram+0x3c>)
200005ca:	681b      	ldr	r3, [r3, #0]
200005cc:	4798      	blx	r3
200005ce:	4b09      	ldr	r3, [pc, #36]	@ (200005f4 <FlashProgram+0x40>)
200005d0:	4632      	mov	r2, r6
200005d2:	4629      	mov	r1, r5
200005d4:	4620      	mov	r0, r4
200005d6:	681b      	ldr	r3, [r3, #0]
200005d8:	4798      	blx	r3
200005da:	4b07      	ldr	r3, [pc, #28]	@ (200005f8 <FlashProgram+0x44>)
200005dc:	681b      	ldr	r3, [r3, #0]
200005de:	4798      	blx	r3
200005e0:	2002      	movs	r0, #2
200005e2:	f7ff ff39 	bl	20000458 <QMI_FlashQspi>
200005e6:	f387 8810 	msr	PRIMASK, r7
200005ea:	bdf8      	pop	{r3, r4, r5, r6, r7, pc}
200005ec:	2000be50 	.word	0x2000be50
200005f0:	2000be48 	.word	0x2000be48
200005f4:	20031818 	.word	0x20031818
200005f8:	2000be4c 	.word	0x2000be4c

200005fc <FlashCmd>:
200005fc:	b5f8      	push	{r3, r4, r5, r6, r7, lr}
200005fe:	4606      	mov	r6, r0
20000600:	460d      	mov	r5, r1
20000602:	4614      	mov	r4, r2
20000604:	f3ef 8710 	mrs	r7, PRIMASK
20000608:	b672      	cpsid	i
2000060a:	4b1b      	ldr	r3, [pc, #108]	@ (20000678 <FlashCmd+0x7c>)
2000060c:	681b      	ldr	r3, [r3, #0]
2000060e:	4798      	blx	r3
20000610:	4b1a      	ldr	r3, [pc, #104]	@ (2000067c <FlashCmd+0x80>)
20000612:	681b      	ldr	r3, [r3, #0]
20000614:	4798      	blx	r3
20000616:	2204      	movs	r2, #4
20000618:	4b19      	ldr	r3, [pc, #100]	@ (20000680 <FlashCmd+0x84>)
2000061a:	601a      	str	r2, [r3, #0]
2000061c:	2201      	movs	r2, #1
2000061e:	601a      	str	r2, [r3, #0]
20000620:	4623      	mov	r3, r4
20000622:	4a18      	ldr	r2, [pc, #96]	@ (20000684 <FlashCmd+0x88>)
20000624:	ea54 0103 	orrs.w	r1, r4, r3
20000628:	d10d      	bne.n	20000646 <FlashCmd+0x4a>
2000062a:	2201      	movs	r2, #1
2000062c:	4b16      	ldr	r3, [pc, #88]	@ (20000688 <FlashCmd+0x8c>)
2000062e:	601a      	str	r2, [r3, #0]
20000630:	2204      	movs	r2, #4
20000632:	601a      	str	r2, [r3, #0]
20000634:	4b15      	ldr	r3, [pc, #84]	@ (2000068c <FlashCmd+0x90>)
20000636:	681b      	ldr	r3, [r3, #0]
20000638:	4798      	blx	r3
2000063a:	2002      	movs	r0, #2
2000063c:	f7ff ff0c 	bl	20000458 <QMI_FlashQspi>
20000640:	f387 8810 	msr	PRIMASK, r7
20000644:	bdf8      	pop	{r3, r4, r5, r6, r7, pc}
20000646:	6811      	ldr	r1, [r2, #0]
20000648:	f401 3c80 	and.w	ip, r1, #65536	@ 0x10000
2000064c:	0549      	lsls	r1, r1, #21
2000064e:	d406      	bmi.n	2000065e <FlashCmd+0x62>
20000650:	b12c      	cbz	r4, 2000065e <FlashCmd+0x62>
20000652:	4630      	mov	r0, r6
20000654:	f810 1b01 	ldrb.w	r1, [r0], #1
20000658:	3c01      	subs	r4, #1
2000065a:	4606      	mov	r6, r0
2000065c:	6051      	str	r1, [r2, #4]
2000065e:	f1bc 0f00 	cmp.w	ip, #0
20000662:	d1df      	bne.n	20000624 <FlashCmd+0x28>
20000664:	2b00      	cmp	r3, #0
20000666:	d0dd      	beq.n	20000624 <FlashCmd+0x28>
20000668:	4629      	mov	r1, r5
2000066a:	6890      	ldr	r0, [r2, #8]
2000066c:	3b01      	subs	r3, #1
2000066e:	f801 0b01 	strb.w	r0, [r1], #1
20000672:	460d      	mov	r5, r1
20000674:	e7d6      	b.n	20000624 <FlashCmd+0x28>
20000676:	bf00      	nop
20000678:	2000be50 	.word	0x2000be50
2000067c:	2000be48 	.word	0x2000be48
20000680:	400d2000 	.word	0x400d2000
20000684:	400d0000 	.word	0x400d0000
20000688:	400d3000 	.word	0x400d3000
2000068c:	2000be4c 	.word	0x2000be4c

20000690 <PSRAM_Timing>:
20000690:	4b18      	ldr	r3, [pc, #96]	@ (200006f4 <PSRAM_Timing+0x64>)
20000692:	b530      	push	{r4, r5, lr}
20000694:	681b      	ldr	r3, [r3, #0]
20000696:	b35b      	cbz	r3, 200006f0 <PSRAM_Timing+0x60>
20000698:	4b17      	ldr	r3, [pc, #92]	@ (200006f8 <PSRAM_Timing+0x68>)
2000069a:	4818      	ldr	r0, [pc, #96]	@ (200006fc <PSRAM_Timing+0x6c>)
2000069c:	695b      	ldr	r3, [r3, #20]
2000069e:	4918      	ldr	r1, [pc, #96]	@ (20000700 <PSRAM_Timing+0x70>)
200006a0:	4418      	add	r0, r3
200006a2:	eb01 2113 	add.w	r1, r1, r3, lsr #8
200006a6:	09db      	lsrs	r3, r3, #7
200006a8:	fbb1 f1f3 	udiv	r1, r1, r3
200006ac:	f44f 537a 	mov.w	r3, #16000	@ 0x3e80
200006b0:	4a14      	ldr	r2, [pc, #80]	@ (20000704 <PSRAM_Timing+0x74>)
200006b2:	fbb3 f3f1 	udiv	r3, r3, r1
200006b6:	fbb0 f0f2 	udiv	r0, r0, r2
200006ba:	f501 52c7 	add.w	r2, r1, #6368	@ 0x18e0
200006be:	321f      	adds	r2, #31
200006c0:	fbb2 f2f1 	udiv	r2, r2, r1
200006c4:	f3ef 8410 	mrs	r4, PRIMASK
200006c8:	b672      	cpsid	i
200006ca:	490f      	ldr	r1, [pc, #60]	@ (20000708 <PSRAM_Timing+0x78>)
200006cc:	680d      	ldr	r5, [r1, #0]
200006ce:	07ad      	lsls	r5, r5, #30
200006d0:	d4fc      	bmi.n	200006cc <PSRAM_Timing+0x3c>
200006d2:	045b      	lsls	r3, r3, #17
200006d4:	0312      	lsls	r2, r2, #12
200006d6:	f402 227f 	and.w	r2, r2, #1044480	@ 0xff000
200006da:	f003 73ff 	and.w	r3, r3, #33423360	@ 0x1fe0000
200006de:	4313      	orrs	r3, r2
200006e0:	f043 43c3 	orr.w	r3, r3, #1635778560	@ 0x61800000
200006e4:	f443 7380 	orr.w	r3, r3, #256	@ 0x100
200006e8:	4303      	orrs	r3, r0
200006ea:	620b      	str	r3, [r1, #32]
200006ec:	f384 8810 	msr	PRIMASK, r4
200006f0:	bd30      	pop	{r4, r5, pc}
200006f2:	bf00      	nop
200006f4:	20031678 	.word	0x20031678
200006f8:	2000ab40 	.word	0x2000ab40
200006fc:	067f353f 	.word	0x067f353f
20000700:	3b9aca00 	.word	0x3b9aca00
20000704:	067f3540 	.word	0x067f3540
20000708:	400d0000 	.word	0x400d0000

2000070c <PSRAM_Trans>:
2000070c:	4b04      	ldr	r3, [pc, #16]	@ (20000720 <PSRAM_Trans+0x14>)
2000070e:	6058      	str	r0, [r3, #4]
20000710:	681a      	ldr	r2, [r3, #0]
20000712:	0511      	lsls	r1, r2, #20
20000714:	d5fc      	bpl.n	20000710 <PSRAM_Trans+0x4>
20000716:	681a      	ldr	r2, [r3, #0]
20000718:	0792      	lsls	r2, r2, #30
2000071a:	d4fc      	bmi.n	20000716 <PSRAM_Trans+0xa>
2000071c:	6898      	ldr	r0, [r3, #8]
2000071e:	4770      	bx	lr
20000720:	400d0000 	.word	0x400d0000

20000724 <PSRAM_TransCS>:
20000724:	b510      	push	{r4, lr}
20000726:	4c08      	ldr	r4, [pc, #32]	@ (20000748 <PSRAM_TransCS+0x24>)
20000728:	6823      	ldr	r3, [r4, #0]
2000072a:	f043 0308 	orr.w	r3, r3, #8
2000072e:	6023      	str	r3, [r4, #0]
20000730:	f7ff ffec 	bl	2000070c <PSRAM_Trans>
20000734:	6823      	ldr	r3, [r4, #0]
20000736:	f023 0308 	bic.w	r3, r3, #8
2000073a:	6023      	str	r3, [r4, #0]
2000073c:	2364      	movs	r3, #100	@ 0x64
2000073e:	f3af 8000 	nop.w
20000742:	3b01      	subs	r3, #1
20000744:	d1fb      	bne.n	2000073e <PSRAM_TransCS+0x1a>
20000746:	bd10      	pop	{r4, pc}
20000748:	400d0000 	.word	0x400d0000

2000074c <PSRAM_GetSize>:
2000074c:	2109      	movs	r1, #9
2000074e:	202f      	movs	r0, #47	@ 0x2f
20000750:	e92d 41f0 	stmdb	sp!, {r4, r5, r6, r7, r8, lr}
20000754:	f000 fee4 	bl	20001520 <GPIO_Fnc>
20000758:	f3ef 8810 	mrs	r8, PRIMASK
2000075c:	b672      	cpsid	i
2000075e:	4d21      	ldr	r5, [pc, #132]	@ (200007e4 <PSRAM_GetSize+0x98>)
20000760:	4b21      	ldr	r3, [pc, #132]	@ (200007e8 <PSRAM_GetSize+0x9c>)
20000762:	682f      	ldr	r7, [r5, #0]
20000764:	602b      	str	r3, [r5, #0]
20000766:	682c      	ldr	r4, [r5, #0]
20000768:	f014 0402 	ands.w	r4, r4, #2
2000076c:	d1fb      	bne.n	20000766 <PSRAM_GetSize+0x1a>
2000076e:	481f      	ldr	r0, [pc, #124]	@ (200007ec <PSRAM_GetSize+0xa0>)
20000770:	f7ff ffd8 	bl	20000724 <PSRAM_TransCS>
20000774:	682b      	ldr	r3, [r5, #0]
20000776:	209f      	movs	r0, #159	@ 0x9f
20000778:	f043 0308 	orr.w	r3, r3, #8
2000077c:	602b      	str	r3, [r5, #0]
2000077e:	f7ff ffc5 	bl	2000070c <PSRAM_Trans>
20000782:	20ff      	movs	r0, #255	@ 0xff
20000784:	f7ff ffc2 	bl	2000070c <PSRAM_Trans>
20000788:	20ff      	movs	r0, #255	@ 0xff
2000078a:	f7ff ffbf 	bl	2000070c <PSRAM_Trans>
2000078e:	20ff      	movs	r0, #255	@ 0xff
20000790:	f7ff ffbc 	bl	2000070c <PSRAM_Trans>
20000794:	20ff      	movs	r0, #255	@ 0xff
20000796:	f7ff ffb9 	bl	2000070c <PSRAM_Trans>
2000079a:	20ff      	movs	r0, #255	@ 0xff
2000079c:	f7ff ffb6 	bl	2000070c <PSRAM_Trans>
200007a0:	f027 0709 	bic.w	r7, r7, #9
200007a4:	4606      	mov	r6, r0
200007a6:	20ff      	movs	r0, #255	@ 0xff
200007a8:	f7ff ffb0 	bl	2000070c <PSRAM_Trans>
200007ac:	602f      	str	r7, [r5, #0]
200007ae:	f388 8810 	msr	PRIMASK, r8
200007b2:	b2f6      	uxtb	r6, r6
200007b4:	2e5d      	cmp	r6, #93	@ 0x5d
200007b6:	d110      	bne.n	200007da <PSRAM_GetSize+0x8e>
200007b8:	b2c3      	uxtb	r3, r0
200007ba:	2b26      	cmp	r3, #38	@ 0x26
200007bc:	f3c0 1042 	ubfx	r0, r0, #5, #3
200007c0:	d00d      	beq.n	200007de <PSRAM_GetSize+0x92>
200007c2:	2802      	cmp	r0, #2
200007c4:	d00b      	beq.n	200007de <PSRAM_GetSize+0x92>
200007c6:	2801      	cmp	r0, #1
200007c8:	bf14      	ite	ne
200007ca:	f44f 1080 	movne.w	r0, #1048576	@ 0x100000
200007ce:	f44f 0080 	moveq.w	r0, #4194304	@ 0x400000
200007d2:	4b07      	ldr	r3, [pc, #28]	@ (200007f0 <PSRAM_GetSize+0xa4>)
200007d4:	6018      	str	r0, [r3, #0]
200007d6:	e8bd 81f0 	ldmia.w	sp!, {r4, r5, r6, r7, r8, pc}
200007da:	4620      	mov	r0, r4
200007dc:	e7f9      	b.n	200007d2 <PSRAM_GetSize+0x86>
200007de:	f44f 0000 	mov.w	r0, #8388608	@ 0x800000
200007e2:	e7f6      	b.n	200007d2 <PSRAM_GetSize+0x86>
200007e4:	400d0000 	.word	0x400d0000
200007e8:	07800001 	.word	0x07800001
200007ec:	000a00f5 	.word	0x000a00f5
200007f0:	20031678 	.word	0x20031678

200007f4 <PSRAM_Init>:
200007f4:	b538      	push	{r3, r4, r5, lr}
200007f6:	f7ff ffa9 	bl	2000074c <PSRAM_GetSize>
200007fa:	2800      	cmp	r0, #0
200007fc:	d030      	beq.n	20000860 <PSRAM_Init+0x6c>
200007fe:	f3ef 8510 	mrs	r5, PRIMASK
20000802:	b672      	cpsid	i
20000804:	4c17      	ldr	r4, [pc, #92]	@ (20000864 <PSRAM_Init+0x70>)
20000806:	4b18      	ldr	r3, [pc, #96]	@ (20000868 <PSRAM_Init+0x74>)
20000808:	6023      	str	r3, [r4, #0]
2000080a:	6823      	ldr	r3, [r4, #0]
2000080c:	0799      	lsls	r1, r3, #30
2000080e:	d4fc      	bmi.n	2000080a <PSRAM_Init+0x16>
20000810:	2066      	movs	r0, #102	@ 0x66
20000812:	f7ff ff87 	bl	20000724 <PSRAM_TransCS>
20000816:	2099      	movs	r0, #153	@ 0x99
20000818:	f7ff ff84 	bl	20000724 <PSRAM_TransCS>
2000081c:	2035      	movs	r0, #53	@ 0x35
2000081e:	f7ff ff81 	bl	20000724 <PSRAM_TransCS>
20000822:	6823      	ldr	r3, [r4, #0]
20000824:	f023 0309 	bic.w	r3, r3, #9
20000828:	6023      	str	r3, [r4, #0]
2000082a:	f385 8810 	msr	PRIMASK, r5
2000082e:	f7ff ff2f 	bl	20000690 <PSRAM_Timing>
20000832:	f3ef 8110 	mrs	r1, PRIMASK
20000836:	b672      	cpsid	i
20000838:	4b0a      	ldr	r3, [pc, #40]	@ (20000864 <PSRAM_Init+0x70>)
2000083a:	681a      	ldr	r2, [r3, #0]
2000083c:	0792      	lsls	r2, r2, #30
2000083e:	d4fc      	bmi.n	2000083a <PSRAM_Init+0x46>
20000840:	4a0a      	ldr	r2, [pc, #40]	@ (2000086c <PSRAM_Init+0x78>)
20000842:	625a      	str	r2, [r3, #36]	@ 0x24
20000844:	22eb      	movs	r2, #235	@ 0xeb
20000846:	629a      	str	r2, [r3, #40]	@ 0x28
20000848:	f241 22aa 	movw	r2, #4778	@ 0x12aa
2000084c:	62da      	str	r2, [r3, #44]	@ 0x2c
2000084e:	2238      	movs	r2, #56	@ 0x38
20000850:	631a      	str	r2, [r3, #48]	@ 0x30
20000852:	4a07      	ldr	r2, [pc, #28]	@ (20000870 <PSRAM_Init+0x7c>)
20000854:	6813      	ldr	r3, [r2, #0]
20000856:	f443 6300 	orr.w	r3, r3, #2048	@ 0x800
2000085a:	6013      	str	r3, [r2, #0]
2000085c:	f381 8810 	msr	PRIMASK, r1
20000860:	bd38      	pop	{r3, r4, r5, pc}
20000862:	bf00      	nop
20000864:	400d0000 	.word	0x400d0000
20000868:	07800001 	.word	0x07800001
2000086c:	000612aa 	.word	0x000612aa
20000870:	400c8000 	.word	0x400c8000

20000874 <BatInit>:
20000874:	b508      	push	{r3, lr}
20000876:	f000 ffef 	bl	20001858 <ADC_Init>
2000087a:	e8bd 4008 	ldmia.w	sp!, {r3, lr}
2000087e:	201d      	movs	r0, #29
20000880:	f000 be66 	b.w	20001550 <ADC_PinInit>

20000884 <BatTerm>:
20000884:	b508      	push	{r3, lr}
20000886:	201d      	movs	r0, #29
20000888:	f000 fed2 	bl	20001630 <ADC_PinTerm>
2000088c:	2201      	movs	r2, #1
2000088e:	4b01      	ldr	r3, [pc, #4]	@ (20000894 <BatTerm+0x10>)
20000890:	601a      	str	r2, [r3, #0]
20000892:	bd08      	pop	{r3, pc}
20000894:	400a3000 	.word	0x400a3000

20000898 <KeyInit>:
20000898:	e92d 43f8 	stmdb	sp!, {r3, r4, r5, r6, r7, r8, r9, lr}
2000089c:	2500      	movs	r5, #0
2000089e:	46a8      	mov	r8, r5
200008a0:	f8df 905c 	ldr.w	r9, [pc, #92]	@ 20000900 <KeyInit+0x68>
200008a4:	4f11      	ldr	r7, [pc, #68]	@ (200008ec <KeyInit+0x54>)
200008a6:	4e12      	ldr	r6, [pc, #72]	@ (200008f0 <KeyInit+0x58>)
200008a8:	f819 4b01 	ldrb.w	r4, [r9], #1
200008ac:	4620      	mov	r0, r4
200008ae:	443c      	add	r4, r7
200008b0:	00a4      	lsls	r4, r4, #2
200008b2:	f000 febf 	bl	20001634 <GPIO_Init>
200008b6:	6823      	ldr	r3, [r4, #0]
200008b8:	f444 5480 	orr.w	r4, r4, #4096	@ 0x1000
200008bc:	f083 0308 	eor.w	r3, r3, #8
200008c0:	f003 030c 	and.w	r3, r3, #12
200008c4:	6023      	str	r3, [r4, #0]
200008c6:	f806 8005 	strb.w	r8, [r6, r5]
200008ca:	3501      	adds	r5, #1
200008cc:	2d08      	cmp	r5, #8
200008ce:	d1eb      	bne.n	200008a8 <KeyInit+0x10>
200008d0:	4b08      	ldr	r3, [pc, #32]	@ (200008f4 <KeyInit+0x5c>)
200008d2:	f883 8000 	strb.w	r8, [r3]
200008d6:	4b08      	ldr	r3, [pc, #32]	@ (200008f8 <KeyInit+0x60>)
200008d8:	f883 8000 	strb.w	r8, [r3]
200008dc:	4b07      	ldr	r3, [pc, #28]	@ (200008fc <KeyInit+0x64>)
200008de:	f883 8000 	strb.w	r8, [r3]
200008e2:	e8bd 43f8 	ldmia.w	sp!, {r3, r4, r5, r6, r7, r8, r9, lr}
200008e6:	f002 bf19 	b.w	2000371c <UsbHostInit>
200008ea:	bf00      	nop
200008ec:	1000e001 	.word	0x1000e001
200008f0:	2003242a 	.word	0x2003242a
200008f4:	20032433 	.word	0x20032433
200008f8:	20032434 	.word	0x20032434
200008fc:	20032432 	.word	0x20032432
20000900:	20009438 	.word	0x20009438

20000904 <KeyTerm>:
20000904:	b538      	push	{r3, r4, r5, lr}
20000906:	f002 fea9 	bl	2000365c <UsbTerm>
2000090a:	2400      	movs	r4, #0
2000090c:	4d04      	ldr	r5, [pc, #16]	@ (20000920 <KeyTerm+0x1c>)
2000090e:	f815 0b01 	ldrb.w	r0, [r5], #1
20000912:	3401      	adds	r4, #1
20000914:	f000 fe5e 	bl	200015d4 <GPIO_Reset>
20000918:	2c08      	cmp	r4, #8
2000091a:	d1f8      	bne.n	2000090e <KeyTerm+0xa>
2000091c:	bd38      	pop	{r3, r4, r5, pc}
2000091e:	bf00      	nop
20000920:	20009438 	.word	0x20009438

20000924 <KeyWriteKey>:
20000924:	b510      	push	{r4, lr}
20000926:	4a09      	ldr	r2, [pc, #36]	@ (2000094c <KeyWriteKey+0x28>)
20000928:	7813      	ldrb	r3, [r2, #0]
2000092a:	b2d9      	uxtb	r1, r3
2000092c:	3301      	adds	r3, #1
2000092e:	b2db      	uxtb	r3, r3
20000930:	2b10      	cmp	r3, #16
20000932:	bf28      	it	cs
20000934:	2300      	movcs	r3, #0
20000936:	f3bf 8f5f 	dmb	sy
2000093a:	4c05      	ldr	r4, [pc, #20]	@ (20000950 <KeyWriteKey+0x2c>)
2000093c:	7824      	ldrb	r4, [r4, #0]
2000093e:	429c      	cmp	r4, r3
20000940:	bf1e      	ittt	ne
20000942:	4c04      	ldrne	r4, [pc, #16]	@ (20000954 <KeyWriteKey+0x30>)
20000944:	7013      	strbne	r3, [r2, #0]
20000946:	5460      	strbne	r0, [r4, r1]
20000948:	bd10      	pop	{r4, pc}
2000094a:	bf00      	nop
2000094c:	20032434 	.word	0x20032434
20000950:	20032432 	.word	0x20032432
20000954:	2003241a 	.word	0x2003241a

20000958 <KeyScan>:
20000958:	e92d 4ff8 	stmdb	sp!, {r3, r4, r5, r6, r7, r8, r9, sl, fp, lr}
2000095c:	4b22      	ldr	r3, [pc, #136]	@ (200009e8 <KeyScan+0x90>)
2000095e:	2401      	movs	r4, #1
20000960:	6a9b      	ldr	r3, [r3, #40]	@ 0x28
20000962:	f8df 9090 	ldr.w	r9, [pc, #144]	@ 200009f4 <KeyScan+0x9c>
20000966:	f3c3 268f 	ubfx	r6, r3, #10, #16
2000096a:	46b0      	mov	r8, r6
2000096c:	4d1f      	ldr	r5, [pc, #124]	@ (200009ec <KeyScan+0x94>)
2000096e:	f8df b088 	ldr.w	fp, [pc, #136]	@ 200009f8 <KeyScan+0xa0>
20000972:	4f1f      	ldr	r7, [pc, #124]	@ (200009f0 <KeyScan+0x98>)
20000974:	f506 7a96 	add.w	sl, r6, #300	@ 0x12c
20000978:	f819 1b01 	ldrb.w	r1, [r9], #1
2000097c:	1e62      	subs	r2, r4, #1
2000097e:	ec50 3008 	mrrc	0, 0, r3, r0, cr8
20000982:	291f      	cmp	r1, #31
20000984:	bfc4      	itt	gt
20000986:	4603      	movgt	r3, r0
20000988:	3920      	subgt	r1, #32
2000098a:	40cb      	lsrs	r3, r1
2000098c:	f013 0f01 	tst.w	r3, #1
20000990:	5cbb      	ldrb	r3, [r7, r2]
20000992:	d11a      	bne.n	200009ca <KeyScan+0x72>
20000994:	b983      	cbnz	r3, 200009b8 <KeyScan+0x60>
20000996:	2301      	movs	r3, #1
20000998:	f8ab a000 	strh.w	sl, [fp]
2000099c:	54bb      	strb	r3, [r7, r2]
2000099e:	b2e0      	uxtb	r0, r4
200009a0:	f7ff ffc0 	bl	20000924 <KeyWriteKey>
200009a4:	802e      	strh	r6, [r5, #0]
200009a6:	3401      	adds	r4, #1
200009a8:	2c09      	cmp	r4, #9
200009aa:	f105 0502 	add.w	r5, r5, #2
200009ae:	f10b 0b02 	add.w	fp, fp, #2
200009b2:	d1e1      	bne.n	20000978 <KeyScan+0x20>
200009b4:	e8bd 8ff8 	ldmia.w	sp!, {r3, r4, r5, r6, r7, r8, r9, sl, fp, pc}
200009b8:	f8bb 3000 	ldrh.w	r3, [fp]
200009bc:	eba8 0303 	sub.w	r3, r8, r3
200009c0:	2b63      	cmp	r3, #99	@ 0x63
200009c2:	ddef      	ble.n	200009a4 <KeyScan+0x4c>
200009c4:	f8ab 6000 	strh.w	r6, [fp]
200009c8:	e7e9      	b.n	2000099e <KeyScan+0x46>
200009ca:	2b00      	cmp	r3, #0
200009cc:	d0eb      	beq.n	200009a6 <KeyScan+0x4e>
200009ce:	882b      	ldrh	r3, [r5, #0]
200009d0:	1af3      	subs	r3, r6, r3
200009d2:	b21b      	sxth	r3, r3
200009d4:	2b31      	cmp	r3, #49	@ 0x31
200009d6:	dde6      	ble.n	200009a6 <KeyScan+0x4e>
200009d8:	2300      	movs	r3, #0
200009da:	f064 007f 	orn	r0, r4, #127	@ 0x7f
200009de:	b2c0      	uxtb	r0, r0
200009e0:	54bb      	strb	r3, [r7, r2]
200009e2:	f7ff ff9f 	bl	20000924 <KeyWriteKey>
200009e6:	e7de      	b.n	200009a6 <KeyScan+0x4e>
200009e8:	400b0000 	.word	0x400b0000
200009ec:	2003228a 	.word	0x2003228a
200009f0:	2003242a 	.word	0x2003242a
200009f4:	20009438 	.word	0x20009438
200009f8:	2003227a 	.word	0x2003227a

200009fc <KeyGetRel>:
200009fc:	b510      	push	{r4, lr}
200009fe:	4b59      	ldr	r3, [pc, #356]	@ (20000b64 <KeyGetRel+0x168>)
20000a00:	781c      	ldrb	r4, [r3, #0]
20000a02:	b11c      	cbz	r4, 20000a0c <KeyGetRel+0x10>
20000a04:	2200      	movs	r2, #0
20000a06:	701a      	strb	r2, [r3, #0]
20000a08:	4620      	mov	r0, r4
20000a0a:	bd10      	pop	{r4, pc}
20000a0c:	f001 fc1a 	bl	20002244 <UsbKeyIsMounted>
20000a10:	2800      	cmp	r0, #0
20000a12:	f000 8094 	beq.w	20000b3e <KeyGetRel+0x142>
20000a16:	f001 fc3f 	bl	20002298 <UsbGetKeyRel>
20000a1a:	2800      	cmp	r0, #0
20000a1c:	f000 808f 	beq.w	20000b3e <KeyGetRel+0x142>
20000a20:	0c43      	lsrs	r3, r0, #17
20000a22:	b2c0      	uxtb	r0, r0
20000a24:	2863      	cmp	r0, #99	@ 0x63
20000a26:	f003 0380 	and.w	r3, r3, #128	@ 0x80
20000a2a:	d865      	bhi.n	20000af8 <KeyGetRel+0xfc>
20000a2c:	284e      	cmp	r0, #78	@ 0x4e
20000a2e:	d80a      	bhi.n	20000a46 <KeyGetRel+0x4a>
20000a30:	282b      	cmp	r0, #43	@ 0x2b
20000a32:	d8f0      	bhi.n	20000a16 <KeyGetRel+0x1a>
20000a34:	281a      	cmp	r0, #26
20000a36:	d837      	bhi.n	20000aa8 <KeyGetRel+0xac>
20000a38:	2804      	cmp	r0, #4
20000a3a:	d07d      	beq.n	20000b38 <KeyGetRel+0x13c>
20000a3c:	2805      	cmp	r0, #5
20000a3e:	d1ea      	bne.n	20000a16 <KeyGetRel+0x1a>
20000a40:	f043 0408 	orr.w	r4, r3, #8
20000a44:	e7e0      	b.n	20000a08 <KeyGetRel+0xc>
20000a46:	384f      	subs	r0, #79	@ 0x4f
20000a48:	2814      	cmp	r0, #20
20000a4a:	d8e4      	bhi.n	20000a16 <KeyGetRel+0x1a>
20000a4c:	a201      	add	r2, pc, #4	@ (adr r2, 20000a54 <KeyGetRel+0x58>)
20000a4e:	f852 f020 	ldr.w	pc, [r2, r0, lsl #2]
20000a52:	bf00      	nop
20000a54:	20000b27 	.word	0x20000b27
20000a58:	20000b21 	.word	0x20000b21
20000a5c:	20000b2d 	.word	0x20000b2d
20000a60:	20000b1b 	.word	0x20000b1b
20000a64:	20000a17 	.word	0x20000a17
20000a68:	20000a17 	.word	0x20000a17
20000a6c:	20000b33 	.word	0x20000b33
20000a70:	20000b15 	.word	0x20000b15
20000a74:	20000a41 	.word	0x20000a41
20000a78:	20000b39 	.word	0x20000b39
20000a7c:	20000a17 	.word	0x20000a17
20000a80:	20000b2d 	.word	0x20000b2d
20000a84:	20000a17 	.word	0x20000a17
20000a88:	20000b21 	.word	0x20000b21
20000a8c:	20000b2d 	.word	0x20000b2d
20000a90:	20000b27 	.word	0x20000b27
20000a94:	20000a17 	.word	0x20000a17
20000a98:	20000b1b 	.word	0x20000b1b
20000a9c:	20000a17 	.word	0x20000a17
20000aa0:	20000b39 	.word	0x20000b39
20000aa4:	20000a41 	.word	0x20000a41
20000aa8:	381b      	subs	r0, #27
20000aaa:	2810      	cmp	r0, #16
20000aac:	d8b3      	bhi.n	20000a16 <KeyGetRel+0x1a>
20000aae:	a201      	add	r2, pc, #4	@ (adr r2, 20000ab4 <KeyGetRel+0xb8>)
20000ab0:	f852 f020 	ldr.w	pc, [r2, r0, lsl #2]
20000ab4:	20000b15 	.word	0x20000b15
20000ab8:	20000b33 	.word	0x20000b33
20000abc:	20000b33 	.word	0x20000b33
20000ac0:	20000a17 	.word	0x20000a17
20000ac4:	20000a17 	.word	0x20000a17
20000ac8:	20000a17 	.word	0x20000a17
20000acc:	20000a17 	.word	0x20000a17
20000ad0:	20000a17 	.word	0x20000a17
20000ad4:	20000a17 	.word	0x20000a17
20000ad8:	20000a17 	.word	0x20000a17
20000adc:	20000a17 	.word	0x20000a17
20000ae0:	20000a17 	.word	0x20000a17
20000ae4:	20000a17 	.word	0x20000a17
20000ae8:	20000b39 	.word	0x20000b39
20000aec:	20000b33 	.word	0x20000b33
20000af0:	20000b33 	.word	0x20000b33
20000af4:	20000b15 	.word	0x20000b15
20000af8:	38e0      	subs	r0, #224	@ 0xe0
20000afa:	2806      	cmp	r0, #6
20000afc:	d88b      	bhi.n	20000a16 <KeyGetRel+0x1a>
20000afe:	2201      	movs	r2, #1
20000b00:	4082      	lsls	r2, r0
20000b02:	f012 0f44 	tst.w	r2, #68	@ 0x44
20000b06:	d19b      	bne.n	20000a40 <KeyGetRel+0x44>
20000b08:	f012 0f11 	tst.w	r2, #17
20000b0c:	d114      	bne.n	20000b38 <KeyGetRel+0x13c>
20000b0e:	f012 0f22 	tst.w	r2, #34	@ 0x22
20000b12:	d080      	beq.n	20000a16 <KeyGetRel+0x1a>
20000b14:	f043 0405 	orr.w	r4, r3, #5
20000b18:	e776      	b.n	20000a08 <KeyGetRel+0xc>
20000b1a:	f043 0401 	orr.w	r4, r3, #1
20000b1e:	e773      	b.n	20000a08 <KeyGetRel+0xc>
20000b20:	f043 0402 	orr.w	r4, r3, #2
20000b24:	e770      	b.n	20000a08 <KeyGetRel+0xc>
20000b26:	f043 0403 	orr.w	r4, r3, #3
20000b2a:	e76d      	b.n	20000a08 <KeyGetRel+0xc>
20000b2c:	f043 0404 	orr.w	r4, r3, #4
20000b30:	e76a      	b.n	20000a08 <KeyGetRel+0xc>
20000b32:	f043 0406 	orr.w	r4, r3, #6
20000b36:	e767      	b.n	20000a08 <KeyGetRel+0xc>
20000b38:	f043 0407 	orr.w	r4, r3, #7
20000b3c:	e764      	b.n	20000a08 <KeyGetRel+0xc>
20000b3e:	490a      	ldr	r1, [pc, #40]	@ (20000b68 <KeyGetRel+0x16c>)
20000b40:	780b      	ldrb	r3, [r1, #0]
20000b42:	b2db      	uxtb	r3, r3
20000b44:	f3bf 8f5f 	dmb	sy
20000b48:	4a08      	ldr	r2, [pc, #32]	@ (20000b6c <KeyGetRel+0x170>)
20000b4a:	7812      	ldrb	r2, [r2, #0]
20000b4c:	4293      	cmp	r3, r2
20000b4e:	f43f af5b 	beq.w	20000a08 <KeyGetRel+0xc>
20000b52:	1c5a      	adds	r2, r3, #1
20000b54:	b2d2      	uxtb	r2, r2
20000b56:	2a0f      	cmp	r2, #15
20000b58:	bf98      	it	ls
20000b5a:	4614      	movls	r4, r2
20000b5c:	4a04      	ldr	r2, [pc, #16]	@ (20000b70 <KeyGetRel+0x174>)
20000b5e:	700c      	strb	r4, [r1, #0]
20000b60:	5cd4      	ldrb	r4, [r2, r3]
20000b62:	e751      	b.n	20000a08 <KeyGetRel+0xc>
20000b64:	20032433 	.word	0x20032433
20000b68:	20032432 	.word	0x20032432
20000b6c:	20032434 	.word	0x20032434
20000b70:	2003241a 	.word	0x2003241a

20000b74 <KeyGet>:
20000b74:	b508      	push	{r3, lr}
20000b76:	f7ff ff41 	bl	200009fc <KeyGetRel>
20000b7a:	0603      	lsls	r3, r0, #24
20000b7c:	d4fb      	bmi.n	20000b76 <KeyGet+0x2>
20000b7e:	bd08      	pop	{r3, pc}

20000b80 <KeyFlush>:
20000b80:	4b04      	ldr	r3, [pc, #16]	@ (20000b94 <KeyFlush+0x14>)
20000b82:	4a05      	ldr	r2, [pc, #20]	@ (20000b98 <KeyFlush+0x18>)
20000b84:	781b      	ldrb	r3, [r3, #0]
20000b86:	b2db      	uxtb	r3, r3
20000b88:	7013      	strb	r3, [r2, #0]
20000b8a:	2200      	movs	r2, #0
20000b8c:	4b03      	ldr	r3, [pc, #12]	@ (20000b9c <KeyFlush+0x1c>)
20000b8e:	701a      	strb	r2, [r3, #0]
20000b90:	f001 bb8e 	b.w	200022b0 <UsbFlushKey>
20000b94:	20032434 	.word	0x20032434
20000b98:	20032432 	.word	0x20032432
20000b9c:	20032433 	.word	0x20032433

20000ba0 <KeyNoPressed>:
20000ba0:	2300      	movs	r3, #0
20000ba2:	4a05      	ldr	r2, [pc, #20]	@ (20000bb8 <KeyNoPressed+0x18>)
20000ba4:	5cd1      	ldrb	r1, [r2, r3]
20000ba6:	b921      	cbnz	r1, 20000bb2 <KeyNoPressed+0x12>
20000ba8:	3301      	adds	r3, #1
20000baa:	2b08      	cmp	r3, #8
20000bac:	d1fa      	bne.n	20000ba4 <KeyNoPressed+0x4>
20000bae:	2001      	movs	r0, #1
20000bb0:	4770      	bx	lr
20000bb2:	2000      	movs	r0, #0
20000bb4:	4770      	bx	lr
20000bb6:	bf00      	nop
20000bb8:	2003242a 	.word	0x2003242a

20000bbc <KeyWaitNoPressed>:
20000bbc:	b508      	push	{r3, lr}
20000bbe:	f7ff ffef 	bl	20000ba0 <KeyNoPressed>
20000bc2:	2800      	cmp	r0, #0
20000bc4:	d0fb      	beq.n	20000bbe <KeyWaitNoPressed+0x2>
20000bc6:	bd08      	pop	{r3, pc}

20000bc8 <LedInit>:
20000bc8:	e92d 41f0 	stmdb	sp!, {r4, r5, r6, r7, r8, lr}
20000bcc:	f04f 0800 	mov.w	r8, #0
20000bd0:	2508      	movs	r5, #8
20000bd2:	4f10      	ldr	r7, [pc, #64]	@ (20000c14 <LedInit+0x4c>)
20000bd4:	4c10      	ldr	r4, [pc, #64]	@ (20000c18 <LedInit+0x50>)
20000bd6:	4e11      	ldr	r6, [pc, #68]	@ (20000c1c <LedInit+0x54>)
20000bd8:	7838      	ldrb	r0, [r7, #0]
20000bda:	f000 fd2b 	bl	20001634 <GPIO_Init>
20000bde:	f817 3b01 	ldrb.w	r3, [r7], #1
20000be2:	eec0 3014 			@ <UNDEFINED> instruction: 0xeec03014
20000be6:	f814 2b01 	ldrb.w	r2, [r4], #1
20000bea:	b14a      	cbz	r2, 20000c00 <LedInit+0x38>
20000bec:	fb13 6305 	smlabb	r3, r3, r5, r6
20000bf0:	681a      	ldr	r2, [r3, #0]
20000bf2:	f443 5380 	orr.w	r3, r3, #4096	@ 0x1000
20000bf6:	f482 5280 	eor.w	r2, r2, #4096	@ 0x1000
20000bfa:	f402 5240 	and.w	r2, r2, #12288	@ 0x3000
20000bfe:	601a      	str	r2, [r3, #0]
20000c00:	4640      	mov	r0, r8
20000c02:	f7ff fbfd 	bl	20000400 <LedOff>
20000c06:	3001      	adds	r0, #1
20000c08:	2802      	cmp	r0, #2
20000c0a:	f04f 0801 	mov.w	r8, #1
20000c0e:	d1e3      	bne.n	20000bd8 <LedInit+0x10>
20000c10:	e8bd 81f0 	ldmia.w	sp!, {r4, r5, r6, r7, r8, pc}
20000c14:	2000aa8a 	.word	0x2000aa8a
20000c18:	2000aa88 	.word	0x2000aa88
20000c1c:	40028004 	.word	0x40028004

20000c20 <LedTerm>:
20000c20:	b510      	push	{r4, lr}
20000c22:	4c04      	ldr	r4, [pc, #16]	@ (20000c34 <LedTerm+0x14>)
20000c24:	7820      	ldrb	r0, [r4, #0]
20000c26:	f000 fcd5 	bl	200015d4 <GPIO_Reset>
20000c2a:	7860      	ldrb	r0, [r4, #1]
20000c2c:	e8bd 4010 	ldmia.w	sp!, {r4, lr}
20000c30:	f000 bcd0 	b.w	200015d4 <GPIO_Reset>
20000c34:	2000aa8a 	.word	0x2000aa8a

20000c38 <DeviceInit>:
20000c38:	b508      	push	{r3, lr}
20000c3a:	f7ff ffc5 	bl	20000bc8 <LedInit>
20000c3e:	2003      	movs	r0, #3
20000c40:	f007 f862 	bl	20007d08 <DispInit>
20000c44:	f7ff fe28 	bl	20000898 <KeyInit>
20000c48:	f7ff fe14 	bl	20000874 <BatInit>
20000c4c:	f004 f8be 	bl	20004dcc <PWMSndInit>
20000c50:	f005 fb6c 	bl	2000632c <SDInit>
20000c54:	200e      	movs	r0, #14
20000c56:	f000 fced 	bl	20001634 <GPIO_Init>
20000c5a:	230e      	movs	r3, #14
20000c5c:	eec0 3014 			@ <UNDEFINED> instruction: 0xeec03014
20000c60:	eec0 3010 			@ <UNDEFINED> instruction: 0xeec03010
20000c64:	bd08      	pop	{r3, pc}

20000c66 <DeviceTerm>:
20000c66:	b508      	push	{r3, lr}
20000c68:	f7ff ffda 	bl	20000c20 <LedTerm>
20000c6c:	f007 f8e2 	bl	20007e34 <DispTerm>
20000c70:	f7ff fe48 	bl	20000904 <KeyTerm>
20000c74:	f7ff fe06 	bl	20000884 <BatTerm>
20000c78:	f004 f940 	bl	20004efc <PWMSndTerm>
20000c7c:	e8bd 4008 	ldmia.w	sp!, {r3, lr}
20000c80:	f005 bb90 	b.w	200063a4 <SDTerm>

20000c84 <UsbHostHidTerm>:
20000c84:	2300      	movs	r3, #0
20000c86:	4a03      	ldr	r2, [pc, #12]	@ (20000c94 <UsbHostHidTerm+0x10>)
20000c88:	6013      	str	r3, [r2, #0]
20000c8a:	6053      	str	r3, [r2, #4]
20000c8c:	4a02      	ldr	r2, [pc, #8]	@ (20000c98 <UsbHostHidTerm+0x14>)
20000c8e:	6013      	str	r3, [r2, #0]
20000c90:	7113      	strb	r3, [r2, #4]
20000c92:	4770      	bx	lr
20000c94:	20032935 	.word	0x20032935
20000c98:	2003293e 	.word	0x2003293e

20000c9c <FatalErrorMsgText>:
20000c9c:	231f      	movs	r3, #31
20000c9e:	b513      	push	{r0, r1, r4, lr}
20000ca0:	4c06      	ldr	r4, [pc, #24]	@ (20000cbc <FatalErrorMsgText+0x20>)
20000ca2:	9300      	str	r3, [sp, #0]
20000ca4:	2100      	movs	r1, #0
20000ca6:	f64f 73ff 	movw	r3, #65535	@ 0xffff
20000caa:	6822      	ldr	r2, [r4, #0]
20000cac:	f007 f96e 	bl	20007f8c <DispDrawTextRow>
20000cb0:	6823      	ldr	r3, [r4, #0]
20000cb2:	3310      	adds	r3, #16
20000cb4:	6023      	str	r3, [r4, #0]
20000cb6:	b002      	add	sp, #8
20000cb8:	bd10      	pop	{r4, pc}
20000cba:	bf00      	nop
20000cbc:	2000adf0 	.word	0x2000adf0

20000cc0 <UsbHostHidInit>:
20000cc0:	b508      	push	{r3, lr}
20000cc2:	f44f 7204 	mov.w	r2, #528	@ 0x210
20000cc6:	2100      	movs	r1, #0
20000cc8:	480c      	ldr	r0, [pc, #48]	@ (20000cfc <UsbHostHidInit+0x3c>)
20000cca:	f008 faef 	bl	200092ac <memset>
20000cce:	231e      	movs	r3, #30
20000cd0:	2210      	movs	r2, #16
20000cd2:	490b      	ldr	r1, [pc, #44]	@ (20000d00 <UsbHostHidInit+0x40>)
20000cd4:	480b      	ldr	r0, [pc, #44]	@ (20000d04 <UsbHostHidInit+0x44>)
20000cd6:	f003 fd63 	bl	200047a0 <EventRingInit>
20000cda:	231e      	movs	r3, #30
20000cdc:	2210      	movs	r2, #16
20000cde:	490a      	ldr	r1, [pc, #40]	@ (20000d08 <UsbHostHidInit+0x48>)
20000ce0:	480a      	ldr	r0, [pc, #40]	@ (20000d0c <UsbHostHidInit+0x4c>)
20000ce2:	f003 fd5d 	bl	200047a0 <EventRingInit>
20000ce6:	2300      	movs	r3, #0
20000ce8:	4a09      	ldr	r2, [pc, #36]	@ (20000d10 <UsbHostHidInit+0x50>)
20000cea:	6013      	str	r3, [r2, #0]
20000cec:	6053      	str	r3, [r2, #4]
20000cee:	4a09      	ldr	r2, [pc, #36]	@ (20000d14 <UsbHostHidInit+0x54>)
20000cf0:	6013      	str	r3, [r2, #0]
20000cf2:	7113      	strb	r3, [r2, #4]
20000cf4:	4a08      	ldr	r2, [pc, #32]	@ (20000d18 <UsbHostHidInit+0x58>)
20000cf6:	7013      	strb	r3, [r2, #0]
20000cf8:	bd08      	pop	{r3, pc}
20000cfa:	bf00      	nop
20000cfc:	20031cf0 	.word	0x20031cf0
20000d00:	20031f14 	.word	0x20031f14
20000d04:	20031f00 	.word	0x20031f00
20000d08:	20032028 	.word	0x20032028
20000d0c:	20032014 	.word	0x20032014
20000d10:	20032935 	.word	0x20032935
20000d14:	2003293e 	.word	0x2003293e
20000d18:	2003293d 	.word	0x2003293d

20000d1c <UsbHostHidClose>:
20000d1c:	b570      	push	{r4, r5, r6, lr}
20000d1e:	4606      	mov	r6, r0
20000d20:	2500      	movs	r5, #0
20000d22:	4c10      	ldr	r4, [pc, #64]	@ (20000d64 <UsbHostHidClose+0x48>)
20000d24:	7823      	ldrb	r3, [r4, #0]
20000d26:	b1bb      	cbz	r3, 20000d58 <UsbHostHidClose+0x3c>
20000d28:	7863      	ldrb	r3, [r4, #1]
20000d2a:	42b3      	cmp	r3, r6
20000d2c:	d114      	bne.n	20000d58 <UsbHostHidClose+0x3c>
20000d2e:	78e3      	ldrb	r3, [r4, #3]
20000d30:	2b01      	cmp	r3, #1
20000d32:	d106      	bne.n	20000d42 <UsbHostHidClose+0x26>
20000d34:	480c      	ldr	r0, [pc, #48]	@ (20000d68 <UsbHostHidClose+0x4c>)
20000d36:	f003 fd3a 	bl	200047ae <EventRingClear>
20000d3a:	2200      	movs	r2, #0
20000d3c:	4b0b      	ldr	r3, [pc, #44]	@ (20000d6c <UsbHostHidClose+0x50>)
20000d3e:	601a      	str	r2, [r3, #0]
20000d40:	605a      	str	r2, [r3, #4]
20000d42:	78e3      	ldrb	r3, [r4, #3]
20000d44:	2b02      	cmp	r3, #2
20000d46:	d102      	bne.n	20000d4e <UsbHostHidClose+0x32>
20000d48:	4809      	ldr	r0, [pc, #36]	@ (20000d70 <UsbHostHidClose+0x54>)
20000d4a:	f003 fd30 	bl	200047ae <EventRingClear>
20000d4e:	2284      	movs	r2, #132	@ 0x84
20000d50:	2100      	movs	r1, #0
20000d52:	4620      	mov	r0, r4
20000d54:	f008 faaa 	bl	200092ac <memset>
20000d58:	3501      	adds	r5, #1
20000d5a:	2d04      	cmp	r5, #4
20000d5c:	f104 0484 	add.w	r4, r4, #132	@ 0x84
20000d60:	d1e0      	bne.n	20000d24 <UsbHostHidClose+0x8>
20000d62:	bd70      	pop	{r4, r5, r6, pc}
20000d64:	20031cf0 	.word	0x20031cf0
20000d68:	20031f00 	.word	0x20031f00
20000d6c:	20032935 	.word	0x20032935
20000d70:	20032014 	.word	0x20032014

20000d74 <RomFunc>:
20000d74:	2300      	movs	r3, #0
20000d76:	8adb      	ldrh	r3, [r3, #22]
20000d78:	2200      	movs	r2, #0
20000d7a:	e842 f200 	tt	r2, r2
20000d7e:	0252      	lsls	r2, r2, #9
20000d80:	bf54      	ite	pl
20000d82:	2110      	movpl	r1, #16
20000d84:	2104      	movmi	r1, #4
20000d86:	4718      	bx	r3

20000d88 <RomFncInit>:
20000d88:	b508      	push	{r3, lr}
20000d8a:	f244 6049 	movw	r0, #17993	@ 0x4649
20000d8e:	f7ff fff1 	bl	20000d74 <RomFunc>
20000d92:	4b49      	ldr	r3, [pc, #292]	@ (20000eb8 <RomFncInit+0x130>)
20000d94:	6018      	str	r0, [r3, #0]
20000d96:	f645 0045 	movw	r0, #22597	@ 0x5845
20000d9a:	f7ff ffeb 	bl	20000d74 <RomFunc>
20000d9e:	4b47      	ldr	r3, [pc, #284]	@ (20000ebc <RomFncInit+0x134>)
20000da0:	6018      	str	r0, [r3, #0]
20000da2:	f244 5052 	movw	r0, #17746	@ 0x4552
20000da6:	f7ff ffe5 	bl	20000d74 <RomFunc>
20000daa:	4b45      	ldr	r3, [pc, #276]	@ (20000ec0 <RomFncInit+0x138>)
20000dac:	6018      	str	r0, [r3, #0]
20000dae:	f245 0052 	movw	r0, #20562	@ 0x5052
20000db2:	f7ff ffdf 	bl	20000d74 <RomFunc>
20000db6:	4b43      	ldr	r3, [pc, #268]	@ (20000ec4 <RomFncInit+0x13c>)
20000db8:	6018      	str	r0, [r3, #0]
20000dba:	f244 3046 	movw	r0, #17222	@ 0x4346
20000dbe:	f7ff ffd9 	bl	20000d74 <RomFunc>
20000dc2:	4b41      	ldr	r3, [pc, #260]	@ (20000ec8 <RomFncInit+0x140>)
20000dc4:	6018      	str	r0, [r3, #0]
20000dc6:	f645 0043 	movw	r0, #22595	@ 0x5843
20000dca:	f7ff ffd3 	bl	20000d74 <RomFunc>
20000dce:	4b3f      	ldr	r3, [pc, #252]	@ (20000ecc <RomFncInit+0x144>)
20000dd0:	6018      	str	r0, [r3, #0]
20000dd2:	f244 2052 	movw	r0, #16978	@ 0x4252
20000dd6:	f7ff ffcd 	bl	20000d74 <RomFunc>
20000dda:	4b3d      	ldr	r3, [pc, #244]	@ (20000ed0 <RomFncInit+0x148>)
20000ddc:	6018      	str	r0, [r3, #0]
20000dde:	f245 2053 	movw	r0, #21075	@ 0x5253
20000de2:	f7ff ffc7 	bl	20000d74 <RomFunc>
20000de6:	4b3b      	ldr	r3, [pc, #236]	@ (20000ed4 <RomFncInit+0x14c>)
20000de8:	6018      	str	r0, [r3, #0]
20000dea:	f244 1052 	movw	r0, #16722	@ 0x4152
20000dee:	f7ff ffc1 	bl	20000d74 <RomFunc>
20000df2:	4b39      	ldr	r3, [pc, #228]	@ (20000ed8 <RomFncInit+0x150>)
20000df4:	6018      	str	r0, [r3, #0]
20000df6:	f644 5058 	movw	r0, #19800	@ 0x4d58
20000dfa:	f7ff ffbb 	bl	20000d74 <RomFunc>
20000dfe:	4b37      	ldr	r3, [pc, #220]	@ (20000edc <RomFncInit+0x154>)
20000e00:	6018      	str	r0, [r3, #0]
20000e02:	f245 3047 	movw	r0, #21319	@ 0x5347
20000e06:	f7ff ffb5 	bl	20000d74 <RomFunc>
20000e0a:	4b35      	ldr	r3, [pc, #212]	@ (20000ee0 <RomFncInit+0x158>)
20000e0c:	6018      	str	r0, [r3, #0]
20000e0e:	f245 0047 	movw	r0, #20551	@ 0x5047
20000e12:	f7ff ffaf 	bl	20000d74 <RomFunc>
20000e16:	4b33      	ldr	r3, [pc, #204]	@ (20000ee4 <RomFncInit+0x15c>)
20000e18:	6018      	str	r0, [r3, #0]
20000e1a:	f244 2045 	movw	r0, #16965	@ 0x4245
20000e1e:	f7ff ffa9 	bl	20000d74 <RomFunc>
20000e22:	4b31      	ldr	r3, [pc, #196]	@ (20000ee8 <RomFncInit+0x160>)
20000e24:	6018      	str	r0, [r3, #0]
20000e26:	f244 2056 	movw	r0, #16982	@ 0x4256
20000e2a:	f7ff ffa3 	bl	20000d74 <RomFunc>
20000e2e:	4b2f      	ldr	r3, [pc, #188]	@ (20000eec <RomFncInit+0x164>)
20000e30:	6018      	str	r0, [r3, #0]
20000e32:	f244 3052 	movw	r0, #17234	@ 0x4352
20000e36:	f7ff ff9d 	bl	20000d74 <RomFunc>
20000e3a:	4b2d      	ldr	r3, [pc, #180]	@ (20000ef0 <RomFncInit+0x168>)
20000e3c:	6018      	str	r0, [r3, #0]
20000e3e:	f644 1043 	movw	r0, #18755	@ 0x4943
20000e42:	f7ff ff97 	bl	20000d74 <RomFunc>
20000e46:	4b2b      	ldr	r3, [pc, #172]	@ (20000ef4 <RomFncInit+0x16c>)
20000e48:	6018      	str	r0, [r3, #0]
20000e4a:	f245 004c 	movw	r0, #20556	@ 0x504c
20000e4e:	f7ff ff91 	bl	20000d74 <RomFunc>
20000e52:	4b29      	ldr	r3, [pc, #164]	@ (20000ef8 <RomFncInit+0x170>)
20000e54:	6018      	str	r0, [r3, #0]
20000e56:	f244 2041 	movw	r0, #16961	@ 0x4241
20000e5a:	f7ff ff8b 	bl	20000d74 <RomFunc>
20000e5e:	4b27      	ldr	r3, [pc, #156]	@ (20000efc <RomFncInit+0x174>)
20000e60:	6018      	str	r0, [r3, #0]
20000e62:	f244 2047 	movw	r0, #16967	@ 0x4247
20000e66:	f7ff ff85 	bl	20000d74 <RomFunc>
20000e6a:	4b25      	ldr	r3, [pc, #148]	@ (20000f00 <RomFncInit+0x178>)
20000e6c:	6018      	str	r0, [r3, #0]
20000e6e:	f245 5047 	movw	r0, #21831	@ 0x5547
20000e72:	f7ff ff7f 	bl	20000d74 <RomFunc>
20000e76:	4b23      	ldr	r3, [pc, #140]	@ (20000f04 <RomFncInit+0x17c>)
20000e78:	6018      	str	r0, [r3, #0]
20000e7a:	f244 104f 	movw	r0, #16719	@ 0x414f
20000e7e:	f7ff ff79 	bl	20000d74 <RomFunc>
20000e82:	4b21      	ldr	r3, [pc, #132]	@ (20000f08 <RomFncInit+0x180>)
20000e84:	6018      	str	r0, [r3, #0]
20000e86:	f244 1046 	movw	r0, #16710	@ 0x4146
20000e8a:	f7ff ff73 	bl	20000d74 <RomFunc>
20000e8e:	4b1f      	ldr	r3, [pc, #124]	@ (20000f0c <RomFncInit+0x184>)
20000e90:	6018      	str	r0, [r3, #0]
20000e92:	f644 7046 	movw	r0, #20294	@ 0x4f46
20000e96:	f7ff ff6d 	bl	20000d74 <RomFunc>
20000e9a:	4b1d      	ldr	r3, [pc, #116]	@ (20000f10 <RomFncInit+0x188>)
20000e9c:	6018      	str	r0, [r3, #0]
20000e9e:	f245 0053 	movw	r0, #20563	@ 0x5053
20000ea2:	f7ff ff67 	bl	20000d74 <RomFunc>
20000ea6:	4b1b      	ldr	r3, [pc, #108]	@ (20000f14 <RomFncInit+0x18c>)
20000ea8:	6018      	str	r0, [r3, #0]
20000eaa:	f244 3053 	movw	r0, #17235	@ 0x4353
20000eae:	f7ff ff61 	bl	20000d74 <RomFunc>
20000eb2:	4b19      	ldr	r3, [pc, #100]	@ (20000f18 <RomFncInit+0x190>)
20000eb4:	6018      	str	r0, [r3, #0]
20000eb6:	bd08      	pop	{r3, pc}
20000eb8:	2000be50 	.word	0x2000be50
20000ebc:	2000be48 	.word	0x2000be48
20000ec0:	20031810 	.word	0x20031810
20000ec4:	20031818 	.word	0x20031818
20000ec8:	2000be4c 	.word	0x2000be4c
20000ecc:	2000be44 	.word	0x2000be44
20000ed0:	20031844 	.word	0x20031844
20000ed4:	20031854 	.word	0x20031854
20000ed8:	2003181c 	.word	0x2003181c
20000edc:	20031820 	.word	0x20031820
20000ee0:	20031830 	.word	0x20031830
20000ee4:	2003182c 	.word	0x2003182c
20000ee8:	2003180c 	.word	0x2003180c
20000eec:	20031858 	.word	0x20031858
20000ef0:	2003184c 	.word	0x2003184c
20000ef4:	20031808 	.word	0x20031808
20000ef8:	20031838 	.word	0x20031838
20000efc:	20031840 	.word	0x20031840
20000f00:	20031828 	.word	0x20031828
20000f04:	20031834 	.word	0x20031834
20000f08:	2003183c 	.word	0x2003183c
20000f0c:	20031824 	.word	0x20031824
20000f10:	20031814 	.word	0x20031814
20000f14:	20031850 	.word	0x20031850
20000f18:	20031848 	.word	0x20031848

20000f1c <ClockSetup>:
20000f1c:	2809      	cmp	r0, #9
20000f1e:	e92d 43f8 	stmdb	sp!, {r3, r4, r5, r6, r7, r8, r9, lr}
20000f22:	4606      	mov	r6, r0
20000f24:	d87e      	bhi.n	20001024 <ClockSetup+0x108>
20000f26:	b913      	cbnz	r3, 20000f2e <ClockSetup+0x12>
20000f28:	4b3f      	ldr	r3, [pc, #252]	@ (20001028 <ClockSetup+0x10c>)
20000f2a:	f853 3021 	ldr.w	r3, [r3, r1, lsl #2]
20000f2e:	2a00      	cmp	r2, #0
20000f30:	d05a      	beq.n	20000fe8 <ClockSetup+0xcc>
20000f32:	4293      	cmp	r3, r2
20000f34:	d376      	bcc.n	20001024 <ClockSetup+0x108>
20000f36:	1f0c      	subs	r4, r1, #4
20000f38:	2c0e      	cmp	r4, #14
20000f3a:	d873      	bhi.n	20001024 <ClockSetup+0x108>
20000f3c:	1ef0      	subs	r0, r6, #3
20000f3e:	2805      	cmp	r0, #5
20000f40:	bfa8      	it	ge
20000f42:	2005      	movge	r0, #5
20000f44:	250f      	movs	r5, #15
20000f46:	ea20 70e0 	bic.w	r0, r0, r0, asr #31
20000f4a:	fb10 4005 	smlabb	r0, r0, r5, r4
20000f4e:	4c37      	ldr	r4, [pc, #220]	@ (2000102c <ClockSetup+0x110>)
20000f50:	5620      	ldrsb	r0, [r4, r0]
20000f52:	2800      	cmp	r0, #0
20000f54:	db66      	blt.n	20001024 <ClockSetup+0x108>
20000f56:	4c36      	ldr	r4, [pc, #216]	@ (20001030 <ClockSetup+0x114>)
20000f58:	f000 071f 	and.w	r7, r0, #31
20000f5c:	55a1      	strb	r1, [r4, r6]
20000f5e:	240c      	movs	r4, #12
20000f60:	0641      	lsls	r1, r0, #25
20000f62:	ea4f 4503 	mov.w	r5, r3, lsl #16
20000f66:	ea4f 0052 	mov.w	r0, r2, lsr #1
20000f6a:	bf58      	it	pl
20000f6c:	46b9      	movpl	r9, r7
20000f6e:	ea4f 4813 	mov.w	r8, r3, lsr #16
20000f72:	bf54      	ite	pl
20000f74:	2701      	movpl	r7, #1
20000f76:	f04f 0900 	movmi.w	r9, #0
20000f7a:	1940      	adds	r0, r0, r5
20000f7c:	f04f 0300 	mov.w	r3, #0
20000f80:	f148 0100 	adc.w	r1, r8, #0
20000f84:	f007 ffa4 	bl	20008ed0 <__aeabi_uldivmod>
20000f88:	4374      	muls	r4, r6
20000f8a:	f104 4480 	add.w	r4, r4, #1073741824	@ 0x40000000
20000f8e:	f504 3480 	add.w	r4, r4, #65536	@ 0x10000
20000f92:	6863      	ldr	r3, [r4, #4]
20000f94:	1f31      	subs	r1, r6, #4
20000f96:	4283      	cmp	r3, r0
20000f98:	bf38      	it	cc
20000f9a:	6060      	strcc	r0, [r4, #4]
20000f9c:	2901      	cmp	r1, #1
20000f9e:	4602      	mov	r2, r0
20000fa0:	f444 5340 	orr.w	r3, r4, #12288	@ 0x3000
20000fa4:	d822      	bhi.n	20000fec <ClockSetup+0xd0>
20000fa6:	2f01      	cmp	r7, #1
20000fa8:	d120      	bne.n	20000fec <ClockSetup+0xd0>
20000faa:	2003      	movs	r0, #3
20000fac:	6018      	str	r0, [r3, #0]
20000fae:	68a3      	ldr	r3, [r4, #8]
20000fb0:	07db      	lsls	r3, r3, #31
20000fb2:	d5fc      	bpl.n	20000fae <ClockSetup+0x92>
20000fb4:	6823      	ldr	r3, [r4, #0]
20000fb6:	f444 5080 	orr.w	r0, r4, #4096	@ 0x1000
20000fba:	ea83 1349 	eor.w	r3, r3, r9, lsl #5
20000fbe:	f403 73f0 	and.w	r3, r3, #480	@ 0x1e0
20000fc2:	2901      	cmp	r1, #1
20000fc4:	6003      	str	r3, [r0, #0]
20000fc6:	d922      	bls.n	2000100e <ClockSetup+0xf2>
20000fc8:	f44f 6300 	mov.w	r3, #2048	@ 0x800
20000fcc:	6062      	str	r2, [r4, #4]
20000fce:	f444 5400 	orr.w	r4, r4, #8192	@ 0x2000
20000fd2:	6023      	str	r3, [r4, #0]
20000fd4:	4628      	mov	r0, r5
20000fd6:	2300      	movs	r3, #0
20000fd8:	4641      	mov	r1, r8
20000fda:	f007 ff79 	bl	20008ed0 <__aeabi_uldivmod>
20000fde:	4b12      	ldr	r3, [pc, #72]	@ (20001028 <ClockSetup+0x10c>)
20000fe0:	f843 0026 	str.w	r0, [r3, r6, lsl #2]
20000fe4:	e8bd 83f8 	ldmia.w	sp!, {r3, r4, r5, r6, r7, r8, r9, pc}
20000fe8:	461a      	mov	r2, r3
20000fea:	e7a4      	b.n	20000f36 <ClockSetup+0x1a>
20000fec:	f44f 6000 	mov.w	r0, #2048	@ 0x800
20000ff0:	6018      	str	r0, [r3, #0]
20000ff2:	4b0d      	ldr	r3, [pc, #52]	@ (20001028 <ClockSetup+0x10c>)
20000ff4:	f853 0026 	ldr.w	r0, [r3, r6, lsl #2]
20000ff8:	2800      	cmp	r0, #0
20000ffa:	d0db      	beq.n	20000fb4 <ClockSetup+0x98>
20000ffc:	695b      	ldr	r3, [r3, #20]
20000ffe:	eb03 0343 	add.w	r3, r3, r3, lsl #1
20001002:	fbb3 f3f0 	udiv	r3, r3, r0
20001006:	3301      	adds	r3, #1
20001008:	3b03      	subs	r3, #3
2000100a:	d2fd      	bcs.n	20001008 <ClockSetup+0xec>
2000100c:	e7d2      	b.n	20000fb4 <ClockSetup+0x98>
2000100e:	6823      	ldr	r3, [r4, #0]
20001010:	407b      	eors	r3, r7
20001012:	f003 0303 	and.w	r3, r3, #3
20001016:	6003      	str	r3, [r0, #0]
20001018:	2301      	movs	r3, #1
2000101a:	40bb      	lsls	r3, r7
2000101c:	68a1      	ldr	r1, [r4, #8]
2000101e:	4219      	tst	r1, r3
20001020:	d0fc      	beq.n	2000101c <ClockSetup+0x100>
20001022:	e7d1      	b.n	20000fc8 <ClockSetup+0xac>
20001024:	2000      	movs	r0, #0
20001026:	e7dd      	b.n	20000fe4 <ClockSetup+0xc8>
20001028:	2000ab40 	.word	0x2000ab40
2000102c:	2000985e 	.word	0x2000985e
20001030:	200323d8 	.word	0x200323d8

20001034 <StackFeed>:
20001034:	f04f 4250 	mov.w	r2, #3489660928	@ 0xd0000000
20001038:	4911      	ldr	r1, [pc, #68]	@ (20001080 <StackFeed+0x4c>)
2000103a:	6810      	ldr	r0, [r2, #0]
2000103c:	4b11      	ldr	r3, [pc, #68]	@ (20001084 <StackFeed+0x50>)
2000103e:	2800      	cmp	r0, #0
20001040:	bf18      	it	ne
20001042:	460b      	movne	r3, r1
20001044:	6810      	ldr	r0, [r2, #0]
20001046:	4910      	ldr	r1, [pc, #64]	@ (20001088 <StackFeed+0x54>)
20001048:	4a10      	ldr	r2, [pc, #64]	@ (2000108c <StackFeed+0x58>)
2000104a:	3303      	adds	r3, #3
2000104c:	2800      	cmp	r0, #0
2000104e:	bf18      	it	ne
20001050:	460a      	movne	r2, r1
20001052:	f023 0303 	bic.w	r3, r3, #3
20001056:	4668      	mov	r0, sp
20001058:	4283      	cmp	r3, r0
2000105a:	d80e      	bhi.n	2000107a <StackFeed+0x46>
2000105c:	f022 0203 	bic.w	r2, r2, #3
20001060:	4282      	cmp	r2, r0
20001062:	d30a      	bcc.n	2000107a <StackFeed+0x46>
20001064:	1ac0      	subs	r0, r0, r3
20001066:	f020 0203 	bic.w	r2, r0, #3
2000106a:	4909      	ldr	r1, [pc, #36]	@ (20001090 <StackFeed+0x5c>)
2000106c:	441a      	add	r2, r3
2000106e:	4293      	cmp	r3, r2
20001070:	d100      	bne.n	20001074 <StackFeed+0x40>
20001072:	4770      	bx	lr
20001074:	f843 1b04 	str.w	r1, [r3], #4
20001078:	e7f9      	b.n	2000106e <StackFeed+0x3a>
2000107a:	2000      	movs	r0, #0
2000107c:	4770      	bx	lr
2000107e:	bf00      	nop
20001080:	20081020 	.word	0x20081020
20001084:	20080000 	.word	0x20080000
20001088:	20082000 	.word	0x20082000
2000108c:	20081000 	.word	0x20081000
20001090:	600df00d 	.word	0x600df00d

20001094 <DMA_Abort>:
20001094:	b5f7      	push	{r0, r1, r2, r4, r5, r6, r7, lr}
20001096:	0182      	lsls	r2, r0, #6
20001098:	f102 42a0 	add.w	r2, r2, #1342177280	@ 0x50000000
2000109c:	4611      	mov	r1, r2
2000109e:	2301      	movs	r3, #1
200010a0:	f851 6f10 	ldr.w	r6, [r1, #16]!
200010a4:	f8df e0f0 	ldr.w	lr, [pc, #240]	@ 20001198 <DMA_Abort+0x104>
200010a8:	f441 5440 	orr.w	r4, r1, #12288	@ 0x3000
200010ac:	6023      	str	r3, [r4, #0]
200010ae:	f8d2 c010 	ldr.w	ip, [r2, #16]
200010b2:	6914      	ldr	r4, [r2, #16]
200010b4:	f441 5780 	orr.w	r7, r1, #4096	@ 0x1000
200010b8:	ea84 3440 	eor.w	r4, r4, r0, lsl #13
200010bc:	f404 34f0 	and.w	r4, r4, #122880	@ 0x1e000
200010c0:	603c      	str	r4, [r7, #0]
200010c2:	f04f 44a0 	mov.w	r4, #1342177280	@ 0x50000000
200010c6:	f8d4 5404 	ldr.w	r5, [r4, #1028]	@ 0x404
200010ca:	4083      	lsls	r3, r0
200010cc:	40c5      	lsrs	r5, r0
200010ce:	f005 0501 	and.w	r5, r5, #1
200010d2:	f88d 5004 	strb.w	r5, [sp, #4]
200010d6:	f8ce 3404 	str.w	r3, [lr, #1028]	@ 0x404
200010da:	f8d4 5414 	ldr.w	r5, [r4, #1044]	@ 0x414
200010de:	f006 0601 	and.w	r6, r6, #1
200010e2:	40c5      	lsrs	r5, r0
200010e4:	f005 0501 	and.w	r5, r5, #1
200010e8:	f88d 5005 	strb.w	r5, [sp, #5]
200010ec:	f8ce 3414 	str.w	r3, [lr, #1044]	@ 0x414
200010f0:	f8d4 5424 	ldr.w	r5, [r4, #1060]	@ 0x424
200010f4:	40c5      	lsrs	r5, r0
200010f6:	f005 0501 	and.w	r5, r5, #1
200010fa:	f88d 5006 	strb.w	r5, [sp, #6]
200010fe:	f8ce 3424 	str.w	r3, [lr, #1060]	@ 0x424
20001102:	f8d4 5434 	ldr.w	r5, [r4, #1076]	@ 0x434
20001106:	fa25 f000 	lsr.w	r0, r5, r0
2000110a:	f000 0001 	and.w	r0, r0, #1
2000110e:	f88d 0007 	strb.w	r0, [sp, #7]
20001112:	f8ce 3434 	str.w	r3, [lr, #1076]	@ 0x434
20001116:	f3ef 8510 	mrs	r5, PRIMASK
2000111a:	b672      	cpsid	i
2000111c:	f3bf 8f5f 	dmb	sy
20001120:	f8c4 3464 	str.w	r3, [r4, #1124]	@ 0x464
20001124:	6910      	ldr	r0, [r2, #16]
20001126:	0140      	lsls	r0, r0, #5
20001128:	d4fc      	bmi.n	20001124 <DMA_Abort+0x90>
2000112a:	f04f 40a0 	mov.w	r0, #1342177280	@ 0x50000000
2000112e:	f8c0 340c 	str.w	r3, [r0, #1036]	@ 0x40c
20001132:	f8c0 341c 	str.w	r3, [r0, #1052]	@ 0x41c
20001136:	f8c0 342c 	str.w	r3, [r0, #1068]	@ 0x42c
2000113a:	f8c0 343c 	str.w	r3, [r0, #1084]	@ 0x43c
2000113e:	6910      	ldr	r0, [r2, #16]
20001140:	6110      	str	r0, [r2, #16]
20001142:	f3bf 8f5f 	dmb	sy
20001146:	f385 8810 	msr	PRIMASK, r5
2000114a:	f89d 0004 	ldrb.w	r0, [sp, #4]
2000114e:	b110      	cbz	r0, 20001156 <DMA_Abort+0xc2>
20001150:	4810      	ldr	r0, [pc, #64]	@ (20001194 <DMA_Abort+0x100>)
20001152:	f8c0 3404 	str.w	r3, [r0, #1028]	@ 0x404
20001156:	f89d 0005 	ldrb.w	r0, [sp, #5]
2000115a:	b110      	cbz	r0, 20001162 <DMA_Abort+0xce>
2000115c:	480d      	ldr	r0, [pc, #52]	@ (20001194 <DMA_Abort+0x100>)
2000115e:	f8c0 3414 	str.w	r3, [r0, #1044]	@ 0x414
20001162:	f89d 0006 	ldrb.w	r0, [sp, #6]
20001166:	b110      	cbz	r0, 2000116e <DMA_Abort+0xda>
20001168:	480a      	ldr	r0, [pc, #40]	@ (20001194 <DMA_Abort+0x100>)
2000116a:	f8c0 3424 	str.w	r3, [r0, #1060]	@ 0x424
2000116e:	f89d 0007 	ldrb.w	r0, [sp, #7]
20001172:	b110      	cbz	r0, 2000117a <DMA_Abort+0xe6>
20001174:	4807      	ldr	r0, [pc, #28]	@ (20001194 <DMA_Abort+0x100>)
20001176:	f8c0 3434 	str.w	r3, [r0, #1076]	@ 0x434
2000117a:	6913      	ldr	r3, [r2, #16]
2000117c:	ea83 030c 	eor.w	r3, r3, ip
20001180:	f403 33f0 	and.w	r3, r3, #122880	@ 0x1e000
20001184:	603b      	str	r3, [r7, #0]
20001186:	b11e      	cbz	r6, 20001190 <DMA_Abort+0xfc>
20001188:	2301      	movs	r3, #1
2000118a:	f441 5100 	orr.w	r1, r1, #8192	@ 0x2000
2000118e:	600b      	str	r3, [r1, #0]
20001190:	b003      	add	sp, #12
20001192:	bdf0      	pop	{r4, r5, r6, r7, pc}
20001194:	50002000 	.word	0x50002000
20001198:	50003000 	.word	0x50003000

2000119c <DMA_CRC>:
2000119c:	e92d 47f3 	stmdb	sp!, {r0, r1, r4, r5, r6, r7, r8, r9, sl, lr}
200011a0:	461e      	mov	r6, r3
200011a2:	2300      	movs	r3, #0
200011a4:	0194      	lsls	r4, r2, #6
200011a6:	4680      	mov	r8, r0
200011a8:	4610      	mov	r0, r2
200011aa:	4689      	mov	r9, r1
200011ac:	4692      	mov	sl, r2
200011ae:	9f0a      	ldr	r7, [sp, #40]	@ 0x28
200011b0:	9301      	str	r3, [sp, #4]
200011b2:	f104 44a0 	add.w	r4, r4, #1342177280	@ 0x50000000
200011b6:	f7ff ff6d 	bl	20001094 <DMA_Abort>
200011ba:	f04f 43a0 	mov.w	r3, #1342177280	@ 0x50000000
200011be:	ea4f 1548 	mov.w	r5, r8, lsl #5
200011c2:	f405 75f0 	and.w	r5, r5, #480	@ 0x1e0
200011c6:	ea45 054a 	orr.w	r5, r5, sl, lsl #1
200011ca:	f018 0f10 	tst.w	r8, #16
200011ce:	bf18      	it	ne
200011d0:	f445 6500 	orrne.w	r5, r5, #2048	@ 0x800
200011d4:	f045 0501 	orr.w	r5, r5, #1
200011d8:	f018 0f20 	tst.w	r8, #32
200011dc:	bf18      	it	ne
200011de:	f445 6580 	orrne.w	r5, r5, #1024	@ 0x400
200011e2:	f8c3 5454 	str.w	r5, [r3, #1108]	@ 0x454
200011e6:	f8c3 9458 	str.w	r9, [r3, #1112]	@ 0x458
200011ea:	ab01      	add	r3, sp, #4
200011ec:	6026      	str	r6, [r4, #0]
200011ee:	6063      	str	r3, [r4, #4]
200011f0:	4b1a      	ldr	r3, [pc, #104]	@ (2000125c <DMA_CRC+0xc0>)
200011f2:	f016 0603 	ands.w	r6, r6, #3
200011f6:	ea4f 314a 	mov.w	r1, sl, lsl #13
200011fa:	ea43 334a 	orr.w	r3, r3, sl, lsl #13
200011fe:	d00c      	beq.n	2000121a <DMA_CRC+0x7e>
20001200:	2f00      	cmp	r7, #0
20001202:	dd14      	ble.n	2000122e <DMA_CRC+0x92>
20001204:	f1c6 0604 	rsb	r6, r6, #4
20001208:	42be      	cmp	r6, r7
2000120a:	bfa8      	it	ge
2000120c:	463e      	movge	r6, r7
2000120e:	1bbf      	subs	r7, r7, r6
20001210:	60a6      	str	r6, [r4, #8]
20001212:	60e3      	str	r3, [r4, #12]
20001214:	6922      	ldr	r2, [r4, #16]
20001216:	0150      	lsls	r0, r2, #5
20001218:	d4fc      	bmi.n	20001214 <DMA_CRC+0x78>
2000121a:	10ba      	asrs	r2, r7, #2
2000121c:	2a00      	cmp	r2, #0
2000121e:	dd06      	ble.n	2000122e <DMA_CRC+0x92>
20001220:	60a2      	str	r2, [r4, #8]
20001222:	4a0f      	ldr	r2, [pc, #60]	@ (20001260 <DMA_CRC+0xc4>)
20001224:	430a      	orrs	r2, r1
20001226:	60e2      	str	r2, [r4, #12]
20001228:	6922      	ldr	r2, [r4, #16]
2000122a:	0152      	lsls	r2, r2, #5
2000122c:	d4fc      	bmi.n	20001228 <DMA_CRC+0x8c>
2000122e:	f017 0703 	ands.w	r7, r7, #3
20001232:	d004      	beq.n	2000123e <DMA_CRC+0xa2>
20001234:	60a7      	str	r7, [r4, #8]
20001236:	60e3      	str	r3, [r4, #12]
20001238:	6923      	ldr	r3, [r4, #16]
2000123a:	015b      	lsls	r3, r3, #5
2000123c:	d4fc      	bmi.n	20001238 <DMA_CRC+0x9c>
2000123e:	2301      	movs	r3, #1
20001240:	3410      	adds	r4, #16
20001242:	f444 5440 	orr.w	r4, r4, #12288	@ 0x3000
20001246:	6023      	str	r3, [r4, #0]
20001248:	f04f 43a0 	mov.w	r3, #1342177280	@ 0x50000000
2000124c:	2200      	movs	r2, #0
2000124e:	f8d3 0458 	ldr.w	r0, [r3, #1112]	@ 0x458
20001252:	f8c3 2454 	str.w	r2, [r3, #1108]	@ 0x454
20001256:	b002      	add	sp, #8
20001258:	e8bd 87f0 	ldmia.w	sp!, {r4, r5, r6, r7, r8, r9, sl, pc}
2000125c:	027e0011 	.word	0x027e0011
20001260:	027e0019 	.word	0x027e0019

20001264 <FatalErrorMsg>:
20001264:	b570      	push	{r4, r5, r6, lr}
20001266:	b08e      	sub	sp, #56	@ 0x38
20001268:	4604      	mov	r4, r0
2000126a:	f002 ff1b 	bl	200040a4 <SelFont8x16>
2000126e:	2200      	movs	r2, #0
20001270:	4b61      	ldr	r3, [pc, #388]	@ (200013f8 <FatalErrorMsg+0x194>)
20001272:	601a      	str	r2, [r3, #0]
20001274:	6823      	ldr	r3, [r4, #0]
20001276:	f103 020e 	add.w	r2, r3, #14
2000127a:	2a0d      	cmp	r2, #13
2000127c:	f200 80b3 	bhi.w	200013e6 <FatalErrorMsg+0x182>
20001280:	e8df f012 	tbh	[pc, r2, lsl #1]
20001284:	00b8000e 	.word	0x00b8000e
20001288:	00a300a1 	.word	0x00a300a1
2000128c:	00a700a5 	.word	0x00a700a5
20001290:	00b100b1 	.word	0x00b100b1
20001294:	00ab00b1 	.word	0x00ab00b1
20001298:	00b100a9 	.word	0x00b100a9
2000129c:	00af00ad 	.word	0x00af00ad
200012a0:	4d56      	ldr	r5, [pc, #344]	@ (200013fc <FatalErrorMsg+0x198>)
200012a2:	4628      	mov	r0, r5
200012a4:	f005 f896 	bl	200063d4 <StrLen>
200012a8:	4628      	mov	r0, r5
200012aa:	f7ff fcf7 	bl	20000c9c <FatalErrorMsgText>
200012ae:	6ca3      	ldr	r3, [r4, #72]	@ 0x48
200012b0:	2128      	movs	r1, #40	@ 0x28
200012b2:	9301      	str	r3, [sp, #4]
200012b4:	6c63      	ldr	r3, [r4, #68]	@ 0x44
200012b6:	4a52      	ldr	r2, [pc, #328]	@ (20001400 <FatalErrorMsg+0x19c>)
200012b8:	9300      	str	r3, [sp, #0]
200012ba:	6c23      	ldr	r3, [r4, #64]	@ 0x40
200012bc:	a804      	add	r0, sp, #16
200012be:	f006 fb09 	bl	200078d4 <MemPrint>
200012c2:	a804      	add	r0, sp, #16
200012c4:	f7ff fcea 	bl	20000c9c <FatalErrorMsgText>
200012c8:	68a3      	ldr	r3, [r4, #8]
200012ca:	2128      	movs	r1, #40	@ 0x28
200012cc:	9301      	str	r3, [sp, #4]
200012ce:	6863      	ldr	r3, [r4, #4]
200012d0:	4a4c      	ldr	r2, [pc, #304]	@ (20001404 <FatalErrorMsg+0x1a0>)
200012d2:	9300      	str	r3, [sp, #0]
200012d4:	6ce3      	ldr	r3, [r4, #76]	@ 0x4c
200012d6:	a804      	add	r0, sp, #16
200012d8:	f006 fafc 	bl	200078d4 <MemPrint>
200012dc:	a804      	add	r0, sp, #16
200012de:	f7ff fcdd 	bl	20000c9c <FatalErrorMsgText>
200012e2:	6963      	ldr	r3, [r4, #20]
200012e4:	2128      	movs	r1, #40	@ 0x28
200012e6:	9301      	str	r3, [sp, #4]
200012e8:	6923      	ldr	r3, [r4, #16]
200012ea:	4a47      	ldr	r2, [pc, #284]	@ (20001408 <FatalErrorMsg+0x1a4>)
200012ec:	9300      	str	r3, [sp, #0]
200012ee:	68e3      	ldr	r3, [r4, #12]
200012f0:	a804      	add	r0, sp, #16
200012f2:	f006 faef 	bl	200078d4 <MemPrint>
200012f6:	a804      	add	r0, sp, #16
200012f8:	f7ff fcd0 	bl	20000c9c <FatalErrorMsgText>
200012fc:	6a23      	ldr	r3, [r4, #32]
200012fe:	2128      	movs	r1, #40	@ 0x28
20001300:	9301      	str	r3, [sp, #4]
20001302:	69e3      	ldr	r3, [r4, #28]
20001304:	4a41      	ldr	r2, [pc, #260]	@ (2000140c <FatalErrorMsg+0x1a8>)
20001306:	9300      	str	r3, [sp, #0]
20001308:	69a3      	ldr	r3, [r4, #24]
2000130a:	a804      	add	r0, sp, #16
2000130c:	f006 fae2 	bl	200078d4 <MemPrint>
20001310:	a804      	add	r0, sp, #16
20001312:	f7ff fcc3 	bl	20000c9c <FatalErrorMsgText>
20001316:	6d63      	ldr	r3, [r4, #84]	@ 0x54
20001318:	2128      	movs	r1, #40	@ 0x28
2000131a:	9301      	str	r3, [sp, #4]
2000131c:	6a63      	ldr	r3, [r4, #36]	@ 0x24
2000131e:	4a3c      	ldr	r2, [pc, #240]	@ (20001410 <FatalErrorMsg+0x1ac>)
20001320:	9300      	str	r3, [sp, #0]
20001322:	6d23      	ldr	r3, [r4, #80]	@ 0x50
20001324:	a804      	add	r0, sp, #16
20001326:	f006 fad5 	bl	200078d4 <MemPrint>
2000132a:	a804      	add	r0, sp, #16
2000132c:	f7ff fcb6 	bl	20000c9c <FatalErrorMsgText>
20001330:	6ae3      	ldr	r3, [r4, #44]	@ 0x2c
20001332:	2128      	movs	r1, #40	@ 0x28
20001334:	9300      	str	r3, [sp, #0]
20001336:	6aa3      	ldr	r3, [r4, #40]	@ 0x28
20001338:	4a36      	ldr	r2, [pc, #216]	@ (20001414 <FatalErrorMsg+0x1b0>)
2000133a:	a804      	add	r0, sp, #16
2000133c:	f006 faca 	bl	200078d4 <MemPrint>
20001340:	a804      	add	r0, sp, #16
20001342:	f7ff fcab 	bl	20000c9c <FatalErrorMsgText>
20001346:	6b63      	ldr	r3, [r4, #52]	@ 0x34
20001348:	2128      	movs	r1, #40	@ 0x28
2000134a:	9300      	str	r3, [sp, #0]
2000134c:	6b23      	ldr	r3, [r4, #48]	@ 0x30
2000134e:	4a32      	ldr	r2, [pc, #200]	@ (20001418 <FatalErrorMsg+0x1b4>)
20001350:	a804      	add	r0, sp, #16
20001352:	f006 fabf 	bl	200078d4 <MemPrint>
20001356:	a804      	add	r0, sp, #16
20001358:	f7ff fca0 	bl	20000c9c <FatalErrorMsgText>
2000135c:	6be3      	ldr	r3, [r4, #60]	@ 0x3c
2000135e:	2128      	movs	r1, #40	@ 0x28
20001360:	9300      	str	r3, [sp, #0]
20001362:	6ba3      	ldr	r3, [r4, #56]	@ 0x38
20001364:	4a2d      	ldr	r2, [pc, #180]	@ (2000141c <FatalErrorMsg+0x1b8>)
20001366:	a804      	add	r0, sp, #16
20001368:	f006 fab4 	bl	200078d4 <MemPrint>
2000136c:	a804      	add	r0, sp, #16
2000136e:	f7ff fc95 	bl	20000c9c <FatalErrorMsgText>
20001372:	6de3      	ldr	r3, [r4, #92]	@ 0x5c
20001374:	2128      	movs	r1, #40	@ 0x28
20001376:	9300      	str	r3, [sp, #0]
20001378:	6da3      	ldr	r3, [r4, #88]	@ 0x58
2000137a:	4a29      	ldr	r2, [pc, #164]	@ (20001420 <FatalErrorMsg+0x1bc>)
2000137c:	a804      	add	r0, sp, #16
2000137e:	f006 faa9 	bl	200078d4 <MemPrint>
20001382:	a804      	add	r0, sp, #16
20001384:	f7ff fc8a 	bl	20000c9c <FatalErrorMsgText>
20001388:	6a64      	ldr	r4, [r4, #36]	@ 0x24
2000138a:	4e26      	ldr	r6, [pc, #152]	@ (20001424 <FatalErrorMsg+0x1c0>)
2000138c:	f104 0550 	add.w	r5, r4, #80	@ 0x50
20001390:	f104 4360 	add.w	r3, r4, #3758096384	@ 0xe0000000
20001394:	3b10      	subs	r3, #16
20001396:	42b3      	cmp	r3, r6
20001398:	d813      	bhi.n	200013c2 <FatalErrorMsg+0x15e>
2000139a:	07a3      	lsls	r3, r4, #30
2000139c:	d111      	bne.n	200013c2 <FatalErrorMsg+0x15e>
2000139e:	68e3      	ldr	r3, [r4, #12]
200013a0:	2128      	movs	r1, #40	@ 0x28
200013a2:	9302      	str	r3, [sp, #8]
200013a4:	68a3      	ldr	r3, [r4, #8]
200013a6:	4a20      	ldr	r2, [pc, #128]	@ (20001428 <FatalErrorMsg+0x1c4>)
200013a8:	9301      	str	r3, [sp, #4]
200013aa:	6863      	ldr	r3, [r4, #4]
200013ac:	a804      	add	r0, sp, #16
200013ae:	9300      	str	r3, [sp, #0]
200013b0:	f854 3b10 	ldr.w	r3, [r4], #16
200013b4:	f006 fa8e 	bl	200078d4 <MemPrint>
200013b8:	a804      	add	r0, sp, #16
200013ba:	f7ff fc6f 	bl	20000c9c <FatalErrorMsgText>
200013be:	42a5      	cmp	r5, r4
200013c0:	d1e6      	bne.n	20001390 <FatalErrorMsg+0x12c>
200013c2:	b00e      	add	sp, #56	@ 0x38
200013c4:	bd70      	pop	{r4, r5, r6, pc}
200013c6:	4d19      	ldr	r5, [pc, #100]	@ (2000142c <FatalErrorMsg+0x1c8>)
200013c8:	e76b      	b.n	200012a2 <FatalErrorMsg+0x3e>
200013ca:	4d19      	ldr	r5, [pc, #100]	@ (20001430 <FatalErrorMsg+0x1cc>)
200013cc:	e769      	b.n	200012a2 <FatalErrorMsg+0x3e>
200013ce:	4d19      	ldr	r5, [pc, #100]	@ (20001434 <FatalErrorMsg+0x1d0>)
200013d0:	e767      	b.n	200012a2 <FatalErrorMsg+0x3e>
200013d2:	4d19      	ldr	r5, [pc, #100]	@ (20001438 <FatalErrorMsg+0x1d4>)
200013d4:	e765      	b.n	200012a2 <FatalErrorMsg+0x3e>
200013d6:	4d19      	ldr	r5, [pc, #100]	@ (2000143c <FatalErrorMsg+0x1d8>)
200013d8:	e763      	b.n	200012a2 <FatalErrorMsg+0x3e>
200013da:	4d19      	ldr	r5, [pc, #100]	@ (20001440 <FatalErrorMsg+0x1dc>)
200013dc:	e761      	b.n	200012a2 <FatalErrorMsg+0x3e>
200013de:	4d19      	ldr	r5, [pc, #100]	@ (20001444 <FatalErrorMsg+0x1e0>)
200013e0:	e75f      	b.n	200012a2 <FatalErrorMsg+0x3e>
200013e2:	4d19      	ldr	r5, [pc, #100]	@ (20001448 <FatalErrorMsg+0x1e4>)
200013e4:	e75d      	b.n	200012a2 <FatalErrorMsg+0x3e>
200013e6:	2128      	movs	r1, #40	@ 0x28
200013e8:	4a18      	ldr	r2, [pc, #96]	@ (2000144c <FatalErrorMsg+0x1e8>)
200013ea:	a804      	add	r0, sp, #16
200013ec:	f006 fa72 	bl	200078d4 <MemPrint>
200013f0:	ad04      	add	r5, sp, #16
200013f2:	e756      	b.n	200012a2 <FatalErrorMsg+0x3e>
200013f4:	4d16      	ldr	r5, [pc, #88]	@ (20001450 <FatalErrorMsg+0x1ec>)
200013f6:	e754      	b.n	200012a2 <FatalErrorMsg+0x3e>
200013f8:	2000adf0 	.word	0x2000adf0
200013fc:	20009440 	.word	0x20009440
20001400:	2000952b 	.word	0x2000952b
20001404:	20009543 	.word	0x20009543
20001408:	2000955b 	.word	0x2000955b
2000140c:	20009573 	.word	0x20009573
20001410:	2000958d 	.word	0x2000958d
20001414:	200095a6 	.word	0x200095a6
20001418:	200095bd 	.word	0x200095bd
2000141c:	200095d1 	.word	0x200095d1
20001420:	200095e6 	.word	0x200095e6
20001424:	00081fe0 	.word	0x00081fe0
20001428:	200095ff 	.word	0x200095ff
2000142c:	20009469 	.word	0x20009469
20001430:	20009481 	.word	0x20009481
20001434:	20009499 	.word	0x20009499
20001438:	200094ad 	.word	0x200094ad
2000143c:	200094ba 	.word	0x200094ba
20001440:	200094ce 	.word	0x200094ce
20001444:	200094e1 	.word	0x200094e1
20001448:	200094f7 	.word	0x200094f7
2000144c:	20009513 	.word	0x20009513
20001450:	20009458 	.word	0x20009458

20001454 <FlashLoadInfo>:
20001454:	e92d 4ff0 	stmdb	sp!, {r4, r5, r6, r7, r8, r9, sl, fp, lr}
20001458:	2400      	movs	r4, #0
2000145a:	b089      	sub	sp, #36	@ 0x24
2000145c:	220d      	movs	r2, #13
2000145e:	4621      	mov	r1, r4
20001460:	a804      	add	r0, sp, #16
20001462:	f8cd 4001 	str.w	r4, [sp, #1]
20001466:	f8cd 4005 	str.w	r4, [sp, #5]
2000146a:	f8cd 4009 	str.w	r4, [sp, #9]
2000146e:	f007 ff1d 	bl	200092ac <memset>
20001472:	234b      	movs	r3, #75	@ 0x4b
20001474:	4e24      	ldr	r6, [pc, #144]	@ (20001508 <FlashLoadInfo+0xb4>)
20001476:	220d      	movs	r2, #13
20001478:	4668      	mov	r0, sp
2000147a:	a904      	add	r1, sp, #16
2000147c:	f88d 3000 	strb.w	r3, [sp]
20001480:	4625      	mov	r5, r4
20001482:	f7ff f8bb 	bl	200005fc <FlashCmd>
20001486:	46b3      	mov	fp, r6
20001488:	4627      	mov	r7, r4
2000148a:	f8df a090 	ldr.w	sl, [pc, #144]	@ 2000151c <FlashLoadInfo+0xc8>
2000148e:	f10d 0914 	add.w	r9, sp, #20
20001492:	f819 8f01 	ldrb.w	r8, [r9, #1]!
20001496:	022d      	lsls	r5, r5, #8
20001498:	f80a 8b01 	strb.w	r8, [sl], #1
2000149c:	ea4f 1018 	mov.w	r0, r8, lsr #4
200014a0:	f002 fdde 	bl	20004060 <DecHexDig>
200014a4:	7030      	strb	r0, [r6, #0]
200014a6:	4640      	mov	r0, r8
200014a8:	f002 fdda 	bl	20004060 <DecHexDig>
200014ac:	ab07      	add	r3, sp, #28
200014ae:	4599      	cmp	r9, r3
200014b0:	7070      	strb	r0, [r6, #1]
200014b2:	ea45 6514 	orr.w	r5, r5, r4, lsr #24
200014b6:	f106 0602 	add.w	r6, r6, #2
200014ba:	ea48 2404 	orr.w	r4, r8, r4, lsl #8
200014be:	d1e8      	bne.n	20001492 <FlashLoadInfo+0x3e>
200014c0:	4b12      	ldr	r3, [pc, #72]	@ (2000150c <FlashLoadInfo+0xb8>)
200014c2:	2204      	movs	r2, #4
200014c4:	e9c3 4500 	strd	r4, r5, [r3]
200014c8:	239f      	movs	r3, #159	@ 0x9f
200014ca:	4668      	mov	r0, sp
200014cc:	a904      	add	r1, sp, #16
200014ce:	f88d 3000 	strb.w	r3, [sp]
200014d2:	f88b 7010 	strb.w	r7, [fp, #16]
200014d6:	f8ad 7001 	strh.w	r7, [sp, #1]
200014da:	f88d 7003 	strb.w	r7, [sp, #3]
200014de:	9704      	str	r7, [sp, #16]
200014e0:	f7ff f88c 	bl	200005fc <FlashCmd>
200014e4:	f89d 2011 	ldrb.w	r2, [sp, #17]
200014e8:	4b09      	ldr	r3, [pc, #36]	@ (20001510 <FlashLoadInfo+0xbc>)
200014ea:	701a      	strb	r2, [r3, #0]
200014ec:	f89d 2012 	ldrb.w	r2, [sp, #18]
200014f0:	4b08      	ldr	r3, [pc, #32]	@ (20001514 <FlashLoadInfo+0xc0>)
200014f2:	701a      	strb	r2, [r3, #0]
200014f4:	2301      	movs	r3, #1
200014f6:	f89d 2013 	ldrb.w	r2, [sp, #19]
200014fa:	4093      	lsls	r3, r2
200014fc:	4a06      	ldr	r2, [pc, #24]	@ (20001518 <FlashLoadInfo+0xc4>)
200014fe:	6013      	str	r3, [r2, #0]
20001500:	b009      	add	sp, #36	@ 0x24
20001502:	e8bd 8ff0 	ldmia.w	sp!, {r4, r5, r6, r7, r8, r9, sl, fp, pc}
20001506:	bf00      	nop
20001508:	20032406 	.word	0x20032406
2000150c:	2000aad8 	.word	0x2000aad8
20001510:	20032417 	.word	0x20032417
20001514:	20032418 	.word	0x20032418
20001518:	2000be54 	.word	0x2000be54
2000151c:	200323fe 	.word	0x200323fe

20001520 <GPIO_Fnc>:
20001520:	b510      	push	{r4, lr}
20001522:	2480      	movs	r4, #128	@ 0x80
20001524:	4b09      	ldr	r3, [pc, #36]	@ (2000154c <GPIO_Fnc+0x2c>)
20001526:	eb03 0380 	add.w	r3, r3, r0, lsl #2
2000152a:	f443 5240 	orr.w	r2, r3, #12288	@ 0x3000
2000152e:	6014      	str	r4, [r2, #0]
20001530:	2440      	movs	r4, #64	@ 0x40
20001532:	f443 5300 	orr.w	r3, r3, #8192	@ 0x2000
20001536:	601c      	str	r4, [r3, #0]
20001538:	f44f 7380 	mov.w	r3, #256	@ 0x100
2000153c:	f100 6000 	add.w	r0, r0, #134217728	@ 0x8000000
20001540:	f500 40a0 	add.w	r0, r0, #20480	@ 0x5000
20001544:	00c0      	lsls	r0, r0, #3
20001546:	6041      	str	r1, [r0, #4]
20001548:	6013      	str	r3, [r2, #0]
2000154a:	bd10      	pop	{r4, pc}
2000154c:	40038004 	.word	0x40038004

20001550 <ADC_PinInit>:
20001550:	b510      	push	{r4, lr}
20001552:	4604      	mov	r4, r0
20001554:	211f      	movs	r1, #31
20001556:	f7ff ffe3 	bl	20001520 <GPIO_Fnc>
2000155a:	220c      	movs	r2, #12
2000155c:	4b04      	ldr	r3, [pc, #16]	@ (20001570 <ADC_PinInit+0x20>)
2000155e:	4423      	add	r3, r4
20001560:	009b      	lsls	r3, r3, #2
20001562:	f443 5340 	orr.w	r3, r3, #12288	@ 0x3000
20001566:	601a      	str	r2, [r3, #0]
20001568:	2240      	movs	r2, #64	@ 0x40
2000156a:	601a      	str	r2, [r3, #0]
2000156c:	bd10      	pop	{r4, pc}
2000156e:	bf00      	nop
20001570:	1000e001 	.word	0x1000e001

20001574 <GPIO_IRQAck>:
20001574:	10c2      	asrs	r2, r0, #3
20001576:	f000 0007 	and.w	r0, r0, #7
2000157a:	4b03      	ldr	r3, [pc, #12]	@ (20001588 <GPIO_IRQAck+0x14>)
2000157c:	0080      	lsls	r0, r0, #2
2000157e:	4081      	lsls	r1, r0
20001580:	f843 1022 	str.w	r1, [r3, r2, lsl #2]
20001584:	4770      	bx	lr
20001586:	bf00      	nop
20001588:	40028230 	.word	0x40028230

2000158c <GPIO_IRQDisableCpu>:
2000158c:	f001 0307 	and.w	r3, r1, #7
20001590:	009b      	lsls	r3, r3, #2
20001592:	409a      	lsls	r2, r3
20001594:	2348      	movs	r3, #72	@ 0x48
20001596:	4358      	muls	r0, r3
20001598:	10c9      	asrs	r1, r1, #3
2000159a:	4b04      	ldr	r3, [pc, #16]	@ (200015ac <GPIO_IRQDisableCpu+0x20>)
2000159c:	eb00 0081 	add.w	r0, r0, r1, lsl #2
200015a0:	4403      	add	r3, r0
200015a2:	f443 5340 	orr.w	r3, r3, #12288	@ 0x3000
200015a6:	601a      	str	r2, [r3, #0]
200015a8:	4770      	bx	lr
200015aa:	bf00      	nop
200015ac:	40028248 	.word	0x40028248

200015b0 <GPIO_IRQUnforceCpu>:
200015b0:	f001 0307 	and.w	r3, r1, #7
200015b4:	009b      	lsls	r3, r3, #2
200015b6:	409a      	lsls	r2, r3
200015b8:	2348      	movs	r3, #72	@ 0x48
200015ba:	4358      	muls	r0, r3
200015bc:	10c9      	asrs	r1, r1, #3
200015be:	4b04      	ldr	r3, [pc, #16]	@ (200015d0 <GPIO_IRQUnforceCpu+0x20>)
200015c0:	eb00 0081 	add.w	r0, r0, r1, lsl #2
200015c4:	4403      	add	r3, r0
200015c6:	f443 5340 	orr.w	r3, r3, #12288	@ 0x3000
200015ca:	601a      	str	r2, [r3, #0]
200015cc:	4770      	bx	lr
200015ce:	bf00      	nop
200015d0:	40028260 	.word	0x40028260

200015d4 <GPIO_Reset>:
200015d4:	b510      	push	{r4, lr}
200015d6:	4604      	mov	r4, r0
200015d8:	4601      	mov	r1, r0
200015da:	220f      	movs	r2, #15
200015dc:	2000      	movs	r0, #0
200015de:	f7ff ffd5 	bl	2000158c <GPIO_IRQDisableCpu>
200015e2:	4621      	mov	r1, r4
200015e4:	220f      	movs	r2, #15
200015e6:	2001      	movs	r0, #1
200015e8:	f7ff ffd0 	bl	2000158c <GPIO_IRQDisableCpu>
200015ec:	4621      	mov	r1, r4
200015ee:	220f      	movs	r2, #15
200015f0:	2000      	movs	r0, #0
200015f2:	f7ff ffdd 	bl	200015b0 <GPIO_IRQUnforceCpu>
200015f6:	220f      	movs	r2, #15
200015f8:	4621      	mov	r1, r4
200015fa:	2001      	movs	r0, #1
200015fc:	f7ff ffd8 	bl	200015b0 <GPIO_IRQUnforceCpu>
20001600:	210f      	movs	r1, #15
20001602:	4620      	mov	r0, r4
20001604:	f7ff ffb6 	bl	20001574 <GPIO_IRQAck>
20001608:	eee0 4014 			@ <UNDEFINED> instruction: 0xeee04014
2000160c:	eee0 4010 			@ <UNDEFINED> instruction: 0xeee04010
20001610:	f44f 728b 	mov.w	r2, #278	@ 0x116
20001614:	4b05      	ldr	r3, [pc, #20]	@ (2000162c <GPIO_Reset+0x58>)
20001616:	4423      	add	r3, r4
20001618:	009b      	lsls	r3, r3, #2
2000161a:	601a      	str	r2, [r3, #0]
2000161c:	231f      	movs	r3, #31
2000161e:	f104 6400 	add.w	r4, r4, #134217728	@ 0x8000000
20001622:	f504 44a0 	add.w	r4, r4, #20480	@ 0x5000
20001626:	00e4      	lsls	r4, r4, #3
20001628:	6063      	str	r3, [r4, #4]
2000162a:	bd10      	pop	{r4, pc}
2000162c:	1000e001 	.word	0x1000e001

20001630 <ADC_PinTerm>:
20001630:	f7ff bfd0 	b.w	200015d4 <GPIO_Reset>

20001634 <GPIO_Init>:
20001634:	b510      	push	{r4, lr}
20001636:	4604      	mov	r4, r0
20001638:	f7ff ffcc 	bl	200015d4 <GPIO_Reset>
2000163c:	eee0 4014 			@ <UNDEFINED> instruction: 0xeee04014
20001640:	eee0 4010 			@ <UNDEFINED> instruction: 0xeee04010
20001644:	2105      	movs	r1, #5
20001646:	4620      	mov	r0, r4
20001648:	e8bd 4010 	ldmia.w	sp!, {r4, lr}
2000164c:	f7ff bf68 	b.w	20001520 <GPIO_Fnc>

20001650 <NVIC_IRQPrio>:
20001650:	2206      	movs	r2, #6
20001652:	b510      	push	{r4, lr}
20001654:	24ff      	movs	r4, #255	@ 0xff
20001656:	f020 0303 	bic.w	r3, r0, #3
2000165a:	f103 4360 	add.w	r3, r3, #3758096384	@ 0xe0000000
2000165e:	f503 4364 	add.w	r3, r3, #58368	@ 0xe400
20001662:	f000 0003 	and.w	r0, r0, #3
20001666:	eb02 00c0 	add.w	r0, r2, r0, lsl #3
2000166a:	681a      	ldr	r2, [r3, #0]
2000166c:	4084      	lsls	r4, r0
2000166e:	ea22 0204 	bic.w	r2, r2, r4
20001672:	4081      	lsls	r1, r0
20001674:	430a      	orrs	r2, r1
20001676:	601a      	str	r2, [r3, #0]
20001678:	bd10      	pop	{r4, pc}

2000167a <NVIC_IRQPrioDef>:
2000167a:	b510      	push	{r4, lr}
2000167c:	2400      	movs	r4, #0
2000167e:	4620      	mov	r0, r4
20001680:	2102      	movs	r1, #2
20001682:	3401      	adds	r4, #1
20001684:	f7ff ffe4 	bl	20001650 <NVIC_IRQPrio>
20001688:	2c34      	cmp	r4, #52	@ 0x34
2000168a:	d1f8      	bne.n	2000167e <NVIC_IRQPrioDef+0x4>
2000168c:	f04f 23e0 	mov.w	r3, #3758153728	@ 0xe000e000
20001690:	f8d3 2d1c 	ldr.w	r2, [r3, #3356]	@ 0xd1c
20001694:	f022 4240 	bic.w	r2, r2, #3221225472	@ 0xc0000000
20001698:	f042 4200 	orr.w	r2, r2, #2147483648	@ 0x80000000
2000169c:	f8c3 2d1c 	str.w	r2, [r3, #3356]	@ 0xd1c
200016a0:	f8d3 2d20 	ldr.w	r2, [r3, #3360]	@ 0xd20
200016a4:	f442 0240 	orr.w	r2, r2, #12582912	@ 0xc00000
200016a8:	f8c3 2d20 	str.w	r2, [r3, #3360]	@ 0xd20
200016ac:	f8d3 2d20 	ldr.w	r2, [r3, #3360]	@ 0xd20
200016b0:	f022 4240 	bic.w	r2, r2, #3221225472	@ 0xc0000000
200016b4:	f042 4280 	orr.w	r2, r2, #1073741824	@ 0x40000000
200016b8:	f8c3 2d20 	str.w	r2, [r3, #3360]	@ 0xd20
200016bc:	bd10      	pop	{r4, pc}
	...

200016c0 <PllCalc>:
200016c0:	e92d 4ff7 	stmdb	sp!, {r0, r1, r2, r4, r5, r6, r7, r8, r9, sl, fp, lr}
200016c4:	468b      	mov	fp, r1
200016c6:	2100      	movs	r1, #0
200016c8:	f89d 8030 	ldrb.w	r8, [sp, #48]	@ 0x30
200016cc:	9c0d      	ldr	r4, [sp, #52]	@ 0x34
200016ce:	4588      	cmp	r8, r1
200016d0:	6021      	str	r1, [r4, #0]
200016d2:	bf0c      	ite	eq
200016d4:	f44f 71a0 	moveq.w	r1, #320	@ 0x140
200016d8:	2110      	movne	r1, #16
200016da:	f8df e09c 	ldr.w	lr, [pc, #156]	@ 20001778 <PllCalc+0xb8>
200016de:	9301      	str	r3, [sp, #4]
200016e0:	fb0b f601 	mul.w	r6, fp, r1
200016e4:	4296      	cmp	r6, r2
200016e6:	d326      	bcc.n	20001736 <PllCalc+0x76>
200016e8:	9b01      	ldr	r3, [sp, #4]
200016ea:	429e      	cmp	r6, r3
200016ec:	d823      	bhi.n	20001736 <PllCalc+0x76>
200016ee:	2407      	movs	r4, #7
200016f0:	fa5f f984 	uxtb.w	r9, r4
200016f4:	464d      	mov	r5, r9
200016f6:	fb14 fc04 	smulbb	ip, r4, r4
200016fa:	fbb6 fafc 	udiv	sl, r6, ip
200016fe:	ebaa 0700 	sub.w	r7, sl, r0
20001702:	2f00      	cmp	r7, #0
20001704:	bfb8      	it	lt
20001706:	427f      	neglt	r7, r7
20001708:	4577      	cmp	r7, lr
2000170a:	da0c      	bge.n	20001726 <PllCalc+0x66>
2000170c:	46be      	mov	lr, r7
2000170e:	9b0d      	ldr	r3, [sp, #52]	@ 0x34
20001710:	f8c3 a000 	str.w	sl, [r3]
20001714:	9b0e      	ldr	r3, [sp, #56]	@ 0x38
20001716:	601e      	str	r6, [r3, #0]
20001718:	9b0f      	ldr	r3, [sp, #60]	@ 0x3c
2000171a:	8019      	strh	r1, [r3, #0]
2000171c:	9b10      	ldr	r3, [sp, #64]	@ 0x40
2000171e:	f883 9000 	strb.w	r9, [r3]
20001722:	9b11      	ldr	r3, [sp, #68]	@ 0x44
20001724:	701d      	strb	r5, [r3, #0]
20001726:	3d01      	subs	r5, #1
20001728:	f015 05ff 	ands.w	r5, r5, #255	@ 0xff
2000172c:	ebac 0c04 	sub.w	ip, ip, r4
20001730:	d1e3      	bne.n	200016fa <PllCalc+0x3a>
20001732:	3c01      	subs	r4, #1
20001734:	d1dc      	bne.n	200016f0 <PllCalc+0x30>
20001736:	f1b8 0f00 	cmp.w	r8, #0
2000173a:	d00c      	beq.n	20001756 <PllCalc+0x96>
2000173c:	3101      	adds	r1, #1
2000173e:	b289      	uxth	r1, r1
20001740:	f5b1 7fa0 	cmp.w	r1, #320	@ 0x140
20001744:	d9cc      	bls.n	200016e0 <PllCalc+0x20>
20001746:	9b0d      	ldr	r3, [sp, #52]	@ 0x34
20001748:	681b      	ldr	r3, [r3, #0]
2000174a:	4283      	cmp	r3, r0
2000174c:	d008      	beq.n	20001760 <PllCalc+0xa0>
2000174e:	2000      	movs	r0, #0
20001750:	b003      	add	sp, #12
20001752:	e8bd 8ff0 	ldmia.w	sp!, {r4, r5, r6, r7, r8, r9, sl, fp, pc}
20001756:	3901      	subs	r1, #1
20001758:	b289      	uxth	r1, r1
2000175a:	290f      	cmp	r1, #15
2000175c:	d8c0      	bhi.n	200016e0 <PllCalc+0x20>
2000175e:	e7f2      	b.n	20001746 <PllCalc+0x86>
20001760:	9b10      	ldr	r3, [sp, #64]	@ 0x40
20001762:	9a11      	ldr	r2, [sp, #68]	@ 0x44
20001764:	781b      	ldrb	r3, [r3, #0]
20001766:	7812      	ldrb	r2, [r2, #0]
20001768:	4353      	muls	r3, r2
2000176a:	4358      	muls	r0, r3
2000176c:	9b0e      	ldr	r3, [sp, #56]	@ 0x38
2000176e:	681b      	ldr	r3, [r3, #0]
20001770:	1ac3      	subs	r3, r0, r3
20001772:	4258      	negs	r0, r3
20001774:	4158      	adcs	r0, r3
20001776:	e7eb      	b.n	20001750 <PllCalc+0x90>
20001778:	000186a0 	.word	0x000186a0

2000177c <PllCalcDef>:
2000177c:	b530      	push	{r4, r5, lr}
2000177e:	b087      	sub	sp, #28
20001780:	9d0b      	ldr	r5, [sp, #44]	@ 0x2c
20001782:	4c0b      	ldr	r4, [pc, #44]	@ (200017b0 <PllCalcDef+0x34>)
20001784:	6ae4      	ldr	r4, [r4, #44]	@ 0x2c
20001786:	9505      	str	r5, [sp, #20]
20001788:	9d0a      	ldr	r5, [sp, #40]	@ 0x28
2000178a:	e9cd 1201 	strd	r1, r2, [sp, #4]
2000178e:	e9cd 3503 	strd	r3, r5, [sp, #12]
20001792:	f44f 717a 	mov.w	r1, #1000	@ 0x3e8
20001796:	2300      	movs	r3, #0
20001798:	f504 74fa 	add.w	r4, r4, #500	@ 0x1f4
2000179c:	9300      	str	r3, [sp, #0]
2000179e:	fbb4 f1f1 	udiv	r1, r4, r1
200017a2:	4b04      	ldr	r3, [pc, #16]	@ (200017b4 <PllCalcDef+0x38>)
200017a4:	4a04      	ldr	r2, [pc, #16]	@ (200017b8 <PllCalcDef+0x3c>)
200017a6:	f7ff ff8b 	bl	200016c0 <PllCalc>
200017aa:	b007      	add	sp, #28
200017ac:	bd30      	pop	{r4, r5, pc}
200017ae:	bf00      	nop
200017b0:	2000ab40 	.word	0x2000ab40
200017b4:	00186a00 	.word	0x00186a00
200017b8:	00061a80 	.word	0x00061a80

200017bc <PWM_Reset>:
200017bc:	2301      	movs	r3, #1
200017be:	4a0b      	ldr	r2, [pc, #44]	@ (200017ec <PWM_Reset+0x30>)
200017c0:	4083      	lsls	r3, r0
200017c2:	f8c2 30f8 	str.w	r3, [r2, #248]	@ 0xf8
200017c6:	2214      	movs	r2, #20
200017c8:	4350      	muls	r0, r2
200017ca:	2200      	movs	r2, #0
200017cc:	4908      	ldr	r1, [pc, #32]	@ (200017f0 <PWM_Reset+0x34>)
200017ce:	f100 4080 	add.w	r0, r0, #1073741824	@ 0x40000000
200017d2:	f500 2028 	add.w	r0, r0, #688128	@ 0xa8000
200017d6:	6002      	str	r2, [r0, #0]
200017d8:	f8c1 30f4 	str.w	r3, [r1, #244]	@ 0xf4
200017dc:	2310      	movs	r3, #16
200017de:	6043      	str	r3, [r0, #4]
200017e0:	f64f 73ff 	movw	r3, #65535	@ 0xffff
200017e4:	6082      	str	r2, [r0, #8]
200017e6:	60c2      	str	r2, [r0, #12]
200017e8:	6103      	str	r3, [r0, #16]
200017ea:	4770      	bx	lr
200017ec:	400ab000 	.word	0x400ab000
200017f0:	400a8000 	.word	0x400a8000

200017f4 <PWM_Clock>:
200017f4:	4b0b      	ldr	r3, [pc, #44]	@ (20001824 <PWM_Clock+0x30>)
200017f6:	695a      	ldr	r2, [r3, #20]
200017f8:	4291      	cmp	r1, r2
200017fa:	bf28      	it	cs
200017fc:	4611      	movcs	r1, r2
200017fe:	088b      	lsrs	r3, r1, #2
20001800:	eb03 03c2 	add.w	r3, r3, r2, lsl #3
20001804:	0849      	lsrs	r1, r1, #1
20001806:	fbb3 f3f1 	udiv	r3, r3, r1
2000180a:	2b10      	cmp	r3, #16
2000180c:	f640 72ff 	movw	r2, #4095	@ 0xfff
20001810:	bf38      	it	cc
20001812:	2310      	movcc	r3, #16
20001814:	4293      	cmp	r3, r2
20001816:	bf28      	it	cs
20001818:	4613      	movcs	r3, r2
2000181a:	2214      	movs	r2, #20
2000181c:	4350      	muls	r0, r2
2000181e:	4a02      	ldr	r2, [pc, #8]	@ (20001828 <PWM_Clock+0x34>)
20001820:	5083      	str	r3, [r0, r2]
20001822:	4770      	bx	lr
20001824:	2000ab40 	.word	0x2000ab40
20001828:	400a8004 	.word	0x400a8004

2000182c <ResetPeripheryOffWaitMask>:
2000182c:	4b03      	ldr	r3, [pc, #12]	@ (2000183c <ResetPeripheryOffWaitMask+0x10>)
2000182e:	4a04      	ldr	r2, [pc, #16]	@ (20001840 <ResetPeripheryOffWaitMask+0x14>)
20001830:	6018      	str	r0, [r3, #0]
20001832:	6893      	ldr	r3, [r2, #8]
20001834:	ea30 0303 	bics.w	r3, r0, r3
20001838:	d1fb      	bne.n	20001832 <ResetPeripheryOffWaitMask+0x6>
2000183a:	4770      	bx	lr
2000183c:	40023000 	.word	0x40023000
20001840:	40020000 	.word	0x40020000

20001844 <ResetPeripheryMask>:
20001844:	4a01      	ldr	r2, [pc, #4]	@ (2000184c <ResetPeripheryMask+0x8>)
20001846:	6010      	str	r0, [r2, #0]
20001848:	f7ff bff0 	b.w	2000182c <ResetPeripheryOffWaitMask>
2000184c:	40022000 	.word	0x40022000

20001850 <ADC_Term>:
20001850:	2001      	movs	r0, #1
20001852:	f7ff bff7 	b.w	20001844 <ResetPeripheryMask>
	...

20001858 <ADC_Init>:
20001858:	b508      	push	{r3, lr}
2000185a:	f7ff fff9 	bl	20001850 <ADC_Term>
2000185e:	2300      	movs	r3, #0
20001860:	4a06      	ldr	r2, [pc, #24]	@ (2000187c <ADC_Init+0x24>)
20001862:	6013      	str	r3, [r2, #0]
20001864:	4a06      	ldr	r2, [pc, #24]	@ (20001880 <ADC_Init+0x28>)
20001866:	6013      	str	r3, [r2, #0]
20001868:	4a06      	ldr	r2, [pc, #24]	@ (20001884 <ADC_Init+0x2c>)
2000186a:	6013      	str	r3, [r2, #0]
2000186c:	2201      	movs	r2, #1
2000186e:	4b06      	ldr	r3, [pc, #24]	@ (20001888 <ADC_Init+0x30>)
20001870:	601a      	str	r2, [r3, #0]
20001872:	681a      	ldr	r2, [r3, #0]
20001874:	05d2      	lsls	r2, r2, #23
20001876:	d5fc      	bpl.n	20001872 <ADC_Init+0x1a>
20001878:	bd08      	pop	{r3, pc}
2000187a:	bf00      	nop
2000187c:	2000aaf0 	.word	0x2000aaf0
20001880:	2000aaec 	.word	0x2000aaec
20001884:	2000aae8 	.word	0x2000aae8
20001888:	400a0000 	.word	0x400a0000

2000188c <PllSetup>:
2000188c:	e92d 41f0 	stmdb	sp!, {r4, r5, r6, r7, r8, lr}
20001890:	9f06      	ldr	r7, [sp, #24]
20001892:	461d      	mov	r5, r3
20001894:	42bb      	cmp	r3, r7
20001896:	bfa2      	ittt	ge
20001898:	463b      	movge	r3, r7
2000189a:	462f      	movge	r7, r5
2000189c:	461d      	movge	r5, r3
2000189e:	4b16      	ldr	r3, [pc, #88]	@ (200018f8 <PllSetup+0x6c>)
200018a0:	4690      	mov	r8, r2
200018a2:	6ade      	ldr	r6, [r3, #44]	@ 0x2c
200018a4:	4604      	mov	r4, r0
200018a6:	fbb6 f6f1 	udiv	r6, r6, r1
200018aa:	4356      	muls	r6, r2
200018ac:	fb05 f207 	mul.w	r2, r5, r7
200018b0:	fbb6 f6f2 	udiv	r6, r6, r2
200018b4:	f100 020c 	add.w	r2, r0, #12
200018b8:	f843 6022 	str.w	r6, [r3, r2, lsl #2]
200018bc:	f100 030e 	add.w	r3, r0, #14
200018c0:	2001      	movs	r0, #1
200018c2:	4098      	lsls	r0, r3
200018c4:	f7ff ffbe 	bl	20001844 <ResetPeripheryMask>
200018c8:	2221      	movs	r2, #33	@ 0x21
200018ca:	f504 4000 	add.w	r0, r4, #32768	@ 0x8000
200018ce:	300a      	adds	r0, #10
200018d0:	03c0      	lsls	r0, r0, #15
200018d2:	1d03      	adds	r3, r0, #4
200018d4:	f443 5340 	orr.w	r3, r3, #12288	@ 0x3000
200018d8:	6001      	str	r1, [r0, #0]
200018da:	f8c0 8008 	str.w	r8, [r0, #8]
200018de:	601a      	str	r2, [r3, #0]
200018e0:	6802      	ldr	r2, [r0, #0]
200018e2:	2a00      	cmp	r2, #0
200018e4:	dafc      	bge.n	200018e0 <PllSetup+0x54>
200018e6:	2208      	movs	r2, #8
200018e8:	032d      	lsls	r5, r5, #12
200018ea:	ea45 4507 	orr.w	r5, r5, r7, lsl #16
200018ee:	60c5      	str	r5, [r0, #12]
200018f0:	4630      	mov	r0, r6
200018f2:	601a      	str	r2, [r3, #0]
200018f4:	e8bd 81f0 	ldmia.w	sp!, {r4, r5, r6, r7, r8, pc}
200018f8:	2000ab40 	.word	0x2000ab40

200018fc <PllSetFreq>:
200018fc:	b510      	push	{r4, lr}
200018fe:	b086      	sub	sp, #24
20001900:	f10d 030d 	add.w	r3, sp, #13
20001904:	9301      	str	r3, [sp, #4]
20001906:	ab03      	add	r3, sp, #12
20001908:	9300      	str	r3, [sp, #0]
2000190a:	4604      	mov	r4, r0
2000190c:	f10d 030e 	add.w	r3, sp, #14
20001910:	4608      	mov	r0, r1
20001912:	aa05      	add	r2, sp, #20
20001914:	a904      	add	r1, sp, #16
20001916:	f7ff ff31 	bl	2000177c <PllCalcDef>
2000191a:	9804      	ldr	r0, [sp, #16]
2000191c:	b170      	cbz	r0, 2000193c <PllSetFreq+0x40>
2000191e:	f89d 300d 	ldrb.w	r3, [sp, #13]
20001922:	2101      	movs	r1, #1
20001924:	9300      	str	r3, [sp, #0]
20001926:	4620      	mov	r0, r4
20001928:	f89d 300c 	ldrb.w	r3, [sp, #12]
2000192c:	f8bd 200e 	ldrh.w	r2, [sp, #14]
20001930:	f7ff ffac 	bl	2000188c <PllSetup>
20001934:	f44f 737a 	mov.w	r3, #1000	@ 0x3e8
20001938:	fbb0 f0f3 	udiv	r0, r0, r3
2000193c:	b006      	add	sp, #24
2000193e:	bd10      	pop	{r4, pc}

20001940 <RoscGetDiv>:
20001940:	4b03      	ldr	r3, [pc, #12]	@ (20001950 <RoscGetDiv+0x10>)
20001942:	6958      	ldr	r0, [r3, #20]
20001944:	f010 007f 	ands.w	r0, r0, #127	@ 0x7f
20001948:	bf08      	it	eq
2000194a:	2080      	moveq	r0, #128	@ 0x80
2000194c:	4770      	bx	lr
2000194e:	bf00      	nop
20001950:	400e8000 	.word	0x400e8000

20001954 <RoscInit>:
20001954:	4b10      	ldr	r3, [pc, #64]	@ (20001998 <RoscInit+0x44>)
20001956:	4811      	ldr	r0, [pc, #68]	@ (2000199c <RoscInit+0x48>)
20001958:	681a      	ldr	r2, [r3, #0]
2000195a:	4911      	ldr	r1, [pc, #68]	@ (200019a0 <RoscInit+0x4c>)
2000195c:	f482 627a 	eor.w	r2, r2, #4000	@ 0xfa0
20001960:	f082 0204 	eor.w	r2, r2, #4
20001964:	f3c2 020b 	ubfx	r2, r2, #0, #12
20001968:	6002      	str	r2, [r0, #0]
2000196a:	4a0e      	ldr	r2, [pc, #56]	@ (200019a4 <RoscInit+0x50>)
2000196c:	605a      	str	r2, [r3, #4]
2000196e:	3a88      	subs	r2, #136	@ 0x88
20001970:	609a      	str	r2, [r3, #8]
20001972:	f64a 2208 	movw	r2, #43528	@ 0xaa08
20001976:	615a      	str	r2, [r3, #20]
20001978:	4a0b      	ldr	r2, [pc, #44]	@ (200019a8 <RoscInit+0x54>)
2000197a:	60da      	str	r2, [r3, #12]
2000197c:	681a      	ldr	r2, [r3, #0]
2000197e:	f482 027a 	eor.w	r2, r2, #16384000	@ 0xfa0000
20001982:	f482 4230 	eor.w	r2, r2, #45056	@ 0xb000
20001986:	4011      	ands	r1, r2
20001988:	6001      	str	r1, [r0, #0]
2000198a:	4a08      	ldr	r2, [pc, #32]	@ (200019ac <RoscInit+0x58>)
2000198c:	4908      	ldr	r1, [pc, #32]	@ (200019b0 <RoscInit+0x5c>)
2000198e:	6291      	str	r1, [r2, #40]	@ 0x28
20001990:	69da      	ldr	r2, [r3, #28]
20001992:	2a00      	cmp	r2, #0
20001994:	dafc      	bge.n	20001990 <RoscInit+0x3c>
20001996:	4770      	bx	lr
20001998:	400e8000 	.word	0x400e8000
2000199c:	400e9000 	.word	0x400e9000
200019a0:	00fff000 	.word	0x00fff000
200019a4:	96960088 	.word	0x96960088
200019a8:	3f04b16d 	.word	0x3f04b16d
200019ac:	2000ab40 	.word	0x2000ab40
200019b0:	00a7d8c0 	.word	0x00a7d8c0

200019b4 <RoscRand>:
200019b4:	4b16      	ldr	r3, [pc, #88]	@ (20001a10 <RoscRand+0x5c>)
200019b6:	b570      	push	{r4, r5, r6, lr}
200019b8:	6a99      	ldr	r1, [r3, #40]	@ 0x28
200019ba:	695a      	ldr	r2, [r3, #20]
200019bc:	f7ff ffc0 	bl	20001940 <RoscGetDiv>
200019c0:	4348      	muls	r0, r1
200019c2:	fbb2 f2f0 	udiv	r2, r2, r0
200019c6:	2032      	movs	r0, #50	@ 0x32
200019c8:	4912      	ldr	r1, [pc, #72]	@ (20001a14 <RoscRand+0x60>)
200019ca:	4e13      	ldr	r6, [pc, #76]	@ (20001a18 <RoscRand+0x64>)
200019cc:	1c55      	adds	r5, r2, #1
200019ce:	e9d1 3400 	ldrd	r3, r4, [r1]
200019d2:	6a32      	ldr	r2, [r6, #32]
200019d4:	f002 0201 	and.w	r2, r2, #1
200019d8:	405a      	eors	r2, r3
200019da:	f002 030f 	and.w	r3, r2, #15
200019de:	3303      	adds	r3, #3
200019e0:	436b      	muls	r3, r5
200019e2:	3b03      	subs	r3, #3
200019e4:	d2fd      	bcs.n	200019e2 <RoscRand+0x2e>
200019e6:	0853      	lsrs	r3, r2, #1
200019e8:	ea43 73c4 	orr.w	r3, r3, r4, lsl #31
200019ec:	3801      	subs	r0, #1
200019ee:	ea4f 0454 	mov.w	r4, r4, lsr #1
200019f2:	ea44 74c2 	orr.w	r4, r4, r2, lsl #31
200019f6:	d1ec      	bne.n	200019d2 <RoscRand+0x1e>
200019f8:	4a08      	ldr	r2, [pc, #32]	@ (20001a1c <RoscRand+0x68>)
200019fa:	fba3 3002 	umull	r3, r0, r3, r2
200019fe:	fb02 0004 	mla	r0, r2, r4, r0
20001a02:	4a07      	ldr	r2, [pc, #28]	@ (20001a20 <RoscRand+0x6c>)
20001a04:	189b      	adds	r3, r3, r2
20001a06:	f140 0000 	adc.w	r0, r0, #0
20001a0a:	e9c1 3000 	strd	r3, r0, [r1]
20001a0e:	bd70      	pop	{r4, r5, r6, pc}
20001a10:	2000ab40 	.word	0x2000ab40
20001a14:	2000aa90 	.word	0x2000aa90
20001a18:	400e8000 	.word	0x400e8000
20001a1c:	000343fd 	.word	0x000343fd
20001a20:	00269ec3 	.word	0x00269ec3

20001a24 <SPI_Reset_hw>:
20001a24:	4b04      	ldr	r3, [pc, #16]	@ (20001a38 <SPI_Reset_hw+0x14>)
20001a26:	4298      	cmp	r0, r3
20001a28:	bf14      	ite	ne
20001a2a:	2013      	movne	r0, #19
20001a2c:	2012      	moveq	r0, #18
20001a2e:	2301      	movs	r3, #1
20001a30:	fa03 f000 	lsl.w	r0, r3, r0
20001a34:	f7ff bf06 	b.w	20001844 <ResetPeripheryMask>
20001a38:	40080000 	.word	0x40080000

20001a3c <SPI_Term_hw>:
20001a3c:	2102      	movs	r1, #2
20001a3e:	4603      	mov	r3, r0
20001a40:	1d02      	adds	r2, r0, #4
20001a42:	f442 5240 	orr.w	r2, r2, #12288	@ 0x3000
20001a46:	6011      	str	r1, [r2, #0]
20001a48:	2201      	movs	r2, #1
20001a4a:	3324      	adds	r3, #36	@ 0x24
20001a4c:	f443 5340 	orr.w	r3, r3, #12288	@ 0x3000
20001a50:	6019      	str	r1, [r3, #0]
20001a52:	601a      	str	r2, [r3, #0]
20001a54:	f7ff bfe6 	b.w	20001a24 <SPI_Reset_hw>

20001a58 <SPI_Baudrate_hw>:
20001a58:	e92d 47f0 	stmdb	sp!, {r4, r5, r6, r7, r8, r9, sl, lr}
20001a5c:	4606      	mov	r6, r0
20001a5e:	f856 3f04 	ldr.w	r3, [r6, #4]!
20001a62:	f04f 0900 	mov.w	r9, #0
20001a66:	f003 0c02 	and.w	ip, r3, #2
20001a6a:	2302      	movs	r3, #2
20001a6c:	f446 5240 	orr.w	r2, r6, #12288	@ 0x3000
20001a70:	6013      	str	r3, [r2, #0]
20001a72:	4a27      	ldr	r2, [pc, #156]	@ (20001b10 <SPI_Baudrate_hw+0xb8>)
20001a74:	6992      	ldr	r2, [r2, #24]
20001a76:	1c54      	adds	r4, r2, #1
20001a78:	0864      	lsrs	r4, r4, #1
20001a7a:	42a1      	cmp	r1, r4
20001a7c:	bf28      	it	cs
20001a7e:	4621      	movcs	r1, r4
20001a80:	ea4f 58d1 	mov.w	r8, r1, lsr #23
20001a84:	ea4f 2e41 	mov.w	lr, r1, lsl #9
20001a88:	0d8f      	lsrs	r7, r1, #22
20001a8a:	028d      	lsls	r5, r1, #10
20001a8c:	42aa      	cmp	r2, r5
20001a8e:	eb79 0a07 	sbcs.w	sl, r9, r7
20001a92:	461c      	mov	r4, r3
20001a94:	f103 0302 	add.w	r3, r3, #2
20001a98:	d306      	bcc.n	20001aa8 <SPI_Baudrate_hw+0x50>
20001a9a:	eb15 050e 	adds.w	r5, r5, lr
20001a9e:	eb47 0708 	adc.w	r7, r7, r8
20001aa2:	2bfe      	cmp	r3, #254	@ 0xfe
20001aa4:	d1f2      	bne.n	20001a8c <SPI_Baudrate_hw+0x34>
20001aa6:	461c      	mov	r4, r3
20001aa8:	f44f 7380 	mov.w	r3, #256	@ 0x100
20001aac:	ebc4 2504 	rsb	r5, r4, r4, lsl #8
20001ab0:	fbb2 fef5 	udiv	lr, r2, r5
20001ab4:	458e      	cmp	lr, r1
20001ab6:	461f      	mov	r7, r3
20001ab8:	f103 33ff 	add.w	r3, r3, #4294967295
20001abc:	d914      	bls.n	20001ae8 <SPI_Baudrate_hw+0x90>
20001abe:	1e7b      	subs	r3, r7, #1
20001ac0:	fb03 f504 	mul.w	r5, r3, r4
20001ac4:	fb07 fe04 	mul.w	lr, r7, r4
20001ac8:	fbb2 f5f5 	udiv	r5, r2, r5
20001acc:	fbb2 f2fe 	udiv	r2, r2, lr
20001ad0:	1a6d      	subs	r5, r5, r1
20001ad2:	1a52      	subs	r2, r2, r1
20001ad4:	2d00      	cmp	r5, #0
20001ad6:	bfb8      	it	lt
20001ad8:	426d      	neglt	r5, r5
20001ada:	2a00      	cmp	r2, #0
20001adc:	bfb8      	it	lt
20001ade:	4252      	neglt	r2, r2
20001ae0:	4295      	cmp	r5, r2
20001ae2:	bfa8      	it	ge
20001ae4:	463b      	movge	r3, r7
20001ae6:	e003      	b.n	20001af0 <SPI_Baudrate_hw+0x98>
20001ae8:	2b01      	cmp	r3, #1
20001aea:	eba5 0504 	sub.w	r5, r5, r4
20001aee:	d1df      	bne.n	20001ab0 <SPI_Baudrate_hw+0x58>
20001af0:	6104      	str	r4, [r0, #16]
20001af2:	6802      	ldr	r2, [r0, #0]
20001af4:	3b01      	subs	r3, #1
20001af6:	ea82 2303 	eor.w	r3, r2, r3, lsl #8
20001afa:	f440 5080 	orr.w	r0, r0, #4096	@ 0x1000
20001afe:	f403 437f 	and.w	r3, r3, #65280	@ 0xff00
20001b02:	f446 5600 	orr.w	r6, r6, #8192	@ 0x2000
20001b06:	6003      	str	r3, [r0, #0]
20001b08:	f8c6 c000 	str.w	ip, [r6]
20001b0c:	e8bd 87f0 	ldmia.w	sp!, {r4, r5, r6, r7, r8, r9, sl, pc}
20001b10:	2000ab40 	.word	0x2000ab40

20001b14 <SPI_Init_hw>:
20001b14:	b510      	push	{r4, lr}
20001b16:	4604      	mov	r4, r0
20001b18:	f7ff ff84 	bl	20001a24 <SPI_Reset_hw>
20001b1c:	4620      	mov	r0, r4
20001b1e:	f7ff ff9b 	bl	20001a58 <SPI_Baudrate_hw>
20001b22:	6823      	ldr	r3, [r4, #0]
20001b24:	f444 5280 	orr.w	r2, r4, #4096	@ 0x1000
20001b28:	f083 0307 	eor.w	r3, r3, #7
20001b2c:	f003 030f 	and.w	r3, r3, #15
20001b30:	6013      	str	r3, [r2, #0]
20001b32:	6823      	ldr	r3, [r4, #0]
20001b34:	f003 0340 	and.w	r3, r3, #64	@ 0x40
20001b38:	6013      	str	r3, [r2, #0]
20001b3a:	4623      	mov	r3, r4
20001b3c:	f853 1b24 	ldr.w	r1, [r3], #36
20001b40:	3404      	adds	r4, #4
20001b42:	f001 0180 	and.w	r1, r1, #128	@ 0x80
20001b46:	6011      	str	r1, [r2, #0]
20001b48:	2202      	movs	r2, #2
20001b4a:	2101      	movs	r1, #1
20001b4c:	f443 5300 	orr.w	r3, r3, #8192	@ 0x2000
20001b50:	f444 5400 	orr.w	r4, r4, #8192	@ 0x2000
20001b54:	601a      	str	r2, [r3, #0]
20001b56:	6019      	str	r1, [r3, #0]
20001b58:	6022      	str	r2, [r4, #0]
20001b5a:	bd10      	pop	{r4, pc}

20001b5c <SPI_Send8_hw>:
20001b5c:	440a      	add	r2, r1
20001b5e:	1a53      	subs	r3, r2, r1
20001b60:	2b00      	cmp	r3, #0
20001b62:	dc08      	bgt.n	20001b76 <SPI_Send8_hw+0x1a>
20001b64:	68c3      	ldr	r3, [r0, #12]
20001b66:	06da      	lsls	r2, r3, #27
20001b68:	d411      	bmi.n	20001b8e <SPI_Send8_hw+0x32>
20001b6a:	68c3      	ldr	r3, [r0, #12]
20001b6c:	075b      	lsls	r3, r3, #29
20001b6e:	d412      	bmi.n	20001b96 <SPI_Send8_hw+0x3a>
20001b70:	2301      	movs	r3, #1
20001b72:	6203      	str	r3, [r0, #32]
20001b74:	4770      	bx	lr
20001b76:	68c3      	ldr	r3, [r0, #12]
20001b78:	079b      	lsls	r3, r3, #30
20001b7a:	d5fc      	bpl.n	20001b76 <SPI_Send8_hw+0x1a>
20001b7c:	f811 3b01 	ldrb.w	r3, [r1], #1
20001b80:	6083      	str	r3, [r0, #8]
20001b82:	68c3      	ldr	r3, [r0, #12]
20001b84:	075b      	lsls	r3, r3, #29
20001b86:	d5ea      	bpl.n	20001b5e <SPI_Send8_hw+0x2>
20001b88:	6883      	ldr	r3, [r0, #8]
20001b8a:	e7fa      	b.n	20001b82 <SPI_Send8_hw+0x26>
20001b8c:	6883      	ldr	r3, [r0, #8]
20001b8e:	68c3      	ldr	r3, [r0, #12]
20001b90:	0759      	lsls	r1, r3, #29
20001b92:	d4fb      	bmi.n	20001b8c <SPI_Send8_hw+0x30>
20001b94:	e7e6      	b.n	20001b64 <SPI_Send8_hw+0x8>
20001b96:	6883      	ldr	r3, [r0, #8]
20001b98:	e7e7      	b.n	20001b6a <SPI_Send8_hw+0xe>
	...

20001b9c <SPI_Send8DMA_hw>:
20001b9c:	e92d 41f0 	stmdb	sp!, {r4, r5, r6, r7, r8, lr}
20001ba0:	018c      	lsls	r4, r1, #6
20001ba2:	f104 44a0 	add.w	r4, r4, #1342177280	@ 0x50000000
20001ba6:	4606      	mov	r6, r0
20001ba8:	4608      	mov	r0, r1
20001baa:	461f      	mov	r7, r3
20001bac:	460d      	mov	r5, r1
20001bae:	4690      	mov	r8, r2
20001bb0:	f7ff fa70 	bl	20001094 <DMA_Abort>
20001bb4:	6923      	ldr	r3, [r4, #16]
20001bb6:	6123      	str	r3, [r4, #16]
20001bb8:	f106 0308 	add.w	r3, r6, #8
20001bbc:	f8c4 8000 	str.w	r8, [r4]
20001bc0:	6063      	str	r3, [r4, #4]
20001bc2:	60a7      	str	r7, [r4, #8]
20001bc4:	4b11      	ldr	r3, [pc, #68]	@ (20001c0c <SPI_Send8DMA_hw+0x70>)
20001bc6:	036d      	lsls	r5, r5, #13
20001bc8:	429e      	cmp	r6, r3
20001bca:	bf14      	ite	ne
20001bcc:	231a      	movne	r3, #26
20001bce:	2318      	moveq	r3, #24
20001bd0:	ea45 4543 	orr.w	r5, r5, r3, lsl #17
20001bd4:	f045 0511 	orr.w	r5, r5, #17
20001bd8:	60e5      	str	r5, [r4, #12]
20001bda:	6923      	ldr	r3, [r4, #16]
20001bdc:	0158      	lsls	r0, r3, #5
20001bde:	d4fc      	bmi.n	20001bda <SPI_Send8DMA_hw+0x3e>
20001be0:	2301      	movs	r3, #1
20001be2:	3410      	adds	r4, #16
20001be4:	f444 5440 	orr.w	r4, r4, #12288	@ 0x3000
20001be8:	6023      	str	r3, [r4, #0]
20001bea:	68f3      	ldr	r3, [r6, #12]
20001bec:	06da      	lsls	r2, r3, #27
20001bee:	d407      	bmi.n	20001c00 <SPI_Send8DMA_hw+0x64>
20001bf0:	68f3      	ldr	r3, [r6, #12]
20001bf2:	075b      	lsls	r3, r3, #29
20001bf4:	d408      	bmi.n	20001c08 <SPI_Send8DMA_hw+0x6c>
20001bf6:	2301      	movs	r3, #1
20001bf8:	6233      	str	r3, [r6, #32]
20001bfa:	e8bd 81f0 	ldmia.w	sp!, {r4, r5, r6, r7, r8, pc}
20001bfe:	68b3      	ldr	r3, [r6, #8]
20001c00:	68f3      	ldr	r3, [r6, #12]
20001c02:	0759      	lsls	r1, r3, #29
20001c04:	d4fb      	bmi.n	20001bfe <SPI_Send8DMA_hw+0x62>
20001c06:	e7f0      	b.n	20001bea <SPI_Send8DMA_hw+0x4e>
20001c08:	68b3      	ldr	r3, [r6, #8]
20001c0a:	e7f1      	b.n	20001bf0 <SPI_Send8DMA_hw+0x54>
20001c0c:	40080000 	.word	0x40080000

20001c10 <SpinResetAll>:
20001c10:	2200      	movs	r2, #0
20001c12:	4b06      	ldr	r3, [pc, #24]	@ (20001c2c <SpinResetAll+0x1c>)
20001c14:	601a      	str	r2, [r3, #0]
20001c16:	f3bf 8f5f 	dmb	sy
20001c1a:	4b05      	ldr	r3, [pc, #20]	@ (20001c30 <SpinResetAll+0x20>)
20001c1c:	4905      	ldr	r1, [pc, #20]	@ (20001c34 <SpinResetAll+0x24>)
20001c1e:	f3bf 8f5f 	dmb	sy
20001c22:	f843 2b04 	str.w	r2, [r3], #4
20001c26:	428b      	cmp	r3, r1
20001c28:	d1f9      	bne.n	20001c1e <SpinResetAll+0xe>
20001c2a:	4770      	bx	lr
20001c2c:	2003185c 	.word	0x2003185c
20001c30:	d0000100 	.word	0xd0000100
20001c34:	d0000180 	.word	0xd0000180

20001c38 <SysTickInit>:
20001c38:	f04f 4350 	mov.w	r3, #3489660928	@ 0xd0000000
20001c3c:	681b      	ldr	r3, [r3, #0]
20001c3e:	b953      	cbnz	r3, 20001c56 <SysTickInit+0x1e>
20001c40:	4a12      	ldr	r2, [pc, #72]	@ (20001c8c <SysTickInit+0x54>)
20001c42:	6013      	str	r3, [r2, #0]
20001c44:	4a12      	ldr	r2, [pc, #72]	@ (20001c90 <SysTickInit+0x58>)
20001c46:	6013      	str	r3, [r2, #0]
20001c48:	4a12      	ldr	r2, [pc, #72]	@ (20001c94 <SysTickInit+0x5c>)
20001c4a:	8013      	strh	r3, [r2, #0]
20001c4c:	4b12      	ldr	r3, [pc, #72]	@ (20001c98 <SysTickInit+0x60>)
20001c4e:	4a13      	ldr	r2, [pc, #76]	@ (20001c9c <SysTickInit+0x64>)
20001c50:	6a9b      	ldr	r3, [r3, #40]	@ 0x28
20001c52:	b29b      	uxth	r3, r3
20001c54:	8013      	strh	r3, [r2, #0]
20001c56:	f04f 23e0 	mov.w	r3, #3758153728	@ 0xe000e000
20001c5a:	2202      	movs	r2, #2
20001c5c:	611a      	str	r2, [r3, #16]
20001c5e:	4910      	ldr	r1, [pc, #64]	@ (20001ca0 <SysTickInit+0x68>)
20001c60:	f8d3 2d08 	ldr.w	r2, [r3, #3336]	@ 0xd08
20001c64:	63d1      	str	r1, [r2, #60]	@ 0x3c
20001c66:	f3bf 8f5f 	dmb	sy
20001c6a:	f241 3287 	movw	r2, #4999	@ 0x1387
20001c6e:	615a      	str	r2, [r3, #20]
20001c70:	f8d3 2d20 	ldr.w	r2, [r3, #3360]	@ 0xd20
20001c74:	f022 4240 	bic.w	r2, r2, #3221225472	@ 0xc0000000
20001c78:	f042 4280 	orr.w	r2, r2, #1073741824	@ 0x40000000
20001c7c:	f8c3 2d20 	str.w	r2, [r3, #3360]	@ 0xd20
20001c80:	2200      	movs	r2, #0
20001c82:	619a      	str	r2, [r3, #24]
20001c84:	2203      	movs	r2, #3
20001c86:	611a      	str	r2, [r3, #16]
20001c88:	4770      	bx	lr
20001c8a:	bf00      	nop
20001c8c:	20031860 	.word	0x20031860
20001c90:	20031864 	.word	0x20031864
20001c94:	20032276 	.word	0x20032276
20001c98:	400b0000 	.word	0x400b0000
20001c9c:	2003229a 	.word	0x2003229a
20001ca0:	2000201d 	.word	0x2000201d

20001ca4 <TickStart>:
20001ca4:	230c      	movs	r3, #12
20001ca6:	4358      	muls	r0, r3
20001ca8:	2300      	movs	r3, #0
20001caa:	f100 4080 	add.w	r0, r0, #1073741824	@ 0x40000000
20001cae:	f500 1084 	add.w	r0, r0, #1081344	@ 0x108000
20001cb2:	6003      	str	r3, [r0, #0]
20001cb4:	2301      	movs	r3, #1
20001cb6:	6041      	str	r1, [r0, #4]
20001cb8:	6003      	str	r3, [r0, #0]
20001cba:	4770      	bx	lr

20001cbc <TickStartAll>:
20001cbc:	4601      	mov	r1, r0
20001cbe:	2200      	movs	r2, #0
20001cc0:	b508      	push	{r3, lr}
20001cc2:	4610      	mov	r0, r2
20001cc4:	3201      	adds	r2, #1
20001cc6:	f7ff ffed 	bl	20001ca4 <TickStart>
20001cca:	2a06      	cmp	r2, #6
20001ccc:	d1f9      	bne.n	20001cc2 <TickStartAll+0x6>
20001cce:	bd08      	pop	{r3, pc}

20001cd0 <WaitUs>:
20001cd0:	4a03      	ldr	r2, [pc, #12]	@ (20001ce0 <WaitUs+0x10>)
20001cd2:	6a91      	ldr	r1, [r2, #40]	@ 0x28
20001cd4:	6a93      	ldr	r3, [r2, #40]	@ 0x28
20001cd6:	1a5b      	subs	r3, r3, r1
20001cd8:	4283      	cmp	r3, r0
20001cda:	d3fb      	bcc.n	20001cd4 <WaitUs+0x4>
20001cdc:	4770      	bx	lr
20001cde:	bf00      	nop
20001ce0:	400b0000 	.word	0x400b0000

20001ce4 <WaitMs>:
20001ce4:	f44f 737a 	mov.w	r3, #1000	@ 0x3e8
20001ce8:	4358      	muls	r0, r3
20001cea:	f7ff bff1 	b.w	20001cd0 <WaitUs>
	...

20001cf0 <WatchdogSetup>:
20001cf0:	f04f 4380 	mov.w	r3, #1073741824	@ 0x40000000
20001cf4:	4a10      	ldr	r2, [pc, #64]	@ (20001d38 <WatchdogSetup+0x48>)
20001cf6:	b510      	push	{r4, lr}
20001cf8:	4c10      	ldr	r4, [pc, #64]	@ (20001d3c <WatchdogSetup+0x4c>)
20001cfa:	6013      	str	r3, [r2, #0]
20001cfc:	f503 33d0 	add.w	r3, r3, #106496	@ 0x1a000
20001d00:	609c      	str	r4, [r3, #8]
20001d02:	f04f 64e0 	mov.w	r4, #117440512	@ 0x7000000
20001d06:	f503 2340 	add.w	r3, r3, #786432	@ 0xc0000
20001d0a:	b129      	cbz	r1, 20001d18 <WatchdogSetup+0x28>
20001d0c:	601c      	str	r4, [r3, #0]
20001d0e:	b928      	cbnz	r0, 20001d1c <WatchdogSetup+0x2c>
20001d10:	f04f 4200 	mov.w	r2, #2147483648	@ 0x80000000
20001d14:	601a      	str	r2, [r3, #0]
20001d16:	bd10      	pop	{r4, pc}
20001d18:	6014      	str	r4, [r2, #0]
20001d1a:	e7f8      	b.n	20001d0e <WatchdogSetup+0x1e>
20001d1c:	f06f 437f 	mvn.w	r3, #4278190080	@ 0xff000000
20001d20:	4283      	cmp	r3, r0
20001d22:	bf28      	it	cs
20001d24:	4603      	movcs	r3, r0
20001d26:	4a06      	ldr	r2, [pc, #24]	@ (20001d40 <WatchdogSetup+0x50>)
20001d28:	6013      	str	r3, [r2, #0]
20001d2a:	4a06      	ldr	r2, [pc, #24]	@ (20001d44 <WatchdogSetup+0x54>)
20001d2c:	6053      	str	r3, [r2, #4]
20001d2e:	f04f 4280 	mov.w	r2, #1073741824	@ 0x40000000
20001d32:	4b05      	ldr	r3, [pc, #20]	@ (20001d48 <WatchdogSetup+0x58>)
20001d34:	e7ee      	b.n	20001d14 <WatchdogSetup+0x24>
20001d36:	bf00      	nop
20001d38:	400db000 	.word	0x400db000
20001d3c:	01fffff3 	.word	0x01fffff3
20001d40:	20032270 	.word	0x20032270
20001d44:	400d8000 	.word	0x400d8000
20001d48:	400da000 	.word	0x400da000

20001d4c <ResetToBootLoader>:
20001d4c:	b508      	push	{r3, lr}
20001d4e:	f7fe ff35 	bl	20000bbc <KeyWaitNoPressed>
20001d52:	f7fe ff88 	bl	20000c66 <DeviceTerm>
20001d56:	2100      	movs	r1, #0
20001d58:	4b03      	ldr	r3, [pc, #12]	@ (20001d68 <ResetToBootLoader+0x1c>)
20001d5a:	4a04      	ldr	r2, [pc, #16]	@ (20001d6c <ResetToBootLoader+0x20>)
20001d5c:	4608      	mov	r0, r1
20001d5e:	61da      	str	r2, [r3, #28]
20001d60:	e8bd 4008 	ldmia.w	sp!, {r3, lr}
20001d64:	f7ff bfc4 	b.w	20001cf0 <WatchdogSetup>
20001d68:	400d8000 	.word	0x400d8000
20001d6c:	64616f4c 	.word	0x64616f4c

20001d70 <XoscEnable>:
20001d70:	4a03      	ldr	r2, [pc, #12]	@ (20001d80 <XoscEnable+0x10>)
20001d72:	4b04      	ldr	r3, [pc, #16]	@ (20001d84 <XoscEnable+0x14>)
20001d74:	601a      	str	r2, [r3, #0]
20001d76:	4a04      	ldr	r2, [pc, #16]	@ (20001d88 <XoscEnable+0x18>)
20001d78:	6853      	ldr	r3, [r2, #4]
20001d7a:	2b00      	cmp	r3, #0
20001d7c:	dafc      	bge.n	20001d78 <XoscEnable+0x8>
20001d7e:	4770      	bx	lr
20001d80:	00fab000 	.word	0x00fab000
20001d84:	4004a000 	.word	0x4004a000
20001d88:	40048000 	.word	0x40048000

20001d8c <XoscInit>:
20001d8c:	f44f 622a 	mov.w	r2, #2720	@ 0xaa0
20001d90:	4b04      	ldr	r3, [pc, #16]	@ (20001da4 <XoscInit+0x18>)
20001d92:	601a      	str	r2, [r3, #0]
20001d94:	222f      	movs	r2, #47	@ 0x2f
20001d96:	60da      	str	r2, [r3, #12]
20001d98:	4b03      	ldr	r3, [pc, #12]	@ (20001da8 <XoscInit+0x1c>)
20001d9a:	4a04      	ldr	r2, [pc, #16]	@ (20001dac <XoscInit+0x20>)
20001d9c:	62da      	str	r2, [r3, #44]	@ 0x2c
20001d9e:	f7ff bfe7 	b.w	20001d70 <XoscEnable>
20001da2:	bf00      	nop
20001da4:	40048000 	.word	0x40048000
20001da8:	2000ab40 	.word	0x2000ab40
20001dac:	00b71b00 	.word	0x00b71b00

20001db0 <ClockInit>:
20001db0:	b510      	push	{r4, lr}
20001db2:	224c      	movs	r2, #76	@ 0x4c
20001db4:	2100      	movs	r1, #0
20001db6:	4828      	ldr	r0, [pc, #160]	@ (20001e58 <ClockInit+0xa8>)
20001db8:	f007 fa78 	bl	200092ac <memset>
20001dbc:	2213      	movs	r2, #19
20001dbe:	2100      	movs	r1, #0
20001dc0:	4826      	ldr	r0, [pc, #152]	@ (20001e5c <ClockInit+0xac>)
20001dc2:	f007 fa73 	bl	200092ac <memset>
20001dc6:	2300      	movs	r3, #0
20001dc8:	4c25      	ldr	r4, [pc, #148]	@ (20001e60 <ClockInit+0xb0>)
20001dca:	f8c4 3084 	str.w	r3, [r4, #132]	@ 0x84
20001dce:	f7ff fdc1 	bl	20001954 <RoscInit>
20001dd2:	200c      	movs	r0, #12
20001dd4:	f7ff ffda 	bl	20001d8c <XoscInit>
20001dd8:	f7ff ff70 	bl	20001cbc <TickStartAll>
20001ddc:	2201      	movs	r2, #1
20001dde:	4b21      	ldr	r3, [pc, #132]	@ (20001e64 <ClockInit+0xb4>)
20001de0:	639a      	str	r2, [r3, #56]	@ 0x38
20001de2:	2203      	movs	r2, #3
20001de4:	f5a3 2325 	sub.w	r3, r3, #675840	@ 0xa5000
20001de8:	63da      	str	r2, [r3, #60]	@ 0x3c
20001dea:	6c62      	ldr	r2, [r4, #68]	@ 0x44
20001dec:	07d2      	lsls	r2, r2, #31
20001dee:	d5fc      	bpl.n	20001dea <ClockInit+0x3a>
20001df0:	2203      	movs	r2, #3
20001df2:	631a      	str	r2, [r3, #48]	@ 0x30
20001df4:	4a1a      	ldr	r2, [pc, #104]	@ (20001e60 <ClockInit+0xb0>)
20001df6:	6b93      	ldr	r3, [r2, #56]	@ 0x38
20001df8:	07db      	lsls	r3, r3, #31
20001dfa:	d5fc      	bpl.n	20001df6 <ClockInit+0x46>
20001dfc:	491a      	ldr	r1, [pc, #104]	@ (20001e68 <ClockInit+0xb8>)
20001dfe:	2000      	movs	r0, #0
20001e00:	f7ff fd7c 	bl	200018fc <PllSetFreq>
20001e04:	4919      	ldr	r1, [pc, #100]	@ (20001e6c <ClockInit+0xbc>)
20001e06:	2001      	movs	r0, #1
20001e08:	f7ff fd78 	bl	200018fc <PllSetFreq>
20001e0c:	2300      	movs	r3, #0
20001e0e:	210b      	movs	r1, #11
20001e10:	461a      	mov	r2, r3
20001e12:	2004      	movs	r0, #4
20001e14:	f7ff f882 	bl	20000f1c <ClockSetup>
20001e18:	2300      	movs	r3, #0
20001e1a:	210c      	movs	r1, #12
20001e1c:	461a      	mov	r2, r3
20001e1e:	2005      	movs	r0, #5
20001e20:	f7ff f87c 	bl	20000f1c <ClockSetup>
20001e24:	2300      	movs	r3, #0
20001e26:	210d      	movs	r1, #13
20001e28:	4a11      	ldr	r2, [pc, #68]	@ (20001e70 <ClockInit+0xc0>)
20001e2a:	2008      	movs	r0, #8
20001e2c:	f7ff f876 	bl	20000f1c <ClockSetup>
20001e30:	2300      	movs	r3, #0
20001e32:	210d      	movs	r1, #13
20001e34:	4a0e      	ldr	r2, [pc, #56]	@ (20001e70 <ClockInit+0xc0>)
20001e36:	2009      	movs	r0, #9
20001e38:	f7ff f870 	bl	20000f1c <ClockSetup>
20001e3c:	2300      	movs	r3, #0
20001e3e:	210d      	movs	r1, #13
20001e40:	461a      	mov	r2, r3
20001e42:	2006      	movs	r0, #6
20001e44:	f7ff f86a 	bl	20000f1c <ClockSetup>
20001e48:	e8bd 4010 	ldmia.w	sp!, {r4, lr}
20001e4c:	2300      	movs	r3, #0
20001e4e:	210d      	movs	r1, #13
20001e50:	461a      	mov	r2, r3
20001e52:	2007      	movs	r0, #7
20001e54:	f7ff b862 	b.w	20000f1c <ClockSetup>
20001e58:	2000ab40 	.word	0x2000ab40
20001e5c:	200323d8 	.word	0x200323d8
20001e60:	40010000 	.word	0x40010000
20001e64:	400b8000 	.word	0x400b8000
20001e68:	000249f0 	.word	0x000249f0
20001e6c:	00023280 	.word	0x00023280
20001e70:	02dc6c00 	.word	0x02dc6c00

20001e74 <RuntimeInit>:
20001e74:	b538      	push	{r3, r4, r5, lr}
20001e76:	4a34      	ldr	r2, [pc, #208]	@ (20001f48 <RuntimeInit+0xd4>)
20001e78:	4b34      	ldr	r3, [pc, #208]	@ (20001f4c <RuntimeInit+0xd8>)
20001e7a:	4835      	ldr	r0, [pc, #212]	@ (20001f50 <RuntimeInit+0xdc>)
20001e7c:	601a      	str	r2, [r3, #0]
20001e7e:	f7ff fcd5 	bl	2000182c <ResetPeripheryOffWaitMask>
20001e82:	4c34      	ldr	r4, [pc, #208]	@ (20001f54 <RuntimeInit+0xe0>)
20001e84:	4d34      	ldr	r5, [pc, #208]	@ (20001f58 <RuntimeInit+0xe4>)
20001e86:	42ac      	cmp	r4, r5
20001e88:	d356      	bcc.n	20001f38 <RuntimeInit+0xc4>
20001e8a:	f7fe ff7d 	bl	20000d88 <RomFncInit>
20001e8e:	f04f 23e0 	mov.w	r3, #3758153728	@ 0xe000e000
20001e92:	f8d3 2d88 	ldr.w	r2, [r3, #3464]	@ 0xd88
20001e96:	f042 0203 	orr.w	r2, r2, #3
20001e9a:	f8c3 2d88 	str.w	r2, [r3, #3464]	@ 0xd88
20001e9e:	f8d3 2d88 	ldr.w	r2, [r3, #3464]	@ 0xd88
20001ea2:	f442 1240 	orr.w	r2, r2, #3145728	@ 0x300000
20001ea6:	f8c3 2d88 	str.w	r2, [r3, #3464]	@ 0xd88
20001eaa:	f8d3 2d88 	ldr.w	r2, [r3, #3464]	@ 0xd88
20001eae:	f442 7240 	orr.w	r2, r2, #768	@ 0x300
20001eb2:	f8c3 2d88 	str.w	r2, [r3, #3464]	@ 0xd88
20001eb6:	ee10 0430 			@ <UNDEFINED> instruction: 0xee100430
20001eba:	4c28      	ldr	r4, [pc, #160]	@ (20001f5c <RuntimeInit+0xe8>)
20001ebc:	f7ff fbdd 	bl	2000167a <NVIC_IRQPrioDef>
20001ec0:	f7ff ff76 	bl	20001db0 <ClockInit>
20001ec4:	f06f 4060 	mvn.w	r0, #3758096384	@ 0xe0000000
20001ec8:	f7ff fcb0 	bl	2000182c <ResetPeripheryOffWaitMask>
20001ecc:	f7ff f8b2 	bl	20001034 <StackFeed>
20001ed0:	f7ff fe9e 	bl	20001c10 <SpinResetAll>
20001ed4:	f7ff fabe 	bl	20001454 <FlashLoadInfo>
20001ed8:	f002 f85e 	bl	20003f98 <ConfigLoad>
20001edc:	f003 f864 	bl	20004fa8 <RandInit>
20001ee0:	e9d4 1000 	ldrd	r1, r0, [r4]
20001ee4:	e9d4 3202 	ldrd	r3, r2, [r4, #8]
20001ee8:	185b      	adds	r3, r3, r1
20001eea:	eb42 0200 	adc.w	r2, r2, r0
20001eee:	e9c4 3202 	strd	r3, r2, [r4, #8]
20001ef2:	f7ff fd5f 	bl	200019b4 <RoscRand>
20001ef6:	e9d4 3200 	ldrd	r3, r2, [r4]
20001efa:	181b      	adds	r3, r3, r0
20001efc:	f142 0200 	adc.w	r2, r2, #0
20001f00:	e9c4 3200 	strd	r3, r2, [r4]
20001f04:	f001 ffea 	bl	20003edc <AlarmInit>
20001f08:	f7ff fe96 	bl	20001c38 <SysTickInit>
20001f0c:	f002 fed8 	bl	20004cc0 <MemInit>
20001f10:	4c13      	ldr	r4, [pc, #76]	@ (20001f60 <RuntimeInit+0xec>)
20001f12:	4d14      	ldr	r5, [pc, #80]	@ (20001f64 <RuntimeInit+0xf0>)
20001f14:	42ac      	cmp	r4, r5
20001f16:	d313      	bcc.n	20001f40 <RuntimeInit+0xcc>
20001f18:	2019      	movs	r0, #25
20001f1a:	f7ff fb8b 	bl	20001634 <GPIO_Init>
20001f1e:	2319      	movs	r3, #25
20001f20:	eec0 3014 			@ <UNDEFINED> instruction: 0xeec03014
20001f24:	eee0 3010 			@ <UNDEFINED> instruction: 0xeee03010
20001f28:	f7fe fe86 	bl	20000c38 <DeviceInit>
20001f2c:	f7fe fc62 	bl	200007f4 <PSRAM_Init>
20001f30:	e8bd 4038 	ldmia.w	sp!, {r3, r4, r5, lr}
20001f34:	f002 befc 	b.w	20004d30 <PmemInit>
20001f38:	f854 3b04 	ldr.w	r3, [r4], #4
20001f3c:	4798      	blx	r3
20001f3e:	e7a2      	b.n	20001e86 <RuntimeInit+0x12>
20001f40:	f854 3b04 	ldr.w	r3, [r4], #4
20001f44:	4798      	blx	r3
20001f46:	e7e5      	b.n	20001f14 <RuntimeInit+0xa0>
20001f48:	0fef3b7f 	.word	0x0fef3b7f
20001f4c:	40022000 	.word	0x40022000
20001f50:	03f3fff6 	.word	0x03f3fff6
20001f54:	2000aad4 	.word	0x2000aad4
20001f58:	2000aad4 	.word	0x2000aad4
20001f5c:	2000aa98 	.word	0x2000aa98
20001f60:	2000aad4 	.word	0x2000aad4
20001f64:	2000aad4 	.word	0x2000aad4

20001f68 <UsbHostDevEp>:
20001f68:	2901      	cmp	r1, #1
20001f6a:	b530      	push	{r4, r5, lr}
20001f6c:	4604      	mov	r4, r0
20001f6e:	d929      	bls.n	20001fc4 <UsbHostDevEp+0x5c>
20001f70:	4b15      	ldr	r3, [pc, #84]	@ (20001fc8 <UsbHostDevEp+0x60>)
20001f72:	2001      	movs	r0, #1
20001f74:	461a      	mov	r2, r3
20001f76:	f892 5024 	ldrb.w	r5, [r2, #36]	@ 0x24
20001f7a:	b13d      	cbz	r5, 20001f8c <UsbHostDevEp+0x24>
20001f7c:	f892 502a 	ldrb.w	r5, [r2, #42]	@ 0x2a
20001f80:	42a5      	cmp	r5, r4
20001f82:	d103      	bne.n	20001f8c <UsbHostDevEp+0x24>
20001f84:	f892 502b 	ldrb.w	r5, [r2, #43]	@ 0x2b
20001f88:	428d      	cmp	r5, r1
20001f8a:	d01a      	beq.n	20001fc2 <UsbHostDevEp+0x5a>
20001f8c:	3001      	adds	r0, #1
20001f8e:	b2c0      	uxtb	r0, r0
20001f90:	2810      	cmp	r0, #16
20001f92:	f102 0224 	add.w	r2, r2, #36	@ 0x24
20001f96:	d1ee      	bne.n	20001f76 <UsbHostDevEp+0xe>
20001f98:	2001      	movs	r0, #1
20001f9a:	f081 0101 	eor.w	r1, r1, #1
20001f9e:	f893 2024 	ldrb.w	r2, [r3, #36]	@ 0x24
20001fa2:	b13a      	cbz	r2, 20001fb4 <UsbHostDevEp+0x4c>
20001fa4:	f893 202a 	ldrb.w	r2, [r3, #42]	@ 0x2a
20001fa8:	42a2      	cmp	r2, r4
20001faa:	d103      	bne.n	20001fb4 <UsbHostDevEp+0x4c>
20001fac:	f893 202b 	ldrb.w	r2, [r3, #43]	@ 0x2b
20001fb0:	428a      	cmp	r2, r1
20001fb2:	d006      	beq.n	20001fc2 <UsbHostDevEp+0x5a>
20001fb4:	3001      	adds	r0, #1
20001fb6:	b2c0      	uxtb	r0, r0
20001fb8:	2810      	cmp	r0, #16
20001fba:	f103 0324 	add.w	r3, r3, #36	@ 0x24
20001fbe:	d1ee      	bne.n	20001f9e <UsbHostDevEp+0x36>
20001fc0:	20ff      	movs	r0, #255	@ 0xff
20001fc2:	bd30      	pop	{r4, r5, pc}
20001fc4:	2000      	movs	r0, #0
20001fc6:	e7fc      	b.n	20001fc2 <UsbHostDevEp+0x5a>
20001fc8:	20031868 	.word	0x20031868

20001fcc <UsbHostIsBusy>:
20001fcc:	b508      	push	{r3, lr}
20001fce:	f7ff ffcb 	bl	20001f68 <UsbHostDevEp>
20001fd2:	28ff      	cmp	r0, #255	@ 0xff
20001fd4:	bf1b      	ittet	ne
20001fd6:	2224      	movne	r2, #36	@ 0x24
20001fd8:	4b03      	ldrne	r3, [pc, #12]	@ (20001fe8 <UsbHostIsBusy+0x1c>)
20001fda:	2000      	moveq	r0, #0
20001fdc:	fb02 3300 	mlane	r3, r2, r0, r3
20001fe0:	bf1c      	itt	ne
20001fe2:	7858      	ldrbne	r0, [r3, #1]
20001fe4:	b2c0      	uxtbne	r0, r0
20001fe6:	bd08      	pop	{r3, pc}
20001fe8:	20031868 	.word	0x20031868

20001fec <UsbHostSetupIdle>:
20001fec:	2200      	movs	r2, #0
20001fee:	4b03      	ldr	r3, [pc, #12]	@ (20001ffc <UsbHostSetupIdle+0x10>)
20001ff0:	701a      	strb	r2, [r3, #0]
20001ff2:	4b03      	ldr	r3, [pc, #12]	@ (20002000 <UsbHostSetupIdle+0x14>)
20001ff4:	681b      	ldr	r3, [r3, #0]
20001ff6:	b103      	cbz	r3, 20001ffa <UsbHostSetupIdle+0xe>
20001ff8:	4718      	bx	r3
20001ffa:	4770      	bx	lr
20001ffc:	20032a49 	.word	0x20032a49
20002000:	20032268 	.word	0x20032268

20002004 <UsbHostOnTime>:
20002004:	4b03      	ldr	r3, [pc, #12]	@ (20002014 <UsbHostOnTime+0x10>)
20002006:	781b      	ldrb	r3, [r3, #0]
20002008:	b11b      	cbz	r3, 20002012 <UsbHostOnTime+0xe>
2000200a:	2208      	movs	r2, #8
2000200c:	4b02      	ldr	r3, [pc, #8]	@ (20002018 <UsbHostOnTime+0x14>)
2000200e:	f8c3 2094 	str.w	r2, [r3, #148]	@ 0x94
20002012:	4770      	bx	lr
20002014:	20032944 	.word	0x20032944
20002018:	50112000 	.word	0x50112000

2000201c <SysTick_Handler>:
2000201c:	b510      	push	{r4, lr}
2000201e:	f3ef 8410 	mrs	r4, PRIMASK
20002022:	b672      	cpsid	i
20002024:	f04f 4350 	mov.w	r3, #3489660928	@ 0xd0000000
20002028:	681b      	ldr	r3, [r3, #0]
2000202a:	b9cb      	cbnz	r3, 20002060 <SysTick_Handler+0x44>
2000202c:	4a13      	ldr	r2, [pc, #76]	@ (2000207c <SysTick_Handler+0x60>)
2000202e:	4914      	ldr	r1, [pc, #80]	@ (20002080 <SysTick_Handler+0x64>)
20002030:	6813      	ldr	r3, [r2, #0]
20002032:	3305      	adds	r3, #5
20002034:	6013      	str	r3, [r2, #0]
20002036:	4b13      	ldr	r3, [pc, #76]	@ (20002084 <SysTick_Handler+0x68>)
20002038:	4a13      	ldr	r2, [pc, #76]	@ (20002088 <SysTick_Handler+0x6c>)
2000203a:	6a9b      	ldr	r3, [r3, #40]	@ 0x28
2000203c:	b29b      	uxth	r3, r3
2000203e:	8013      	strh	r3, [r2, #0]
20002040:	880a      	ldrh	r2, [r1, #0]
20002042:	b292      	uxth	r2, r2
20002044:	1d53      	adds	r3, r2, #5
20002046:	b29b      	uxth	r3, r3
20002048:	f5b3 7f7a 	cmp.w	r3, #1000	@ 0x3e8
2000204c:	d306      	bcc.n	2000205c <SysTick_Handler+0x40>
2000204e:	480f      	ldr	r0, [pc, #60]	@ (2000208c <SysTick_Handler+0x70>)
20002050:	f2a2 32e3 	subw	r2, r2, #995	@ 0x3e3
20002054:	b293      	uxth	r3, r2
20002056:	6802      	ldr	r2, [r0, #0]
20002058:	3201      	adds	r2, #1
2000205a:	6002      	str	r2, [r0, #0]
2000205c:	b21b      	sxth	r3, r3
2000205e:	800b      	strh	r3, [r1, #0]
20002060:	f001 ff1c 	bl	20003e9c <AlarmUpdate>
20002064:	f384 8810 	msr	PRIMASK, r4
20002068:	4b09      	ldr	r3, [pc, #36]	@ (20002090 <SysTick_Handler+0x74>)
2000206a:	781b      	ldrb	r3, [r3, #0]
2000206c:	b10b      	cbz	r3, 20002072 <SysTick_Handler+0x56>
2000206e:	f7ff ffc9 	bl	20002004 <UsbHostOnTime>
20002072:	e8bd 4010 	ldmia.w	sp!, {r4, lr}
20002076:	f7fe bc6f 	b.w	20000958 <KeyScan>
2000207a:	bf00      	nop
2000207c:	20031860 	.word	0x20031860
20002080:	20032276 	.word	0x20032276
20002084:	400b0000 	.word	0x400b0000
20002088:	2003229a 	.word	0x2003229a
2000208c:	20031864 	.word	0x20031864
20002090:	20032947 	.word	0x20032947

20002094 <UsbHostEpAlloc>:
20002094:	b150      	cbz	r0, 200020ac <UsbHostEpAlloc+0x18>
20002096:	2001      	movs	r0, #1
20002098:	4b05      	ldr	r3, [pc, #20]	@ (200020b0 <UsbHostEpAlloc+0x1c>)
2000209a:	f893 2024 	ldrb.w	r2, [r3, #36]	@ 0x24
2000209e:	b12a      	cbz	r2, 200020ac <UsbHostEpAlloc+0x18>
200020a0:	3001      	adds	r0, #1
200020a2:	b2c0      	uxtb	r0, r0
200020a4:	280f      	cmp	r0, #15
200020a6:	f103 0324 	add.w	r3, r3, #36	@ 0x24
200020aa:	d1f6      	bne.n	2000209a <UsbHostEpAlloc+0x6>
200020ac:	4770      	bx	lr
200020ae:	bf00      	nop
200020b0:	20031868 	.word	0x20031868

200020b4 <UsbHostClrDev>:
200020b4:	223c      	movs	r2, #60	@ 0x3c
200020b6:	b538      	push	{r3, r4, r5, lr}
200020b8:	fb02 f400 	mul.w	r4, r2, r0
200020bc:	4d0a      	ldr	r5, [pc, #40]	@ (200020e8 <UsbHostClrDev+0x34>)
200020be:	2100      	movs	r1, #0
200020c0:	1928      	adds	r0, r5, r4
200020c2:	f007 f8f3 	bl	200092ac <memset>
200020c6:	f104 000c 	add.w	r0, r4, #12
200020ca:	2210      	movs	r2, #16
200020cc:	21ff      	movs	r1, #255	@ 0xff
200020ce:	4428      	add	r0, r5
200020d0:	f007 f8ec 	bl	200092ac <memset>
200020d4:	f104 001c 	add.w	r0, r4, #28
200020d8:	4428      	add	r0, r5
200020da:	2220      	movs	r2, #32
200020dc:	e8bd 4038 	ldmia.w	sp!, {r3, r4, r5, lr}
200020e0:	21ff      	movs	r1, #255	@ 0xff
200020e2:	f007 b8e3 	b.w	200092ac <memset>
200020e6:	bf00      	nop
200020e8:	2003229e 	.word	0x2003229e

200020ec <UsbHostHidInxIsMounted>:
200020ec:	2384      	movs	r3, #132	@ 0x84
200020ee:	4358      	muls	r0, r3
200020f0:	4b04      	ldr	r3, [pc, #16]	@ (20002104 <UsbHostHidInxIsMounted+0x18>)
200020f2:	5c18      	ldrb	r0, [r3, r0]
200020f4:	b120      	cbz	r0, 20002100 <UsbHostHidInxIsMounted+0x14>
200020f6:	4b04      	ldr	r3, [pc, #16]	@ (20002108 <UsbHostHidInxIsMounted+0x1c>)
200020f8:	7818      	ldrb	r0, [r3, #0]
200020fa:	3800      	subs	r0, #0
200020fc:	bf18      	it	ne
200020fe:	2001      	movne	r0, #1
20002100:	4770      	bx	lr
20002102:	bf00      	nop
20002104:	20031cf0 	.word	0x20031cf0
20002108:	20032933 	.word	0x20032933

2000210c <UsbHostHidFindItf>:
2000210c:	2300      	movs	r3, #0
2000210e:	b510      	push	{r4, lr}
20002110:	4a08      	ldr	r2, [pc, #32]	@ (20002134 <UsbHostHidFindItf+0x28>)
20002112:	7814      	ldrb	r4, [r2, #0]
20002114:	b12c      	cbz	r4, 20002122 <UsbHostHidFindItf+0x16>
20002116:	7854      	ldrb	r4, [r2, #1]
20002118:	4284      	cmp	r4, r0
2000211a:	d102      	bne.n	20002122 <UsbHostHidFindItf+0x16>
2000211c:	7894      	ldrb	r4, [r2, #2]
2000211e:	428c      	cmp	r4, r1
20002120:	d006      	beq.n	20002130 <UsbHostHidFindItf+0x24>
20002122:	3301      	adds	r3, #1
20002124:	2b04      	cmp	r3, #4
20002126:	f102 0284 	add.w	r2, r2, #132	@ 0x84
2000212a:	d1f2      	bne.n	20002112 <UsbHostHidFindItf+0x6>
2000212c:	20ff      	movs	r0, #255	@ 0xff
2000212e:	bd10      	pop	{r4, pc}
20002130:	b2d8      	uxtb	r0, r3
20002132:	e7fc      	b.n	2000212e <UsbHostHidFindItf+0x22>
20002134:	20031cf0 	.word	0x20031cf0

20002138 <UsbHostHidFindAddr>:
20002138:	b530      	push	{r4, r5, lr}
2000213a:	2200      	movs	r2, #0
2000213c:	4604      	mov	r4, r0
2000213e:	4b0a      	ldr	r3, [pc, #40]	@ (20002168 <UsbHostHidFindAddr+0x30>)
20002140:	781d      	ldrb	r5, [r3, #0]
20002142:	b2d0      	uxtb	r0, r2
20002144:	b145      	cbz	r5, 20002158 <UsbHostHidFindAddr+0x20>
20002146:	785d      	ldrb	r5, [r3, #1]
20002148:	42a5      	cmp	r5, r4
2000214a:	d105      	bne.n	20002158 <UsbHostHidFindAddr+0x20>
2000214c:	795d      	ldrb	r5, [r3, #5]
2000214e:	428d      	cmp	r5, r1
20002150:	d008      	beq.n	20002164 <UsbHostHidFindAddr+0x2c>
20002152:	799d      	ldrb	r5, [r3, #6]
20002154:	428d      	cmp	r5, r1
20002156:	d005      	beq.n	20002164 <UsbHostHidFindAddr+0x2c>
20002158:	3201      	adds	r2, #1
2000215a:	2a04      	cmp	r2, #4
2000215c:	f103 0384 	add.w	r3, r3, #132	@ 0x84
20002160:	d1ee      	bne.n	20002140 <UsbHostHidFindAddr+0x8>
20002162:	20ff      	movs	r0, #255	@ 0xff
20002164:	bd30      	pop	{r4, r5, pc}
20002166:	bf00      	nop
20002168:	20031cf0 	.word	0x20031cf0

2000216c <UsbHostHidNewItf>:
2000216c:	b5f0      	push	{r4, r5, r6, r7, lr}
2000216e:	2300      	movs	r3, #0
20002170:	4604      	mov	r4, r0
20002172:	2084      	movs	r0, #132	@ 0x84
20002174:	4d0b      	ldr	r5, [pc, #44]	@ (200021a4 <UsbHostHidNewItf+0x38>)
20002176:	fb00 f703 	mul.w	r7, r0, r3
2000217a:	5dee      	ldrb	r6, [r5, r7]
2000217c:	197a      	adds	r2, r7, r5
2000217e:	b95e      	cbnz	r6, 20002198 <UsbHostHidNewItf+0x2c>
20002180:	b2d8      	uxtb	r0, r3
20002182:	2301      	movs	r3, #1
20002184:	7054      	strb	r4, [r2, #1]
20002186:	55eb      	strb	r3, [r5, r7]
20002188:	788c      	ldrb	r4, [r1, #2]
2000218a:	7094      	strb	r4, [r2, #2]
2000218c:	79c9      	ldrb	r1, [r1, #7]
2000218e:	8093      	strh	r3, [r2, #4]
20002190:	70d1      	strb	r1, [r2, #3]
20002192:	7196      	strb	r6, [r2, #6]
20002194:	6096      	str	r6, [r2, #8]
20002196:	bdf0      	pop	{r4, r5, r6, r7, pc}
20002198:	3301      	adds	r3, #1
2000219a:	2b04      	cmp	r3, #4
2000219c:	d1eb      	bne.n	20002176 <UsbHostHidNewItf+0xa>
2000219e:	20ff      	movs	r0, #255	@ 0xff
200021a0:	e7f9      	b.n	20002196 <UsbHostHidNewItf+0x2a>
200021a2:	bf00      	nop
200021a4:	20031cf0 	.word	0x20031cf0

200021a8 <UsbHostHidFindKey>:
200021a8:	1c43      	adds	r3, r0, #1
200021aa:	3007      	adds	r0, #7
200021ac:	f813 2f01 	ldrb.w	r2, [r3, #1]!
200021b0:	428a      	cmp	r2, r1
200021b2:	d003      	beq.n	200021bc <UsbHostHidFindKey+0x14>
200021b4:	4283      	cmp	r3, r0
200021b6:	d1f9      	bne.n	200021ac <UsbHostHidFindKey+0x4>
200021b8:	2000      	movs	r0, #0
200021ba:	4770      	bx	lr
200021bc:	2001      	movs	r0, #1
200021be:	4770      	bx	lr

200021c0 <UsbHostHidRepKey>:
200021c0:	b51f      	push	{r0, r1, r2, r3, r4, lr}
200021c2:	4b1a      	ldr	r3, [pc, #104]	@ (2000222c <UsbHostHidRepKey+0x6c>)
200021c4:	781b      	ldrb	r3, [r3, #0]
200021c6:	b303      	cbz	r3, 2000220a <UsbHostHidRepKey+0x4a>
200021c8:	4a19      	ldr	r2, [pc, #100]	@ (20002230 <UsbHostHidRepKey+0x70>)
200021ca:	4c1a      	ldr	r4, [pc, #104]	@ (20002234 <UsbHostHidRepKey+0x74>)
200021cc:	6a92      	ldr	r2, [r2, #40]	@ 0x28
200021ce:	6821      	ldr	r1, [r4, #0]
200021d0:	1a52      	subs	r2, r2, r1
200021d2:	2a00      	cmp	r2, #0
200021d4:	db19      	blt.n	2000220a <UsbHostHidRepKey+0x4a>
200021d6:	4a18      	ldr	r2, [pc, #96]	@ (20002238 <UsbHostHidRepKey+0x78>)
200021d8:	7811      	ldrb	r1, [r2, #0]
200021da:	f011 0f11 	tst.w	r1, #17
200021de:	d016      	beq.n	2000220e <UsbHostHidRepKey+0x4e>
200021e0:	2b03      	cmp	r3, #3
200021e2:	d916      	bls.n	20002212 <UsbHostHidRepKey+0x52>
200021e4:	2b1d      	cmp	r3, #29
200021e6:	d812      	bhi.n	2000220e <UsbHostHidRepKey+0x4e>
200021e8:	1eda      	subs	r2, r3, #3
200021ea:	b2d2      	uxtb	r2, r2
200021ec:	ea43 2301 	orr.w	r3, r3, r1, lsl #8
200021f0:	ea43 4302 	orr.w	r3, r3, r2, lsl #16
200021f4:	4669      	mov	r1, sp
200021f6:	4811      	ldr	r0, [pc, #68]	@ (2000223c <UsbHostHidRepKey+0x7c>)
200021f8:	9300      	str	r3, [sp, #0]
200021fa:	f002 fade 	bl	200047ba <EventRingWrite>
200021fe:	4b0c      	ldr	r3, [pc, #48]	@ (20002230 <UsbHostHidRepKey+0x70>)
20002200:	6a9b      	ldr	r3, [r3, #40]	@ 0x28
20002202:	f503 33c3 	add.w	r3, r3, #99840	@ 0x18600
20002206:	33a0      	adds	r3, #160	@ 0xa0
20002208:	6023      	str	r3, [r4, #0]
2000220a:	b004      	add	sp, #16
2000220c:	bd10      	pop	{r4, pc}
2000220e:	2b67      	cmp	r3, #103	@ 0x67
20002210:	d809      	bhi.n	20002226 <UsbHostHidRepKey+0x66>
20002212:	f001 0222 	and.w	r2, r1, #34	@ 0x22
20002216:	3a00      	subs	r2, #0
20002218:	bf18      	it	ne
2000221a:	2201      	movne	r2, #1
2000221c:	4808      	ldr	r0, [pc, #32]	@ (20002240 <UsbHostHidRepKey+0x80>)
2000221e:	eb02 0243 	add.w	r2, r2, r3, lsl #1
20002222:	5c82      	ldrb	r2, [r0, r2]
20002224:	e7e2      	b.n	200021ec <UsbHostHidRepKey+0x2c>
20002226:	2200      	movs	r2, #0
20002228:	e7e0      	b.n	200021ec <UsbHostHidRepKey+0x2c>
2000222a:	bf00      	nop
2000222c:	2003293d 	.word	0x2003293d
20002230:	400b0000 	.word	0x400b0000
20002234:	20031ce8 	.word	0x20031ce8
20002238:	20032935 	.word	0x20032935
2000223c:	20031f00 	.word	0x20031f00
20002240:	2000978e 	.word	0x2000978e

20002244 <UsbKeyIsMounted>:
20002244:	4b0a      	ldr	r3, [pc, #40]	@ (20002270 <UsbKeyIsMounted+0x2c>)
20002246:	7818      	ldrb	r0, [r3, #0]
20002248:	b188      	cbz	r0, 2000226e <UsbKeyIsMounted+0x2a>
2000224a:	4b0a      	ldr	r3, [pc, #40]	@ (20002274 <UsbKeyIsMounted+0x30>)
2000224c:	781b      	ldrb	r3, [r3, #0]
2000224e:	f003 00ff 	and.w	r0, r3, #255	@ 0xff
20002252:	b163      	cbz	r3, 2000226e <UsbKeyIsMounted+0x2a>
20002254:	2200      	movs	r2, #0
20002256:	4b08      	ldr	r3, [pc, #32]	@ (20002278 <UsbKeyIsMounted+0x34>)
20002258:	7819      	ldrb	r1, [r3, #0]
2000225a:	b111      	cbz	r1, 20002262 <UsbKeyIsMounted+0x1e>
2000225c:	78d8      	ldrb	r0, [r3, #3]
2000225e:	2801      	cmp	r0, #1
20002260:	d005      	beq.n	2000226e <UsbKeyIsMounted+0x2a>
20002262:	3201      	adds	r2, #1
20002264:	2a04      	cmp	r2, #4
20002266:	f103 0384 	add.w	r3, r3, #132	@ 0x84
2000226a:	d1f5      	bne.n	20002258 <UsbKeyIsMounted+0x14>
2000226c:	2000      	movs	r0, #0
2000226e:	4770      	bx	lr
20002270:	20032947 	.word	0x20032947
20002274:	20032933 	.word	0x20032933
20002278:	20031cf0 	.word	0x20031cf0

2000227c <UsbGetKey>:
2000227c:	b51f      	push	{r0, r1, r2, r3, r4, lr}
2000227e:	4669      	mov	r1, sp
20002280:	4804      	ldr	r0, [pc, #16]	@ (20002294 <UsbGetKey+0x18>)
20002282:	f002 fae4 	bl	2000484e <EventRingRead>
20002286:	b110      	cbz	r0, 2000228e <UsbGetKey+0x12>
20002288:	9800      	ldr	r0, [sp, #0]
2000228a:	01c3      	lsls	r3, r0, #7
2000228c:	d4f7      	bmi.n	2000227e <UsbGetKey+0x2>
2000228e:	b005      	add	sp, #20
20002290:	f85d fb04 	ldr.w	pc, [sp], #4
20002294:	20031f00 	.word	0x20031f00

20002298 <UsbGetKeyRel>:
20002298:	b51f      	push	{r0, r1, r2, r3, r4, lr}
2000229a:	4804      	ldr	r0, [pc, #16]	@ (200022ac <UsbGetKeyRel+0x14>)
2000229c:	4669      	mov	r1, sp
2000229e:	f002 fad6 	bl	2000484e <EventRingRead>
200022a2:	b100      	cbz	r0, 200022a6 <UsbGetKeyRel+0xe>
200022a4:	9800      	ldr	r0, [sp, #0]
200022a6:	b005      	add	sp, #20
200022a8:	f85d fb04 	ldr.w	pc, [sp], #4
200022ac:	20031f00 	.word	0x20031f00

200022b0 <UsbFlushKey>:
200022b0:	b508      	push	{r3, lr}
200022b2:	f7ff ffe3 	bl	2000227c <UsbGetKey>
200022b6:	2800      	cmp	r0, #0
200022b8:	d1fb      	bne.n	200022b2 <UsbFlushKey+0x2>
200022ba:	bd08      	pop	{r3, pc}

200022bc <UsbMemcpy>:
200022bc:	3801      	subs	r0, #1
200022be:	440a      	add	r2, r1
200022c0:	4291      	cmp	r1, r2
200022c2:	d100      	bne.n	200022c6 <UsbMemcpy+0xa>
200022c4:	4770      	bx	lr
200022c6:	f811 3b01 	ldrb.w	r3, [r1], #1
200022ca:	f800 3f01 	strb.w	r3, [r0, #1]!
200022ce:	e7f7      	b.n	200022c0 <UsbMemcpy+0x4>

200022d0 <UsbHostHidParse>:
200022d0:	e92d 4ff7 	stmdb	sp!, {r0, r1, r2, r4, r5, r6, r7, r8, r9, sl, fp, lr}
200022d4:	2484      	movs	r4, #132	@ 0x84
200022d6:	4344      	muls	r4, r0
200022d8:	f8df 9108 	ldr.w	r9, [pc, #264]	@ 200023e4 <UsbHostHidParse+0x114>
200022dc:	f104 0512 	add.w	r5, r4, #18
200022e0:	444d      	add	r5, r9
200022e2:	2240      	movs	r2, #64	@ 0x40
200022e4:	444c      	add	r4, r9
200022e6:	4682      	mov	sl, r0
200022e8:	2100      	movs	r1, #0
200022ea:	4628      	mov	r0, r5
200022ec:	f006 ffde 	bl	200092ac <memset>
200022f0:	f8b4 b00e 	ldrh.w	fp, [r4, #14]
200022f4:	2400      	movs	r4, #0
200022f6:	4626      	mov	r6, r4
200022f8:	4627      	mov	r7, r4
200022fa:	4a39      	ldr	r2, [pc, #228]	@ (200023e0 <UsbHostHidParse+0x110>)
200022fc:	f1bb 0f00 	cmp.w	fp, #0
20002300:	dd01      	ble.n	20002306 <UsbHostHidParse+0x36>
20002302:	2f08      	cmp	r7, #8
20002304:	d107      	bne.n	20002316 <UsbHostHidParse+0x46>
20002306:	2384      	movs	r3, #132	@ 0x84
20002308:	fb03 990a 	mla	r9, r3, sl, r9
2000230c:	f889 7010 	strb.w	r7, [r9, #16]
20002310:	b003      	add	sp, #12
20002312:	e8bd 8ff0 	ldmia.w	sp!, {r4, r5, r6, r7, r8, r9, sl, fp, pc}
20002316:	4611      	mov	r1, r2
20002318:	f811 3b01 	ldrb.w	r3, [r1], #1
2000231c:	f10b 3bff 	add.w	fp, fp, #4294967295
20002320:	f003 0803 	and.w	r8, r3, #3
20002324:	f1b8 0f03 	cmp.w	r8, #3
20002328:	f3c3 0081 	ubfx	r0, r3, #2, #2
2000232c:	bf08      	it	eq
2000232e:	f04f 0804 	moveq.w	r8, #4
20002332:	2801      	cmp	r0, #1
20002334:	ea4f 1313 	mov.w	r3, r3, lsr #4
20002338:	d013      	beq.n	20002362 <UsbHostHidParse+0x92>
2000233a:	2802      	cmp	r0, #2
2000233c:	d049      	beq.n	200023d2 <UsbHostHidParse+0x102>
2000233e:	b918      	cbnz	r0, 20002348 <UsbHostHidParse+0x78>
20002340:	2b0a      	cmp	r3, #10
20002342:	d006      	beq.n	20002352 <UsbHostHidParse+0x82>
20002344:	2b0c      	cmp	r3, #12
20002346:	d006      	beq.n	20002356 <UsbHostHidParse+0x86>
20002348:	eb01 0208 	add.w	r2, r1, r8
2000234c:	ebab 0b08 	sub.w	fp, fp, r8
20002350:	e7d4      	b.n	200022fc <UsbHostHidParse+0x2c>
20002352:	3601      	adds	r6, #1
20002354:	e7f8      	b.n	20002348 <UsbHostHidParse+0x78>
20002356:	3e01      	subs	r6, #1
20002358:	d1f6      	bne.n	20002348 <UsbHostHidParse+0x78>
2000235a:	3701      	adds	r7, #1
2000235c:	3508      	adds	r5, #8
2000235e:	b2ff      	uxtb	r7, r7
20002360:	e7f2      	b.n	20002348 <UsbHostHidParse+0x78>
20002362:	2b0b      	cmp	r3, #11
20002364:	d8f0      	bhi.n	20002348 <UsbHostHidParse+0x78>
20002366:	a001      	add	r0, pc, #4	@ (adr r0, 2000236c <UsbHostHidParse+0x9c>)
20002368:	f850 f023 	ldr.w	pc, [r0, r3, lsl #2]
2000236c:	2000239d 	.word	0x2000239d
20002370:	20002349 	.word	0x20002349
20002374:	20002349 	.word	0x20002349
20002378:	20002349 	.word	0x20002349
2000237c:	20002349 	.word	0x20002349
20002380:	20002349 	.word	0x20002349
20002384:	20002349 	.word	0x20002349
20002388:	20002349 	.word	0x20002349
2000238c:	200023cd 	.word	0x200023cd
20002390:	20002349 	.word	0x20002349
20002394:	200023bb 	.word	0x200023bb
20002398:	200023c5 	.word	0x200023c5
2000239c:	2e00      	cmp	r6, #0
2000239e:	d1d3      	bne.n	20002348 <UsbHostHidParse+0x78>
200023a0:	4642      	mov	r2, r8
200023a2:	2a02      	cmp	r2, #2
200023a4:	4628      	mov	r0, r5
200023a6:	bf28      	it	cs
200023a8:	2202      	movcs	r2, #2
200023aa:	f820 6f02 	strh.w	r6, [r0, #2]!
200023ae:	b2d2      	uxtb	r2, r2
200023b0:	9101      	str	r1, [sp, #4]
200023b2:	f7ff ff83 	bl	200022bc <UsbMemcpy>
200023b6:	9901      	ldr	r1, [sp, #4]
200023b8:	e7c6      	b.n	20002348 <UsbHostHidParse+0x78>
200023ba:	2c04      	cmp	r4, #4
200023bc:	d8c4      	bhi.n	20002348 <UsbHostHidParse+0x78>
200023be:	3401      	adds	r4, #1
200023c0:	b2e4      	uxtb	r4, r4
200023c2:	e7c1      	b.n	20002348 <UsbHostHidParse+0x78>
200023c4:	2c00      	cmp	r4, #0
200023c6:	d0bf      	beq.n	20002348 <UsbHostHidParse+0x78>
200023c8:	3c01      	subs	r4, #1
200023ca:	e7f9      	b.n	200023c0 <UsbHostHidParse+0xf0>
200023cc:	7853      	ldrb	r3, [r2, #1]
200023ce:	702b      	strb	r3, [r5, #0]
200023d0:	e7ba      	b.n	20002348 <UsbHostHidParse+0x78>
200023d2:	2b00      	cmp	r3, #0
200023d4:	d1b8      	bne.n	20002348 <UsbHostHidParse+0x78>
200023d6:	2e00      	cmp	r6, #0
200023d8:	d1b6      	bne.n	20002348 <UsbHostHidParse+0x78>
200023da:	7853      	ldrb	r3, [r2, #1]
200023dc:	706b      	strb	r3, [r5, #1]
200023de:	e7b3      	b.n	20002348 <UsbHostHidParse+0x78>
200023e0:	20032949 	.word	0x20032949
200023e4:	20031cf0 	.word	0x20031cf0

200023e8 <UsbIntEnable>:
200023e8:	f44f 4280 	mov.w	r2, #16384	@ 0x4000
200023ec:	4b02      	ldr	r3, [pc, #8]	@ (200023f8 <UsbIntEnable+0x10>)
200023ee:	f8c3 2180 	str.w	r2, [r3, #384]	@ 0x180
200023f2:	601a      	str	r2, [r3, #0]
200023f4:	4770      	bx	lr
200023f6:	bf00      	nop
200023f8:	e000e100 	.word	0xe000e100

200023fc <UsbIntDisable>:
200023fc:	f44f 4280 	mov.w	r2, #16384	@ 0x4000
20002400:	4b03      	ldr	r3, [pc, #12]	@ (20002410 <UsbIntDisable+0x14>)
20002402:	f8c3 2080 	str.w	r2, [r3, #128]	@ 0x80
20002406:	f3bf 8f4f 	dsb	sy
2000240a:	f3bf 8f6f 	isb	sy
2000240e:	4770      	bx	lr
20002410:	e000e100 	.word	0xe000e100

20002414 <UsbGetDevSpeed>:
20002414:	4b02      	ldr	r3, [pc, #8]	@ (20002420 <UsbGetDevSpeed+0xc>)
20002416:	6d18      	ldr	r0, [r3, #80]	@ 0x50
20002418:	f3c0 2001 	ubfx	r0, r0, #8, #2
2000241c:	4770      	bx	lr
2000241e:	bf00      	nop
20002420:	50110000 	.word	0x50110000

20002424 <UsbDelay12>:
20002424:	e7ff      	b.n	20002426 <UsbDelay12+0x2>
20002426:	e7ff      	b.n	20002428 <UsbDelay12+0x4>
20002428:	e7ff      	b.n	2000242a <UsbDelay12+0x6>
2000242a:	e7ff      	b.n	2000242c <UsbDelay12+0x8>
2000242c:	e7ff      	b.n	2000242e <UsbDelay12+0xa>
2000242e:	e7ff      	b.n	20002430 <UsbDelay12+0xc>
20002430:	4770      	bx	lr
	...

20002434 <UsbNextPrep>:
20002434:	b5f8      	push	{r3, r4, r5, r6, r7, lr}
20002436:	2324      	movs	r3, #36	@ 0x24
20002438:	4d1b      	ldr	r5, [pc, #108]	@ (200024a8 <UsbNextPrep+0x74>)
2000243a:	4606      	mov	r6, r0
2000243c:	fb03 5300 	mla	r3, r3, r0, r5
20002440:	89da      	ldrh	r2, [r3, #14]
20002442:	895c      	ldrh	r4, [r3, #10]
20002444:	4294      	cmp	r4, r2
20002446:	bf28      	it	cs
20002448:	4614      	movcs	r4, r2
2000244a:	1b12      	subs	r2, r2, r4
2000244c:	81da      	strh	r2, [r3, #14]
2000244e:	795a      	ldrb	r2, [r3, #5]
20002450:	4620      	mov	r0, r4
20002452:	b97a      	cbnz	r2, 20002474 <UsbNextPrep+0x40>
20002454:	699f      	ldr	r7, [r3, #24]
20002456:	b15f      	cbz	r7, 20002470 <UsbNextPrep+0x3c>
20002458:	6958      	ldr	r0, [r3, #20]
2000245a:	b148      	cbz	r0, 20002470 <UsbNextPrep+0x3c>
2000245c:	b144      	cbz	r4, 20002470 <UsbNextPrep+0x3c>
2000245e:	791a      	ldrb	r2, [r3, #4]
20002460:	eb00 1081 	add.w	r0, r0, r1, lsl #6
20002464:	b1ca      	cbz	r2, 2000249a <UsbNextPrep+0x66>
20002466:	4601      	mov	r1, r0
20002468:	4622      	mov	r2, r4
2000246a:	4638      	mov	r0, r7
2000246c:	f002 fe24 	bl	200050b8 <RingReadData>
20002470:	f444 4000 	orr.w	r0, r4, #32768	@ 0x8000
20002474:	2224      	movs	r2, #36	@ 0x24
20002476:	fb02 5106 	mla	r1, r2, r6, r5
2000247a:	fb02 5506 	mla	r5, r2, r6, r5
2000247e:	7a0b      	ldrb	r3, [r1, #8]
20002480:	7a49      	ldrb	r1, [r1, #9]
20002482:	2901      	cmp	r1, #1
20002484:	bf18      	it	ne
20002486:	ea40 3043 	orrne.w	r0, r0, r3, lsl #13
2000248a:	f083 0301 	eor.w	r3, r3, #1
2000248e:	722b      	strb	r3, [r5, #8]
20002490:	89eb      	ldrh	r3, [r5, #14]
20002492:	b90b      	cbnz	r3, 20002498 <UsbNextPrep+0x64>
20002494:	f440 4080 	orr.w	r0, r0, #16384	@ 0x4000
20002498:	bdf8      	pop	{r3, r4, r5, r6, r7, pc}
2000249a:	8a19      	ldrh	r1, [r3, #16]
2000249c:	4622      	mov	r2, r4
2000249e:	4439      	add	r1, r7
200024a0:	f7ff ff0c 	bl	200022bc <UsbMemcpy>
200024a4:	e7e4      	b.n	20002470 <UsbNextPrep+0x3c>
200024a6:	bf00      	nop
200024a8:	20031868 	.word	0x20031868

200024ac <UsbNextBuf>:
200024ac:	2324      	movs	r3, #36	@ 0x24
200024ae:	e92d 41f0 	stmdb	sp!, {r4, r5, r6, r7, r8, lr}
200024b2:	f8df 8080 	ldr.w	r8, [pc, #128]	@ 20002534 <UsbNextBuf+0x88>
200024b6:	2100      	movs	r1, #0
200024b8:	fb03 8300 	mla	r3, r3, r0, r8
200024bc:	6a1f      	ldr	r7, [r3, #32]
200024be:	f44f 5380 	mov.w	r3, #4096	@ 0x1000
200024c2:	603b      	str	r3, [r7, #0]
200024c4:	4606      	mov	r6, r0
200024c6:	f7ff ffb5 	bl	20002434 <UsbNextPrep>
200024ca:	4b19      	ldr	r3, [pc, #100]	@ (20002530 <UsbNextBuf+0x84>)
200024cc:	f440 5580 	orr.w	r5, r0, #4096	@ 0x1000
200024d0:	781b      	ldrb	r3, [r3, #0]
200024d2:	bb23      	cbnz	r3, 2000251e <UsbNextBuf+0x72>
200024d4:	43f3      	mvns	r3, r6
200024d6:	f3c3 13c0 	ubfx	r3, r3, #7, #1
200024da:	2224      	movs	r2, #36	@ 0x24
200024dc:	fb02 8206 	mla	r2, r2, r6, r8
200024e0:	69d1      	ldr	r1, [r2, #28]
200024e2:	89d2      	ldrh	r2, [r2, #14]
200024e4:	680c      	ldr	r4, [r1, #0]
200024e6:	b1f2      	cbz	r2, 20002526 <UsbNextBuf+0x7a>
200024e8:	b9eb      	cbnz	r3, 20002526 <UsbNextBuf+0x7a>
200024ea:	2101      	movs	r1, #1
200024ec:	4630      	mov	r0, r6
200024ee:	f7ff ffa1 	bl	20002434 <UsbNextPrep>
200024f2:	f024 5400 	bic.w	r4, r4, #536870912	@ 0x20000000
200024f6:	ea45 4000 	orr.w	r0, r5, r0, lsl #16
200024fa:	f040 6580 	orr.w	r5, r0, #67108864	@ 0x4000000
200024fe:	f044 44a0 	orr.w	r4, r4, #1342177280	@ 0x50000000
20002502:	2324      	movs	r3, #36	@ 0x24
20002504:	fb03 8806 	mla	r8, r3, r6, r8
20002508:	f8d8 301c 	ldr.w	r3, [r8, #28]
2000250c:	601c      	str	r4, [r3, #0]
2000250e:	603d      	str	r5, [r7, #0]
20002510:	f445 6580 	orr.w	r5, r5, #1024	@ 0x400
20002514:	f7ff ff86 	bl	20002424 <UsbDelay12>
20002518:	603d      	str	r5, [r7, #0]
2000251a:	e8bd 81f0 	ldmia.w	sp!, {r4, r5, r6, r7, r8, pc}
2000251e:	1e33      	subs	r3, r6, #0
20002520:	bf18      	it	ne
20002522:	2301      	movne	r3, #1
20002524:	e7d9      	b.n	200024da <UsbNextBuf+0x2e>
20002526:	f024 44a0 	bic.w	r4, r4, #1342177280	@ 0x50000000
2000252a:	f044 5400 	orr.w	r4, r4, #536870912	@ 0x20000000
2000252e:	e7e8      	b.n	20002502 <UsbNextBuf+0x56>
20002530:	20032948 	.word	0x20032948
20002534:	20031868 	.word	0x20031868

20002538 <UsbXferStart>:
20002538:	b470      	push	{r4, r5, r6}
2000253a:	2524      	movs	r5, #36	@ 0x24
2000253c:	4c08      	ldr	r4, [pc, #32]	@ (20002560 <UsbXferStart+0x28>)
2000253e:	fb05 4400 	mla	r4, r5, r0, r4
20002542:	2500      	movs	r5, #0
20002544:	6a26      	ldr	r6, [r4, #32]
20002546:	6035      	str	r5, [r6, #0]
20002548:	2601      	movs	r6, #1
2000254a:	7066      	strb	r6, [r4, #1]
2000254c:	f3bf 8f5f 	dmb	sy
20002550:	7123      	strb	r3, [r4, #4]
20002552:	81e2      	strh	r2, [r4, #14]
20002554:	81a2      	strh	r2, [r4, #12]
20002556:	8225      	strh	r5, [r4, #16]
20002558:	61a1      	str	r1, [r4, #24]
2000255a:	bc70      	pop	{r4, r5, r6}
2000255c:	f7ff bfa6 	b.w	200024ac <UsbNextBuf>
20002560:	20031868 	.word	0x20031868

20002564 <UsbXferSync>:
20002564:	b5f8      	push	{r3, r4, r5, r6, r7, lr}
20002566:	2324      	movs	r3, #36	@ 0x24
20002568:	4d1c      	ldr	r5, [pc, #112]	@ (200025dc <UsbXferSync+0x78>)
2000256a:	4606      	mov	r6, r0
2000256c:	fb03 5200 	mla	r2, r3, r0, r5
20002570:	6a12      	ldr	r2, [r2, #32]
20002572:	6814      	ldr	r4, [r2, #0]
20002574:	b101      	cbz	r1, 20002578 <UsbXferSync+0x14>
20002576:	0c24      	lsrs	r4, r4, #16
20002578:	fb03 5306 	mla	r3, r3, r6, r5
2000257c:	8a1f      	ldrh	r7, [r3, #16]
2000257e:	f3c4 0409 	ubfx	r4, r4, #0, #10
20002582:	899b      	ldrh	r3, [r3, #12]
20002584:	193a      	adds	r2, r7, r4
20002586:	429a      	cmp	r2, r3
20002588:	bfc8      	it	gt
2000258a:	1bdc      	subgt	r4, r3, r7
2000258c:	2324      	movs	r3, #36	@ 0x24
2000258e:	fb03 5306 	mla	r3, r3, r6, r5
20002592:	795a      	ldrb	r2, [r3, #5]
20002594:	b162      	cbz	r2, 200025b0 <UsbXferSync+0x4c>
20002596:	2c00      	cmp	r4, #0
20002598:	dd0a      	ble.n	200025b0 <UsbXferSync+0x4c>
2000259a:	6998      	ldr	r0, [r3, #24]
2000259c:	b140      	cbz	r0, 200025b0 <UsbXferSync+0x4c>
2000259e:	695a      	ldr	r2, [r3, #20]
200025a0:	b132      	cbz	r2, 200025b0 <UsbXferSync+0x4c>
200025a2:	791b      	ldrb	r3, [r3, #4]
200025a4:	eb02 1181 	add.w	r1, r2, r1, lsl #6
200025a8:	4622      	mov	r2, r4
200025aa:	b193      	cbz	r3, 200025d2 <UsbXferSync+0x6e>
200025ac:	f002 fd32 	bl	20005014 <RingWriteData>
200025b0:	2324      	movs	r3, #36	@ 0x24
200025b2:	fb03 5306 	mla	r3, r3, r6, r5
200025b6:	8959      	ldrh	r1, [r3, #10]
200025b8:	8a1a      	ldrh	r2, [r3, #16]
200025ba:	42a1      	cmp	r1, r4
200025bc:	bfc8      	it	gt
200025be:	2100      	movgt	r1, #0
200025c0:	fa12 f284 	uxtah	r2, r2, r4
200025c4:	b292      	uxth	r2, r2
200025c6:	b2a0      	uxth	r0, r4
200025c8:	821a      	strh	r2, [r3, #16]
200025ca:	bfc4      	itt	gt
200025cc:	81d9      	strhgt	r1, [r3, #14]
200025ce:	819a      	strhgt	r2, [r3, #12]
200025d0:	bdf8      	pop	{r3, r4, r5, r6, r7, pc}
200025d2:	4438      	add	r0, r7
200025d4:	f7ff fe72 	bl	200022bc <UsbMemcpy>
200025d8:	e7ea      	b.n	200025b0 <UsbXferSync+0x4c>
200025da:	bf00      	nop
200025dc:	20031868 	.word	0x20031868

200025e0 <UsbXferCont>:
200025e0:	b538      	push	{r3, r4, r5, lr}
200025e2:	2100      	movs	r1, #0
200025e4:	4604      	mov	r4, r0
200025e6:	f7ff ffbd 	bl	20002564 <UsbXferSync>
200025ea:	2324      	movs	r3, #36	@ 0x24
200025ec:	4d0d      	ldr	r5, [pc, #52]	@ (20002624 <UsbXferCont+0x44>)
200025ee:	fb03 5304 	mla	r3, r3, r4, r5
200025f2:	8a19      	ldrh	r1, [r3, #16]
200025f4:	899a      	ldrh	r2, [r3, #12]
200025f6:	4291      	cmp	r1, r2
200025f8:	d207      	bcs.n	2000260a <UsbXferCont+0x2a>
200025fa:	69db      	ldr	r3, [r3, #28]
200025fc:	681b      	ldr	r3, [r3, #0]
200025fe:	005b      	lsls	r3, r3, #1
20002600:	d503      	bpl.n	2000260a <UsbXferCont+0x2a>
20002602:	2101      	movs	r1, #1
20002604:	4620      	mov	r0, r4
20002606:	f7ff ffad 	bl	20002564 <UsbXferSync>
2000260a:	2324      	movs	r3, #36	@ 0x24
2000260c:	fb03 5504 	mla	r5, r3, r4, r5
20002610:	89eb      	ldrh	r3, [r5, #14]
20002612:	b123      	cbz	r3, 2000261e <UsbXferCont+0x3e>
20002614:	4620      	mov	r0, r4
20002616:	f7ff ff49 	bl	200024ac <UsbNextBuf>
2000261a:	2000      	movs	r0, #0
2000261c:	bd38      	pop	{r3, r4, r5, pc}
2000261e:	2001      	movs	r0, #1
20002620:	e7fc      	b.n	2000261c <UsbXferCont+0x3c>
20002622:	bf00      	nop
20002624:	20031868 	.word	0x20031868

20002628 <UsbRamAlloc>:
20002628:	1e02      	subs	r2, r0, #0
2000262a:	e92d 47f0 	stmdb	sp!, {r4, r5, r6, r7, r8, r9, sl, lr}
2000262e:	dd0b      	ble.n	20002648 <UsbRamAlloc+0x20>
20002630:	2000      	movs	r0, #0
20002632:	2301      	movs	r3, #1
20002634:	4605      	mov	r5, r0
20002636:	323f      	adds	r2, #63	@ 0x3f
20002638:	4e1b      	ldr	r6, [pc, #108]	@ (200026a8 <UsbRamAlloc+0x80>)
2000263a:	1192      	asrs	r2, r2, #6
2000263c:	f1c2 0940 	rsb	r9, r2, #64	@ 0x40
20002640:	e9d6 7c00 	ldrd	r7, ip, [r6]
20002644:	4581      	cmp	r9, r0
20002646:	da01      	bge.n	2000264c <UsbRamAlloc+0x24>
20002648:	2000      	movs	r0, #0
2000264a:	e026      	b.n	2000269a <UsbRamAlloc+0x72>
2000264c:	4619      	mov	r1, r3
2000264e:	462c      	mov	r4, r5
20002650:	f04f 0e00 	mov.w	lr, #0
20002654:	ea07 0801 	and.w	r8, r7, r1
20002658:	ea0c 0a04 	and.w	sl, ip, r4
2000265c:	ea58 080a 	orrs.w	r8, r8, sl
20002660:	d105      	bne.n	2000266e <UsbRamAlloc+0x46>
20002662:	1849      	adds	r1, r1, r1
20002664:	f10e 0e01 	add.w	lr, lr, #1
20002668:	4164      	adcs	r4, r4
2000266a:	4572      	cmp	r2, lr
2000266c:	d1f2      	bne.n	20002654 <UsbRamAlloc+0x2c>
2000266e:	18dc      	adds	r4, r3, r3
20002670:	eb45 0105 	adc.w	r1, r5, r5
20002674:	4572      	cmp	r2, lr
20002676:	d112      	bne.n	2000269e <UsbRamAlloc+0x76>
20002678:	2100      	movs	r1, #0
2000267a:	431f      	orrs	r7, r3
2000267c:	3101      	adds	r1, #1
2000267e:	18db      	adds	r3, r3, r3
20002680:	ea45 0c0c 	orr.w	ip, r5, ip
20002684:	416d      	adcs	r5, r5
20002686:	428a      	cmp	r2, r1
20002688:	d1f7      	bne.n	2000267a <UsbRamAlloc+0x52>
2000268a:	b200      	sxth	r0, r0
2000268c:	0180      	lsls	r0, r0, #6
2000268e:	e9c6 7c00 	strd	r7, ip, [r6]
20002692:	f100 40a0 	add.w	r0, r0, #1342177280	@ 0x50000000
20002696:	f500 1080 	add.w	r0, r0, #1048576	@ 0x100000
2000269a:	e8bd 87f0 	ldmia.w	sp!, {r4, r5, r6, r7, r8, r9, sl, pc}
2000269e:	4623      	mov	r3, r4
200026a0:	460d      	mov	r5, r1
200026a2:	3001      	adds	r0, #1
200026a4:	e7ce      	b.n	20002644 <UsbRamAlloc+0x1c>
200026a6:	bf00      	nop
200026a8:	2000aae0 	.word	0x2000aae0

200026ac <UsbRamFree>:
200026ac:	b510      	push	{r4, lr}
200026ae:	b1d0      	cbz	r0, 200026e6 <UsbRamFree+0x3a>
200026b0:	2900      	cmp	r1, #0
200026b2:	dd18      	ble.n	200026e6 <UsbRamFree+0x3a>
200026b4:	2301      	movs	r3, #1
200026b6:	2400      	movs	r4, #0
200026b8:	f100 402f 	add.w	r0, r0, #2936012800	@ 0xaf000000
200026bc:	f500 0070 	add.w	r0, r0, #15728640	@ 0xf00000
200026c0:	2800      	cmp	r0, #0
200026c2:	4a09      	ldr	r2, [pc, #36]	@ (200026e8 <UsbRamFree+0x3c>)
200026c4:	bfb8      	it	lt
200026c6:	303f      	addlt	r0, #63	@ 0x3f
200026c8:	1180      	asrs	r0, r0, #6
200026ca:	313f      	adds	r1, #63	@ 0x3f
200026cc:	4083      	lsls	r3, r0
200026ce:	6810      	ldr	r0, [r2, #0]
200026d0:	1189      	asrs	r1, r1, #6
200026d2:	3401      	adds	r4, #1
200026d4:	42a1      	cmp	r1, r4
200026d6:	ea20 0003 	bic.w	r0, r0, r3
200026da:	ea4f 0343 	mov.w	r3, r3, lsl #1
200026de:	d1f8      	bne.n	200026d2 <UsbRamFree+0x26>
200026e0:	2300      	movs	r3, #0
200026e2:	6010      	str	r0, [r2, #0]
200026e4:	6053      	str	r3, [r2, #4]
200026e6:	bd10      	pop	{r4, pc}
200026e8:	2000aae0 	.word	0x2000aae0

200026ec <UsbHostEpInit>:
200026ec:	e92d 4ff7 	stmdb	sp!, {r0, r1, r2, r4, r5, r6, r7, r8, r9, sl, fp, lr}
200026f0:	460e      	mov	r6, r1
200026f2:	f240 31ff 	movw	r1, #1023	@ 0x3ff
200026f6:	428b      	cmp	r3, r1
200026f8:	bf28      	it	cs
200026fa:	460b      	movcs	r3, r1
200026fc:	469b      	mov	fp, r3
200026fe:	2324      	movs	r3, #36	@ 0x24
20002700:	4343      	muls	r3, r0
20002702:	f8df 90f4 	ldr.w	r9, [pc, #244]	@ 200027f8 <UsbHostEpInit+0x10c>
20002706:	4605      	mov	r5, r0
20002708:	eb09 0003 	add.w	r0, r9, r3
2000270c:	f819 3003 	ldrb.w	r3, [r9, r3]
20002710:	4690      	mov	r8, r2
20002712:	f002 0401 	and.w	r4, r2, #1
20002716:	0852      	lsrs	r2, r2, #1
20002718:	f89d a030 	ldrb.w	sl, [sp, #48]	@ 0x30
2000271c:	f89d 7034 	ldrb.w	r7, [sp, #52]	@ 0x34
20002720:	9201      	str	r2, [sp, #4]
20002722:	b12b      	cbz	r3, 20002730 <UsbHostEpInit+0x44>
20002724:	8941      	ldrh	r1, [r0, #10]
20002726:	4559      	cmp	r1, fp
20002728:	d009      	beq.n	2000273e <UsbHostEpInit+0x52>
2000272a:	6940      	ldr	r0, [r0, #20]
2000272c:	f7ff ffbe 	bl	200026ac <UsbRamFree>
20002730:	4658      	mov	r0, fp
20002732:	f7ff ff79 	bl	20002628 <UsbRamAlloc>
20002736:	2324      	movs	r3, #36	@ 0x24
20002738:	fb03 9305 	mla	r3, r3, r5, r9
2000273c:	6158      	str	r0, [r3, #20]
2000273e:	2124      	movs	r1, #36	@ 0x24
20002740:	2001      	movs	r0, #1
20002742:	4369      	muls	r1, r5
20002744:	ea84 0200 	eor.w	r2, r4, r0
20002748:	eb09 0301 	add.w	r3, r9, r1
2000274c:	715a      	strb	r2, [r3, #5]
2000274e:	9a01      	ldr	r2, [sp, #4]
20002750:	f8a3 b00a 	strh.w	fp, [r3, #10]
20002754:	fab2 f282 	clz	r2, r2
20002758:	0952      	lsrs	r2, r2, #5
2000275a:	f883 a009 	strb.w	sl, [r3, #9]
2000275e:	719e      	strb	r6, [r3, #6]
20002760:	f883 8007 	strb.w	r8, [r3, #7]
20002764:	721a      	strb	r2, [r3, #8]
20002766:	695b      	ldr	r3, [r3, #20]
20002768:	f809 0001 	strb.w	r0, [r9, r1]
2000276c:	f103 432f 	add.w	r3, r3, #2936012800	@ 0xaf000000
20002770:	f503 0370 	add.w	r3, r3, #15728640	@ 0xf00000
20002774:	ea43 638a 	orr.w	r3, r3, sl, lsl #26
20002778:	f043 4320 	orr.w	r3, r3, #2684354560	@ 0xa0000000
2000277c:	b117      	cbz	r7, 20002784 <UsbHostEpInit+0x98>
2000277e:	3f01      	subs	r7, #1
20002780:	ea43 4307 	orr.w	r3, r3, r7, lsl #16
20002784:	2224      	movs	r2, #36	@ 0x24
20002786:	fb02 9905 	mla	r9, r2, r5, r9
2000278a:	f8d9 201c 	ldr.w	r2, [r9, #28]
2000278e:	f00a 0afd 	and.w	sl, sl, #253	@ 0xfd
20002792:	6013      	str	r3, [r2, #0]
20002794:	f44f 7380 	mov.w	r3, #256	@ 0x100
20002798:	f1ba 0f01 	cmp.w	sl, #1
2000279c:	bf0c      	ite	eq
2000279e:	4a13      	ldreq	r2, [pc, #76]	@ (200027ec <UsbHostEpInit+0x100>)
200027a0:	4a13      	ldrne	r2, [pc, #76]	@ (200027f0 <UsbHostEpInit+0x104>)
200027a2:	64d3      	str	r3, [r2, #76]	@ 0x4c
200027a4:	b1fd      	cbz	r5, 200027e6 <UsbHostEpInit+0xfa>
200027a6:	9b01      	ldr	r3, [sp, #4]
200027a8:	0664      	lsls	r4, r4, #25
200027aa:	ea44 4403 	orr.w	r4, r4, r3, lsl #16
200027ae:	f7ff fe31 	bl	20002414 <UsbGetDevSpeed>
200027b2:	2e05      	cmp	r6, #5
200027b4:	ea44 0406 	orr.w	r4, r4, r6
200027b8:	f04f 023c 	mov.w	r2, #60	@ 0x3c
200027bc:	bf28      	it	cs
200027be:	2600      	movcs	r6, #0
200027c0:	4b0c      	ldr	r3, [pc, #48]	@ (200027f4 <UsbHostEpInit+0x108>)
200027c2:	fb02 3306 	mla	r3, r2, r6, r3
200027c6:	789b      	ldrb	r3, [r3, #2]
200027c8:	4a08      	ldr	r2, [pc, #32]	@ (200027ec <UsbHostEpInit+0x100>)
200027ca:	4283      	cmp	r3, r0
200027cc:	f105 53a0 	add.w	r3, r5, #335544320	@ 0x14000000
200027d0:	f503 2388 	add.w	r3, r3, #278528	@ 0x44000
200027d4:	ea4f 0383 	mov.w	r3, r3, lsl #2
200027d8:	bf18      	it	ne
200027da:	f044 6480 	orrne.w	r4, r4, #67108864	@ 0x4000000
200027de:	601c      	str	r4, [r3, #0]
200027e0:	2301      	movs	r3, #1
200027e2:	40ab      	lsls	r3, r5
200027e4:	6553      	str	r3, [r2, #84]	@ 0x54
200027e6:	b003      	add	sp, #12
200027e8:	e8bd 8ff0 	ldmia.w	sp!, {r4, r5, r6, r7, r8, r9, sl, fp, pc}
200027ec:	50112000 	.word	0x50112000
200027f0:	50113000 	.word	0x50113000
200027f4:	2003229e 	.word	0x2003229e
200027f8:	20031868 	.word	0x20031868

200027fc <UsbHostEpOpen>:
200027fc:	b5f7      	push	{r0, r1, r2, r4, r5, r6, r7, lr}
200027fe:	78cd      	ldrb	r5, [r1, #3]
20002800:	4606      	mov	r6, r0
20002802:	f005 0503 	and.w	r5, r5, #3
20002806:	4628      	mov	r0, r5
20002808:	f7ff fc44 	bl	20002094 <UsbHostEpAlloc>
2000280c:	4607      	mov	r7, r0
2000280e:	788c      	ldrb	r4, [r1, #2]
20002810:	888b      	ldrh	r3, [r1, #4]
20002812:	f084 0280 	eor.w	r2, r4, #128	@ 0x80
20002816:	7989      	ldrb	r1, [r1, #6]
20002818:	0064      	lsls	r4, r4, #1
2000281a:	f004 041e 	and.w	r4, r4, #30
2000281e:	e9cd 5100 	strd	r5, r1, [sp]
20002822:	f3c3 030a 	ubfx	r3, r3, #0, #11
20002826:	4631      	mov	r1, r6
20002828:	ea44 12d2 	orr.w	r2, r4, r2, lsr #7
2000282c:	f7ff ff5e 	bl	200026ec <UsbHostEpInit>
20002830:	4638      	mov	r0, r7
20002832:	b003      	add	sp, #12
20002834:	bdf0      	pop	{r4, r5, r6, r7, pc}

20002836 <UsbHostOpenEpPair>:
20002836:	e92d 4ef0 	stmdb	sp!, {r4, r5, r6, r7, r9, sl, fp, lr}
2000283a:	4607      	mov	r7, r0
2000283c:	e9dd 5909 	ldrd	r5, r9, [sp, #36]	@ 0x24
20002840:	460c      	mov	r4, r1
20002842:	4692      	mov	sl, r2
20002844:	469b      	mov	fp, r3
20002846:	2600      	movs	r6, #0
20002848:	45b2      	cmp	sl, r6
2000284a:	dc02      	bgt.n	20002852 <UsbHostOpenEpPair+0x1c>
2000284c:	2001      	movs	r0, #1
2000284e:	e8bd 8ef0 	ldmia.w	sp!, {r4, r5, r6, r7, r9, sl, fp, pc}
20002852:	7863      	ldrb	r3, [r4, #1]
20002854:	2b05      	cmp	r3, #5
20002856:	d125      	bne.n	200028a4 <UsbHostOpenEpPair+0x6e>
20002858:	78e0      	ldrb	r0, [r4, #3]
2000285a:	f010 0003 	ands.w	r0, r0, #3
2000285e:	d0f6      	beq.n	2000284e <UsbHostOpenEpPair+0x18>
20002860:	4621      	mov	r1, r4
20002862:	4638      	mov	r0, r7
20002864:	f7ff ffca 	bl	200027fc <UsbHostEpOpen>
20002868:	78a1      	ldrb	r1, [r4, #2]
2000286a:	88a3      	ldrh	r3, [r4, #4]
2000286c:	f081 0280 	eor.w	r2, r1, #128	@ 0x80
20002870:	0049      	lsls	r1, r1, #1
20002872:	f001 011e 	and.w	r1, r1, #30
20002876:	ea41 11d2 	orr.w	r1, r1, r2, lsr #7
2000287a:	09d2      	lsrs	r2, r2, #7
2000287c:	f3c3 030a 	ubfx	r3, r3, #0, #11
20002880:	d10a      	bne.n	20002898 <UsbHostOpenEpPair+0x62>
20002882:	9a08      	ldr	r2, [sp, #32]
20002884:	7011      	strb	r1, [r2, #0]
20002886:	f1b9 0f00 	cmp.w	r9, #0
2000288a:	d001      	beq.n	20002890 <UsbHostOpenEpPair+0x5a>
2000288c:	f8a9 3000 	strh.w	r3, [r9]
20002890:	7823      	ldrb	r3, [r4, #0]
20002892:	3601      	adds	r6, #1
20002894:	441c      	add	r4, r3
20002896:	e7d7      	b.n	20002848 <UsbHostOpenEpPair+0x12>
20002898:	f88b 1000 	strb.w	r1, [fp]
2000289c:	2d00      	cmp	r5, #0
2000289e:	d0f7      	beq.n	20002890 <UsbHostOpenEpPair+0x5a>
200028a0:	802b      	strh	r3, [r5, #0]
200028a2:	e7f5      	b.n	20002890 <UsbHostOpenEpPair+0x5a>
200028a4:	2000      	movs	r0, #0
200028a6:	e7d2      	b.n	2000284e <UsbHostOpenEpPair+0x18>

200028a8 <UsbHostHidOpen>:
200028a8:	e92d 4ff0 	stmdb	sp!, {r4, r5, r6, r7, r8, r9, sl, fp, lr}
200028ac:	794b      	ldrb	r3, [r1, #5]
200028ae:	4682      	mov	sl, r0
200028b0:	2b03      	cmp	r3, #3
200028b2:	460e      	mov	r6, r1
200028b4:	b087      	sub	sp, #28
200028b6:	d003      	beq.n	200028c0 <UsbHostHidOpen+0x18>
200028b8:	2000      	movs	r0, #0
200028ba:	b007      	add	sp, #28
200028bc:	e8bd 8ff0 	ldmia.w	sp!, {r4, r5, r6, r7, r8, r9, sl, fp, pc}
200028c0:	780b      	ldrb	r3, [r1, #0]
200028c2:	4293      	cmp	r3, r2
200028c4:	d8f8      	bhi.n	200028b8 <UsbHostHidOpen+0x10>
200028c6:	eb01 0903 	add.w	r9, r1, r3
200028ca:	f899 4001 	ldrb.w	r4, [r9, #1]
200028ce:	2c21      	cmp	r4, #33	@ 0x21
200028d0:	d1f2      	bne.n	200028b8 <UsbHostHidOpen+0x10>
200028d2:	f811 b003 	ldrb.w	fp, [r1, r3]
200028d6:	9205      	str	r2, [sp, #20]
200028d8:	eb03 070b 	add.w	r7, r3, fp
200028dc:	4297      	cmp	r7, r2
200028de:	dceb      	bgt.n	200028b8 <UsbHostHidOpen+0x10>
200028e0:	f7ff fc44 	bl	2000216c <UsbHostHidNewItf>
200028e4:	28ff      	cmp	r0, #255	@ 0xff
200028e6:	4680      	mov	r8, r0
200028e8:	d0e6      	beq.n	200028b8 <UsbHostHidOpen+0x10>
200028ea:	2484      	movs	r4, #132	@ 0x84
200028ec:	4344      	muls	r4, r0
200028ee:	4d1b      	ldr	r5, [pc, #108]	@ (2000295c <UsbHostHidOpen+0xb4>)
200028f0:	f899 3006 	ldrb.w	r3, [r9, #6]
200028f4:	1929      	adds	r1, r5, r4
200028f6:	730b      	strb	r3, [r1, #12]
200028f8:	f899 0008 	ldrb.w	r0, [r9, #8]
200028fc:	f899 3007 	ldrb.w	r3, [r9, #7]
20002900:	9a05      	ldr	r2, [sp, #20]
20002902:	ea43 2300 	orr.w	r3, r3, r0, lsl #8
20002906:	81cb      	strh	r3, [r1, #14]
20002908:	7931      	ldrb	r1, [r6, #4]
2000290a:	ebc1 00c1 	rsb	r0, r1, r1, lsl #3
2000290e:	4407      	add	r7, r0
20002910:	4297      	cmp	r7, r2
20002912:	d8d1      	bhi.n	200028b8 <UsbHostHidOpen+0x10>
20002914:	f104 0208 	add.w	r2, r4, #8
20002918:	442a      	add	r2, r5
2000291a:	1da3      	adds	r3, r4, #6
2000291c:	9202      	str	r2, [sp, #8]
2000291e:	f104 020a 	add.w	r2, r4, #10
20002922:	3405      	adds	r4, #5
20002924:	442a      	add	r2, r5
20002926:	442c      	add	r4, r5
20002928:	9201      	str	r2, [sp, #4]
2000292a:	4650      	mov	r0, sl
2000292c:	460a      	mov	r2, r1
2000292e:	9400      	str	r4, [sp, #0]
20002930:	442b      	add	r3, r5
20002932:	eb09 010b 	add.w	r1, r9, fp
20002936:	f7ff ff7e 	bl	20002836 <UsbHostOpenEpPair>
2000293a:	2800      	cmp	r0, #0
2000293c:	d0bc      	beq.n	200028b8 <UsbHostHidOpen+0x10>
2000293e:	2284      	movs	r2, #132	@ 0x84
20002940:	79b3      	ldrb	r3, [r6, #6]
20002942:	fb02 5508 	mla	r5, r2, r8, r5
20002946:	2b01      	cmp	r3, #1
20002948:	bf14      	ite	ne
2000294a:	2300      	movne	r3, #0
2000294c:	79f3      	ldrbeq	r3, [r6, #7]
2000294e:	b2b8      	uxth	r0, r7
20002950:	70eb      	strb	r3, [r5, #3]
20002952:	fab3 f383 	clz	r3, r3
20002956:	095b      	lsrs	r3, r3, #5
20002958:	712b      	strb	r3, [r5, #4]
2000295a:	e7ae      	b.n	200028ba <UsbHostHidOpen+0x12>
2000295c:	20031cf0 	.word	0x20031cf0

20002960 <UsbHostEp0Open>:
20002960:	b507      	push	{r0, r1, r2, lr}
20002962:	2200      	movs	r2, #0
20002964:	460b      	mov	r3, r1
20002966:	e9cd 2200 	strd	r2, r2, [sp]
2000296a:	4601      	mov	r1, r0
2000296c:	4610      	mov	r0, r2
2000296e:	f7ff febd 	bl	200026ec <UsbHostEpInit>
20002972:	b003      	add	sp, #12
20002974:	f85d fb04 	ldr.w	pc, [sp], #4

20002978 <UsbHostXferStart>:
20002978:	e92d 43f7 	stmdb	sp!, {r0, r1, r2, r4, r5, r6, r7, r8, r9, lr}
2000297c:	4605      	mov	r5, r0
2000297e:	460c      	mov	r4, r1
20002980:	4690      	mov	r8, r2
20002982:	4699      	mov	r9, r3
20002984:	f7ff faf0 	bl	20001f68 <UsbHostDevEp>
20002988:	28ff      	cmp	r0, #255	@ 0xff
2000298a:	4607      	mov	r7, r0
2000298c:	d048      	beq.n	20002a20 <UsbHostXferStart+0xa8>
2000298e:	f04f 0c24 	mov.w	ip, #36	@ 0x24
20002992:	4e25      	ldr	r6, [pc, #148]	@ (20002a28 <UsbHostXferStart+0xb0>)
20002994:	fb0c 6c00 	mla	ip, ip, r0, r6
20002998:	f89c 3007 	ldrb.w	r3, [ip, #7]
2000299c:	42a3      	cmp	r3, r4
2000299e:	d00a      	beq.n	200029b6 <UsbHostXferStart+0x3e>
200029a0:	2200      	movs	r2, #0
200029a2:	f8bc 300a 	ldrh.w	r3, [ip, #10]
200029a6:	9201      	str	r2, [sp, #4]
200029a8:	f89c 2009 	ldrb.w	r2, [ip, #9]
200029ac:	4629      	mov	r1, r5
200029ae:	9200      	str	r2, [sp, #0]
200029b0:	4622      	mov	r2, r4
200029b2:	f7ff fe9b 	bl	200026ec <UsbHostEpInit>
200029b6:	464a      	mov	r2, r9
200029b8:	4641      	mov	r1, r8
200029ba:	4638      	mov	r0, r7
200029bc:	f89d 3028 	ldrb.w	r3, [sp, #40]	@ 0x28
200029c0:	f7ff fdba 	bl	20002538 <UsbXferStart>
200029c4:	bb67      	cbnz	r7, 20002a20 <UsbHostXferStart+0xa8>
200029c6:	4b19      	ldr	r3, [pc, #100]	@ (20002a2c <UsbHostXferStart+0xb4>)
200029c8:	0864      	lsrs	r4, r4, #1
200029ca:	ea45 4404 	orr.w	r4, r5, r4, lsl #16
200029ce:	601c      	str	r4, [r3, #0]
200029d0:	69f3      	ldr	r3, [r6, #28]
200029d2:	213c      	movs	r1, #60	@ 0x3c
200029d4:	681a      	ldr	r2, [r3, #0]
200029d6:	7973      	ldrb	r3, [r6, #5]
200029d8:	f002 42e0 	and.w	r2, r2, #1879048192	@ 0x70000000
200029dc:	2b00      	cmp	r3, #0
200029de:	bf0c      	ite	eq
200029e0:	2304      	moveq	r3, #4
200029e2:	2308      	movne	r3, #8
200029e4:	431a      	orrs	r2, r3
200029e6:	f7ff fd15 	bl	20002414 <UsbGetDevSpeed>
200029ea:	2d05      	cmp	r5, #5
200029ec:	bf28      	it	cs
200029ee:	2500      	movcs	r5, #0
200029f0:	4b0f      	ldr	r3, [pc, #60]	@ (20002a30 <UsbHostXferStart+0xb8>)
200029f2:	fb01 3305 	mla	r3, r1, r5, r3
200029f6:	789b      	ldrb	r3, [r3, #2]
200029f8:	4283      	cmp	r3, r0
200029fa:	f442 4306 	orr.w	r3, r2, #34304	@ 0x8600
200029fe:	7a72      	ldrb	r2, [r6, #9]
20002a00:	bf18      	it	ne
20002a02:	f043 0340 	orrne.w	r3, r3, #64	@ 0x40
20002a06:	f002 02fd 	and.w	r2, r2, #253	@ 0xfd
20002a0a:	2a01      	cmp	r2, #1
20002a0c:	4a07      	ldr	r2, [pc, #28]	@ (20002a2c <UsbHostXferStart+0xb4>)
20002a0e:	bf08      	it	eq
20002a10:	f443 7380 	orreq.w	r3, r3, #256	@ 0x100
20002a14:	64d3      	str	r3, [r2, #76]	@ 0x4c
20002a16:	f043 0301 	orr.w	r3, r3, #1
20002a1a:	f7ff fd03 	bl	20002424 <UsbDelay12>
20002a1e:	64d3      	str	r3, [r2, #76]	@ 0x4c
20002a20:	b003      	add	sp, #12
20002a22:	e8bd 83f0 	ldmia.w	sp!, {r4, r5, r6, r7, r8, r9, pc}
20002a26:	bf00      	nop
20002a28:	20031868 	.word	0x20031868
20002a2c:	50110000 	.word	0x50110000
20002a30:	2003229e 	.word	0x2003229e

20002a34 <UsbHostSetupComp>:
20002a34:	b573      	push	{r0, r1, r4, r5, r6, lr}
20002a36:	4604      	mov	r4, r0
20002a38:	461d      	mov	r5, r3
20002a3a:	4611      	mov	r1, r2
20002a3c:	b122      	cbz	r2, 20002a48 <UsbHostSetupComp+0x14>
20002a3e:	b002      	add	sp, #8
20002a40:	e8bd 4070 	ldmia.w	sp!, {r4, r5, r6, lr}
20002a44:	f7ff bad2 	b.w	20001fec <UsbHostSetupIdle>
20002a48:	4a11      	ldr	r2, [pc, #68]	@ (20002a90 <UsbHostSetupComp+0x5c>)
20002a4a:	7813      	ldrb	r3, [r2, #0]
20002a4c:	2b02      	cmp	r3, #2
20002a4e:	d013      	beq.n	20002a78 <UsbHostSetupComp+0x44>
20002a50:	2b03      	cmp	r3, #3
20002a52:	d0f4      	beq.n	20002a3e <UsbHostSetupComp+0xa>
20002a54:	2b01      	cmp	r3, #1
20002a56:	d10d      	bne.n	20002a74 <UsbHostSetupComp+0x40>
20002a58:	4e0e      	ldr	r6, [pc, #56]	@ (20002a94 <UsbHostSetupComp+0x60>)
20002a5a:	88f3      	ldrh	r3, [r6, #6]
20002a5c:	b163      	cbz	r3, 20002a78 <UsbHostSetupComp+0x44>
20002a5e:	2502      	movs	r5, #2
20002a60:	7834      	ldrb	r4, [r6, #0]
20002a62:	7015      	strb	r5, [r2, #0]
20002a64:	4a0c      	ldr	r2, [pc, #48]	@ (20002a98 <UsbHostSetupComp+0x64>)
20002a66:	9100      	str	r1, [sp, #0]
20002a68:	09e4      	lsrs	r4, r4, #7
20002a6a:	6812      	ldr	r2, [r2, #0]
20002a6c:	f084 0101 	eor.w	r1, r4, #1
20002a70:	f7ff ff82 	bl	20002978 <UsbHostXferStart>
20002a74:	b002      	add	sp, #8
20002a76:	bd70      	pop	{r4, r5, r6, pc}
20002a78:	4b08      	ldr	r3, [pc, #32]	@ (20002a9c <UsbHostSetupComp+0x68>)
20002a7a:	4620      	mov	r0, r4
20002a7c:	801d      	strh	r5, [r3, #0]
20002a7e:	2303      	movs	r3, #3
20002a80:	7013      	strb	r3, [r2, #0]
20002a82:	4b04      	ldr	r3, [pc, #16]	@ (20002a94 <UsbHostSetupComp+0x60>)
20002a84:	7819      	ldrb	r1, [r3, #0]
20002a86:	2300      	movs	r3, #0
20002a88:	09c9      	lsrs	r1, r1, #7
20002a8a:	461a      	mov	r2, r3
20002a8c:	9300      	str	r3, [sp, #0]
20002a8e:	e7ef      	b.n	20002a70 <UsbHostSetupComp+0x3c>
20002a90:	20032a49 	.word	0x20032a49
20002a94:	200323ce 	.word	0x200323ce
20002a98:	2003226c 	.word	0x2003226c
20002a9c:	200323cc 	.word	0x200323cc

20002aa0 <UsbHostHidInxSend>:
20002aa0:	e92d 41f3 	stmdb	sp!, {r0, r1, r4, r5, r6, r7, r8, lr}
20002aa4:	4604      	mov	r4, r0
20002aa6:	f7ff fb21 	bl	200020ec <UsbHostHidInxIsMounted>
20002aaa:	b1c0      	cbz	r0, 20002ade <UsbHostHidInxSend+0x3e>
20002aac:	2384      	movs	r3, #132	@ 0x84
20002aae:	435c      	muls	r4, r3
20002ab0:	4f0c      	ldr	r7, [pc, #48]	@ (20002ae4 <UsbHostHidInxSend+0x44>)
20002ab2:	1939      	adds	r1, r7, r4
20002ab4:	798d      	ldrb	r5, [r1, #6]
20002ab6:	b195      	cbz	r5, 20002ade <UsbHostHidInxSend+0x3e>
20002ab8:	f891 3053 	ldrb.w	r3, [r1, #83]	@ 0x53
20002abc:	f003 08ff 	and.w	r8, r3, #255	@ 0xff
20002ac0:	b16b      	cbz	r3, 20002ade <UsbHostHidInxSend+0x3e>
20002ac2:	784e      	ldrb	r6, [r1, #1]
20002ac4:	4629      	mov	r1, r5
20002ac6:	4630      	mov	r0, r6
20002ac8:	f7ff fa80 	bl	20001fcc <UsbHostIsBusy>
20002acc:	b938      	cbnz	r0, 20002ade <UsbHostHidInxSend+0x3e>
20002ace:	3474      	adds	r4, #116	@ 0x74
20002ad0:	9000      	str	r0, [sp, #0]
20002ad2:	4643      	mov	r3, r8
20002ad4:	4629      	mov	r1, r5
20002ad6:	4630      	mov	r0, r6
20002ad8:	193a      	adds	r2, r7, r4
20002ada:	f7ff ff4d 	bl	20002978 <UsbHostXferStart>
20002ade:	b002      	add	sp, #8
20002ae0:	e8bd 81f0 	ldmia.w	sp!, {r4, r5, r6, r7, r8, pc}
20002ae4:	20031cf0 	.word	0x20031cf0

20002ae8 <UsbHostHidAllSend>:
20002ae8:	b508      	push	{r3, lr}
20002aea:	2000      	movs	r0, #0
20002aec:	f7ff ffd8 	bl	20002aa0 <UsbHostHidInxSend>
20002af0:	2001      	movs	r0, #1
20002af2:	f7ff ffd5 	bl	20002aa0 <UsbHostHidInxSend>
20002af6:	2002      	movs	r0, #2
20002af8:	f7ff ffd2 	bl	20002aa0 <UsbHostHidInxSend>
20002afc:	e8bd 4008 	ldmia.w	sp!, {r3, lr}
20002b00:	2003      	movs	r0, #3
20002b02:	f7ff bfcd 	b.w	20002aa0 <UsbHostHidInxSend>

20002b06 <UsbHostHidSched>:
20002b06:	f7ff bfef 	b.w	20002ae8 <UsbHostHidAllSend>
	...

20002b0c <UsbHostHidInxRecv>:
20002b0c:	e92d 41f3 	stmdb	sp!, {r0, r1, r4, r5, r6, r7, r8, lr}
20002b10:	4604      	mov	r4, r0
20002b12:	f7ff faeb 	bl	200020ec <UsbHostHidInxIsMounted>
20002b16:	b1b0      	cbz	r0, 20002b46 <UsbHostHidInxRecv+0x3a>
20002b18:	2384      	movs	r3, #132	@ 0x84
20002b1a:	435c      	muls	r4, r3
20002b1c:	f8df 802c 	ldr.w	r8, [pc, #44]	@ 20002b4c <UsbHostHidInxRecv+0x40>
20002b20:	eb08 0604 	add.w	r6, r8, r4
20002b24:	7975      	ldrb	r5, [r6, #5]
20002b26:	b175      	cbz	r5, 20002b46 <UsbHostHidInxRecv+0x3a>
20002b28:	7877      	ldrb	r7, [r6, #1]
20002b2a:	4629      	mov	r1, r5
20002b2c:	4638      	mov	r0, r7
20002b2e:	f7ff fa4d 	bl	20001fcc <UsbHostIsBusy>
20002b32:	b940      	cbnz	r0, 20002b46 <UsbHostHidInxRecv+0x3a>
20002b34:	3454      	adds	r4, #84	@ 0x54
20002b36:	8933      	ldrh	r3, [r6, #8]
20002b38:	4629      	mov	r1, r5
20002b3a:	9000      	str	r0, [sp, #0]
20002b3c:	eb08 0204 	add.w	r2, r8, r4
20002b40:	4638      	mov	r0, r7
20002b42:	f7ff ff19 	bl	20002978 <UsbHostXferStart>
20002b46:	b002      	add	sp, #8
20002b48:	e8bd 81f0 	ldmia.w	sp!, {r4, r5, r6, r7, r8, pc}
20002b4c:	20031cf0 	.word	0x20031cf0

20002b50 <UsbHostHidAllRecv>:
20002b50:	b508      	push	{r3, lr}
20002b52:	2000      	movs	r0, #0
20002b54:	f7ff ffda 	bl	20002b0c <UsbHostHidInxRecv>
20002b58:	2001      	movs	r0, #1
20002b5a:	f7ff ffd7 	bl	20002b0c <UsbHostHidInxRecv>
20002b5e:	2002      	movs	r0, #2
20002b60:	f7ff ffd4 	bl	20002b0c <UsbHostHidInxRecv>
20002b64:	e8bd 4008 	ldmia.w	sp!, {r3, lr}
20002b68:	2003      	movs	r0, #3
20002b6a:	f7ff bfcf 	b.w	20002b0c <UsbHostHidInxRecv>

20002b6e <UsbHostHidSof>:
20002b6e:	b508      	push	{r3, lr}
20002b70:	f7ff ffee 	bl	20002b50 <UsbHostHidAllRecv>
20002b74:	f7ff ffb8 	bl	20002ae8 <UsbHostHidAllSend>
20002b78:	e8bd 4008 	ldmia.w	sp!, {r3, lr}
20002b7c:	f7ff bb20 	b.w	200021c0 <UsbHostHidRepKey>

20002b80 <UsbHostHidComp>:
20002b80:	e92d 47ff 	stmdb	sp!, {r0, r1, r2, r3, r4, r5, r6, r7, r8, r9, sl, lr}
20002b84:	461e      	mov	r6, r3
20002b86:	4614      	mov	r4, r2
20002b88:	2a00      	cmp	r2, #0
20002b8a:	f040 80e9 	bne.w	20002d60 <UsbHostHidComp+0x1e0>
20002b8e:	f7ff fad3 	bl	20002138 <UsbHostHidFindAddr>
20002b92:	28ff      	cmp	r0, #255	@ 0xff
20002b94:	4680      	mov	r8, r0
20002b96:	f000 80a1 	beq.w	20002cdc <UsbHostHidComp+0x15c>
20002b9a:	2584      	movs	r5, #132	@ 0x84
20002b9c:	4345      	muls	r5, r0
20002b9e:	4f71      	ldr	r7, [pc, #452]	@ (20002d64 <UsbHostHidComp+0x1e4>)
20002ba0:	197b      	adds	r3, r7, r5
20002ba2:	795a      	ldrb	r2, [r3, #5]
20002ba4:	428a      	cmp	r2, r1
20002ba6:	f040 80d8 	bne.w	20002d5a <UsbHostHidComp+0x1da>
20002baa:	f893 9003 	ldrb.w	r9, [r3, #3]
20002bae:	b2f2      	uxtb	r2, r6
20002bb0:	f1b9 0f01 	cmp.w	r9, #1
20002bb4:	f883 2052 	strb.w	r2, [r3, #82]	@ 0x52
20002bb8:	f040 80a6 	bne.w	20002d08 <UsbHostHidComp+0x188>
20002bbc:	3554      	adds	r5, #84	@ 0x54
20002bbe:	2e07      	cmp	r6, #7
20002bc0:	eb05 0a07 	add.w	sl, r5, r7
20002bc4:	f200 808e 	bhi.w	20002ce4 <UsbHostHidComp+0x164>
20002bc8:	1970      	adds	r0, r6, r5
20002bca:	4621      	mov	r1, r4
20002bcc:	f1c6 0208 	rsb	r2, r6, #8
20002bd0:	4438      	add	r0, r7
20002bd2:	f006 fb6b 	bl	200092ac <memset>
20002bd6:	4632      	mov	r2, r6
20002bd8:	4651      	mov	r1, sl
20002bda:	4863      	ldr	r0, [pc, #396]	@ (20002d68 <UsbHostHidComp+0x1e8>)
20002bdc:	f006 fb38 	bl	20009250 <memcmp>
20002be0:	2800      	cmp	r0, #0
20002be2:	d071      	beq.n	20002cc8 <UsbHostHidComp+0x148>
20002be4:	f10a 0301 	add.w	r3, sl, #1
20002be8:	f10a 0207 	add.w	r2, sl, #7
20002bec:	f813 6f01 	ldrb.w	r6, [r3, #1]!
20002bf0:	2e00      	cmp	r6, #0
20002bf2:	f000 8085 	beq.w	20002d00 <UsbHostHidComp+0x180>
20002bf6:	4631      	mov	r1, r6
20002bf8:	485b      	ldr	r0, [pc, #364]	@ (20002d68 <UsbHostHidComp+0x1e8>)
20002bfa:	f7ff fad5 	bl	200021a8 <UsbHostHidFindKey>
20002bfe:	b9e0      	cbnz	r0, 20002c3a <UsbHostHidComp+0xba>
20002c00:	5d7b      	ldrb	r3, [r7, r5]
20002c02:	f013 0f11 	tst.w	r3, #17
20002c06:	d06f      	beq.n	20002ce8 <UsbHostHidComp+0x168>
20002c08:	2e03      	cmp	r6, #3
20002c0a:	d96f      	bls.n	20002cec <UsbHostHidComp+0x16c>
20002c0c:	2e1d      	cmp	r6, #29
20002c0e:	d86b      	bhi.n	20002ce8 <UsbHostHidComp+0x168>
20002c10:	1ef0      	subs	r0, r6, #3
20002c12:	b2c0      	uxtb	r0, r0
20002c14:	ea46 2303 	orr.w	r3, r6, r3, lsl #8
20002c18:	ea43 4300 	orr.w	r3, r3, r0, lsl #16
20002c1c:	4669      	mov	r1, sp
20002c1e:	4853      	ldr	r0, [pc, #332]	@ (20002d6c <UsbHostHidComp+0x1ec>)
20002c20:	9300      	str	r3, [sp, #0]
20002c22:	f001 fdca 	bl	200047ba <EventRingWrite>
20002c26:	4b52      	ldr	r3, [pc, #328]	@ (20002d70 <UsbHostHidComp+0x1f0>)
20002c28:	4a52      	ldr	r2, [pc, #328]	@ (20002d74 <UsbHostHidComp+0x1f4>)
20002c2a:	6a9b      	ldr	r3, [r3, #40]	@ 0x28
20002c2c:	f503 23c3 	add.w	r3, r3, #399360	@ 0x61800
20002c30:	f503 7320 	add.w	r3, r3, #640	@ 0x280
20002c34:	6013      	str	r3, [r2, #0]
20002c36:	4b50      	ldr	r3, [pc, #320]	@ (20002d78 <UsbHostHidComp+0x1f8>)
20002c38:	701e      	strb	r6, [r3, #0]
20002c3a:	4d50      	ldr	r5, [pc, #320]	@ (20002d7c <UsbHostHidComp+0x1fc>)
20002c3c:	f815 1f01 	ldrb.w	r1, [r5, #1]!
20002c40:	b171      	cbz	r1, 20002c60 <UsbHostHidComp+0xe0>
20002c42:	4650      	mov	r0, sl
20002c44:	f7ff fab0 	bl	200021a8 <UsbHostHidFindKey>
20002c48:	b950      	cbnz	r0, 20002c60 <UsbHostHidComp+0xe0>
20002c4a:	f89a 3000 	ldrb.w	r3, [sl]
20002c4e:	4847      	ldr	r0, [pc, #284]	@ (20002d6c <UsbHostHidComp+0x1ec>)
20002c50:	ea41 2103 	orr.w	r1, r1, r3, lsl #8
20002c54:	f041 7180 	orr.w	r1, r1, #16777216	@ 0x1000000
20002c58:	9100      	str	r1, [sp, #0]
20002c5a:	4669      	mov	r1, sp
20002c5c:	f001 fdad 	bl	200047ba <EventRingWrite>
20002c60:	3401      	adds	r4, #1
20002c62:	b2e4      	uxtb	r4, r4
20002c64:	2c06      	cmp	r4, #6
20002c66:	d1e9      	bne.n	20002c3c <UsbHostHidComp+0xbc>
20002c68:	25e0      	movs	r5, #224	@ 0xe0
20002c6a:	4c3f      	ldr	r4, [pc, #252]	@ (20002d68 <UsbHostHidComp+0x1e8>)
20002c6c:	f89a 3000 	ldrb.w	r3, [sl]
20002c70:	ea13 0f09 	tst.w	r3, r9
20002c74:	d00a      	beq.n	20002c8c <UsbHostHidComp+0x10c>
20002c76:	7822      	ldrb	r2, [r4, #0]
20002c78:	ea19 0f02 	tst.w	r9, r2
20002c7c:	d106      	bne.n	20002c8c <UsbHostHidComp+0x10c>
20002c7e:	ea45 2303 	orr.w	r3, r5, r3, lsl #8
20002c82:	4669      	mov	r1, sp
20002c84:	4839      	ldr	r0, [pc, #228]	@ (20002d6c <UsbHostHidComp+0x1ec>)
20002c86:	9300      	str	r3, [sp, #0]
20002c88:	f001 fd97 	bl	200047ba <EventRingWrite>
20002c8c:	f89a 3000 	ldrb.w	r3, [sl]
20002c90:	ea13 0f09 	tst.w	r3, r9
20002c94:	d10c      	bne.n	20002cb0 <UsbHostHidComp+0x130>
20002c96:	7822      	ldrb	r2, [r4, #0]
20002c98:	ea19 0f02 	tst.w	r9, r2
20002c9c:	d008      	beq.n	20002cb0 <UsbHostHidComp+0x130>
20002c9e:	ea45 2303 	orr.w	r3, r5, r3, lsl #8
20002ca2:	f043 7380 	orr.w	r3, r3, #16777216	@ 0x1000000
20002ca6:	4669      	mov	r1, sp
20002ca8:	4830      	ldr	r0, [pc, #192]	@ (20002d6c <UsbHostHidComp+0x1ec>)
20002caa:	9300      	str	r3, [sp, #0]
20002cac:	f001 fd85 	bl	200047ba <EventRingWrite>
20002cb0:	3501      	adds	r5, #1
20002cb2:	ea4f 0949 	mov.w	r9, r9, lsl #1
20002cb6:	2de8      	cmp	r5, #232	@ 0xe8
20002cb8:	fa5f f989 	uxtb.w	r9, r9
20002cbc:	d1d6      	bne.n	20002c6c <UsbHostHidComp+0xec>
20002cbe:	2208      	movs	r2, #8
20002cc0:	4651      	mov	r1, sl
20002cc2:	4829      	ldr	r0, [pc, #164]	@ (20002d68 <UsbHostHidComp+0x1e8>)
20002cc4:	f7ff fafa 	bl	200022bc <UsbMemcpy>
20002cc8:	2384      	movs	r3, #132	@ 0x84
20002cca:	2200      	movs	r2, #0
20002ccc:	fb03 7308 	mla	r3, r3, r8, r7
20002cd0:	f883 2052 	strb.w	r2, [r3, #82]	@ 0x52
20002cd4:	4640      	mov	r0, r8
20002cd6:	f7ff ff19 	bl	20002b0c <UsbHostHidInxRecv>
20002cda:	2401      	movs	r4, #1
20002cdc:	4620      	mov	r0, r4
20002cde:	b004      	add	sp, #16
20002ce0:	e8bd 87f0 	ldmia.w	sp!, {r4, r5, r6, r7, r8, r9, sl, pc}
20002ce4:	2608      	movs	r6, #8
20002ce6:	e776      	b.n	20002bd6 <UsbHostHidComp+0x56>
20002ce8:	2e67      	cmp	r6, #103	@ 0x67
20002cea:	d893      	bhi.n	20002c14 <UsbHostHidComp+0x94>
20002cec:	f003 0222 	and.w	r2, r3, #34	@ 0x22
20002cf0:	3a00      	subs	r2, #0
20002cf2:	bf18      	it	ne
20002cf4:	2201      	movne	r2, #1
20002cf6:	4922      	ldr	r1, [pc, #136]	@ (20002d80 <UsbHostHidComp+0x200>)
20002cf8:	eb02 0246 	add.w	r2, r2, r6, lsl #1
20002cfc:	5c88      	ldrb	r0, [r1, r2]
20002cfe:	e789      	b.n	20002c14 <UsbHostHidComp+0x94>
20002d00:	429a      	cmp	r2, r3
20002d02:	f47f af73 	bne.w	20002bec <UsbHostHidComp+0x6c>
20002d06:	e796      	b.n	20002c36 <UsbHostHidComp+0xb6>
20002d08:	f1b9 0f02 	cmp.w	r9, #2
20002d0c:	d1e2      	bne.n	20002cd4 <UsbHostHidComp+0x154>
20002d0e:	3554      	adds	r5, #84	@ 0x54
20002d10:	2e04      	cmp	r6, #4
20002d12:	eb05 0907 	add.w	r9, r5, r7
20002d16:	d806      	bhi.n	20002d26 <UsbHostHidComp+0x1a6>
20002d18:	1970      	adds	r0, r6, r5
20002d1a:	4621      	mov	r1, r4
20002d1c:	f1c6 0205 	rsb	r2, r6, #5
20002d20:	4438      	add	r0, r7
20002d22:	f006 fac3 	bl	200092ac <memset>
20002d26:	2205      	movs	r2, #5
20002d28:	4649      	mov	r1, r9
20002d2a:	4816      	ldr	r0, [pc, #88]	@ (20002d84 <UsbHostHidComp+0x204>)
20002d2c:	f006 fa90 	bl	20009250 <memcmp>
20002d30:	b160      	cbz	r0, 20002d4c <UsbHostHidComp+0x1cc>
20002d32:	597b      	ldr	r3, [r7, r5]
20002d34:	4669      	mov	r1, sp
20002d36:	f043 0380 	orr.w	r3, r3, #128	@ 0x80
20002d3a:	4813      	ldr	r0, [pc, #76]	@ (20002d88 <UsbHostHidComp+0x208>)
20002d3c:	9300      	str	r3, [sp, #0]
20002d3e:	f001 fd3c 	bl	200047ba <EventRingWrite>
20002d42:	2205      	movs	r2, #5
20002d44:	4649      	mov	r1, r9
20002d46:	480f      	ldr	r0, [pc, #60]	@ (20002d84 <UsbHostHidComp+0x204>)
20002d48:	f7ff fab8 	bl	200022bc <UsbMemcpy>
20002d4c:	2384      	movs	r3, #132	@ 0x84
20002d4e:	fb03 7708 	mla	r7, r3, r8, r7
20002d52:	2300      	movs	r3, #0
20002d54:	f887 3052 	strb.w	r3, [r7, #82]	@ 0x52
20002d58:	e7bc      	b.n	20002cd4 <UsbHostHidComp+0x154>
20002d5a:	f7ff fea1 	bl	20002aa0 <UsbHostHidInxSend>
20002d5e:	e7bc      	b.n	20002cda <UsbHostHidComp+0x15a>
20002d60:	2400      	movs	r4, #0
20002d62:	e7bb      	b.n	20002cdc <UsbHostHidComp+0x15c>
20002d64:	20031cf0 	.word	0x20031cf0
20002d68:	20032935 	.word	0x20032935
20002d6c:	20031f00 	.word	0x20031f00
20002d70:	400b0000 	.word	0x400b0000
20002d74:	20031ce8 	.word	0x20031ce8
20002d78:	2003293d 	.word	0x2003293d
20002d7c:	20032936 	.word	0x20032936
20002d80:	2000978e 	.word	0x2000978e
20002d84:	2003293e 	.word	0x2003293e
20002d88:	20032014 	.word	0x20032014

20002d8c <UsbHostComp>:
20002d8c:	2324      	movs	r3, #36	@ 0x24
20002d8e:	b470      	push	{r4, r5, r6}
20002d90:	2500      	movs	r5, #0
20002d92:	4c0f      	ldr	r4, [pc, #60]	@ (20002dd0 <UsbHostComp+0x44>)
20002d94:	460a      	mov	r2, r1
20002d96:	fb03 4400 	mla	r4, r3, r0, r4
20002d9a:	79a0      	ldrb	r0, [r4, #6]
20002d9c:	79e1      	ldrb	r1, [r4, #7]
20002d9e:	2804      	cmp	r0, #4
20002da0:	bf94      	ite	ls
20002da2:	4606      	movls	r6, r0
20002da4:	2600      	movhi	r6, #0
20002da6:	2901      	cmp	r1, #1
20002da8:	8a23      	ldrh	r3, [r4, #16]
20002daa:	7065      	strb	r5, [r4, #1]
20002dac:	d803      	bhi.n	20002db6 <UsbHostComp+0x2a>
20002dae:	70a5      	strb	r5, [r4, #2]
20002db0:	bc70      	pop	{r4, r5, r6}
20002db2:	f7ff be3f 	b.w	20002a34 <UsbHostSetupComp>
20002db6:	253c      	movs	r5, #60	@ 0x3c
20002db8:	4c06      	ldr	r4, [pc, #24]	@ (20002dd4 <UsbHostComp+0x48>)
20002dba:	fb05 4406 	mla	r4, r5, r6, r4
20002dbe:	440c      	add	r4, r1
20002dc0:	7f24      	ldrb	r4, [r4, #28]
20002dc2:	b914      	cbnz	r4, 20002dca <UsbHostComp+0x3e>
20002dc4:	bc70      	pop	{r4, r5, r6}
20002dc6:	f7ff bedb 	b.w	20002b80 <UsbHostHidComp>
20002dca:	bc70      	pop	{r4, r5, r6}
20002dcc:	4770      	bx	lr
20002dce:	bf00      	nop
20002dd0:	20031868 	.word	0x20031868
20002dd4:	2003229e 	.word	0x2003229e

20002dd8 <UsbHostSetupSend>:
20002dd8:	b573      	push	{r0, r1, r4, r5, r6, lr}
20002dda:	2600      	movs	r6, #0
20002ddc:	4604      	mov	r4, r0
20002dde:	2208      	movs	r2, #8
20002de0:	4915      	ldr	r1, [pc, #84]	@ (20002e38 <UsbHostSetupSend+0x60>)
20002de2:	4816      	ldr	r0, [pc, #88]	@ (20002e3c <UsbHostSetupSend+0x64>)
20002de4:	f7ff fa6a 	bl	200022bc <UsbMemcpy>
20002de8:	e9cd 6600 	strd	r6, r6, [sp]
20002dec:	4d14      	ldr	r5, [pc, #80]	@ (20002e40 <UsbHostSetupSend+0x68>)
20002dee:	4621      	mov	r1, r4
20002df0:	4630      	mov	r0, r6
20002df2:	896b      	ldrh	r3, [r5, #10]
20002df4:	2201      	movs	r2, #1
20002df6:	f7ff fc79 	bl	200026ec <UsbHostEpInit>
20002dfa:	f04f 1308 	mov.w	r3, #524296	@ 0x80008
20002dfe:	60eb      	str	r3, [r5, #12]
20002e00:	2301      	movs	r3, #1
20002e02:	4a10      	ldr	r2, [pc, #64]	@ (20002e44 <UsbHostSetupSend+0x6c>)
20002e04:	706b      	strb	r3, [r5, #1]
20002e06:	822e      	strh	r6, [r5, #16]
20002e08:	6014      	str	r4, [r2, #0]
20002e0a:	f7ff fb03 	bl	20002414 <UsbGetDevSpeed>
20002e0e:	2c05      	cmp	r4, #5
20002e10:	bf28      	it	cs
20002e12:	4634      	movcs	r4, r6
20002e14:	213c      	movs	r1, #60	@ 0x3c
20002e16:	4b0c      	ldr	r3, [pc, #48]	@ (20002e48 <UsbHostSetupSend+0x70>)
20002e18:	fb01 3304 	mla	r3, r1, r4, r3
20002e1c:	490b      	ldr	r1, [pc, #44]	@ (20002e4c <UsbHostSetupSend+0x74>)
20002e1e:	789c      	ldrb	r4, [r3, #2]
20002e20:	4b0b      	ldr	r3, [pc, #44]	@ (20002e50 <UsbHostSetupSend+0x78>)
20002e22:	4284      	cmp	r4, r0
20002e24:	bf08      	it	eq
20002e26:	460b      	moveq	r3, r1
20002e28:	64d3      	str	r3, [r2, #76]	@ 0x4c
20002e2a:	f7ff fafb 	bl	20002424 <UsbDelay12>
20002e2e:	f043 0301 	orr.w	r3, r3, #1
20002e32:	64d3      	str	r3, [r2, #76]	@ 0x4c
20002e34:	b002      	add	sp, #8
20002e36:	bd70      	pop	{r4, r5, r6, pc}
20002e38:	200323ce 	.word	0x200323ce
20002e3c:	50100000 	.word	0x50100000
20002e40:	20031868 	.word	0x20031868
20002e44:	50110000 	.word	0x50110000
20002e48:	2003229e 	.word	0x2003229e
20002e4c:	20008602 	.word	0x20008602
20002e50:	20008642 	.word	0x20008642

20002e54 <UsbHostCtrlXfer>:
20002e54:	4b07      	ldr	r3, [pc, #28]	@ (20002e74 <UsbHostCtrlXfer+0x20>)
20002e56:	6019      	str	r1, [r3, #0]
20002e58:	4b07      	ldr	r3, [pc, #28]	@ (20002e78 <UsbHostCtrlXfer+0x24>)
20002e5a:	88d9      	ldrh	r1, [r3, #6]
20002e5c:	4b07      	ldr	r3, [pc, #28]	@ (20002e7c <UsbHostCtrlXfer+0x28>)
20002e5e:	8019      	strh	r1, [r3, #0]
20002e60:	2100      	movs	r1, #0
20002e62:	4b07      	ldr	r3, [pc, #28]	@ (20002e80 <UsbHostCtrlXfer+0x2c>)
20002e64:	8019      	strh	r1, [r3, #0]
20002e66:	4b07      	ldr	r3, [pc, #28]	@ (20002e84 <UsbHostCtrlXfer+0x30>)
20002e68:	601a      	str	r2, [r3, #0]
20002e6a:	2201      	movs	r2, #1
20002e6c:	4b06      	ldr	r3, [pc, #24]	@ (20002e88 <UsbHostCtrlXfer+0x34>)
20002e6e:	701a      	strb	r2, [r3, #0]
20002e70:	f7ff bfb2 	b.w	20002dd8 <UsbHostSetupSend>
20002e74:	2003226c 	.word	0x2003226c
20002e78:	200323ce 	.word	0x200323ce
20002e7c:	200323ca 	.word	0x200323ca
20002e80:	200323cc 	.word	0x200323cc
20002e84:	20032268 	.word	0x20032268
20002e88:	20032a49 	.word	0x20032a49

20002e8c <UsbHostGetDesc>:
20002e8c:	b470      	push	{r4, r5, r6}
20002e8e:	f44f 66d0 	mov.w	r6, #1664	@ 0x680
20002e92:	4c07      	ldr	r4, [pc, #28]	@ (20002eb0 <UsbHostGetDesc+0x24>)
20002e94:	f8bd 5010 	ldrh.w	r5, [sp, #16]
20002e98:	ea42 2201 	orr.w	r2, r2, r1, lsl #8
20002e9c:	8026      	strh	r6, [r4, #0]
20002e9e:	8062      	strh	r2, [r4, #2]
20002ea0:	9903      	ldr	r1, [sp, #12]
20002ea2:	9a05      	ldr	r2, [sp, #20]
20002ea4:	80a3      	strh	r3, [r4, #4]
20002ea6:	80e5      	strh	r5, [r4, #6]
20002ea8:	bc70      	pop	{r4, r5, r6}
20002eaa:	f7ff bfd3 	b.w	20002e54 <UsbHostCtrlXfer>
20002eae:	bf00      	nop
20002eb0:	200323ce 	.word	0x200323ce

20002eb4 <UsbHostHidCfgGetRepDesc>:
20002eb4:	b538      	push	{r3, r4, r5, lr}
20002eb6:	4b0d      	ldr	r3, [pc, #52]	@ (20002eec <UsbHostHidCfgGetRepDesc+0x38>)
20002eb8:	4604      	mov	r4, r0
20002eba:	7819      	ldrb	r1, [r3, #0]
20002ebc:	f7ff f926 	bl	2000210c <UsbHostHidFindItf>
20002ec0:	f240 6281 	movw	r2, #1665	@ 0x681
20002ec4:	2584      	movs	r5, #132	@ 0x84
20002ec6:	4b0a      	ldr	r3, [pc, #40]	@ (20002ef0 <UsbHostHidCfgGetRepDesc+0x3c>)
20002ec8:	801a      	strh	r2, [r3, #0]
20002eca:	4a0a      	ldr	r2, [pc, #40]	@ (20002ef4 <UsbHostHidCfgGetRepDesc+0x40>)
20002ecc:	8099      	strh	r1, [r3, #4]
20002ece:	fb05 2200 	mla	r2, r5, r0, r2
20002ed2:	7b10      	ldrb	r0, [r2, #12]
20002ed4:	89d2      	ldrh	r2, [r2, #14]
20002ed6:	0200      	lsls	r0, r0, #8
20002ed8:	8058      	strh	r0, [r3, #2]
20002eda:	80da      	strh	r2, [r3, #6]
20002edc:	4620      	mov	r0, r4
20002ede:	e8bd 4038 	ldmia.w	sp!, {r3, r4, r5, lr}
20002ee2:	4a05      	ldr	r2, [pc, #20]	@ (20002ef8 <UsbHostHidCfgGetRepDesc+0x44>)
20002ee4:	4905      	ldr	r1, [pc, #20]	@ (20002efc <UsbHostHidCfgGetRepDesc+0x48>)
20002ee6:	f7ff bfb5 	b.w	20002e54 <UsbHostCtrlXfer>
20002eea:	bf00      	nop
20002eec:	20032946 	.word	0x20032946
20002ef0:	200323ce 	.word	0x200323ce
20002ef4:	20031cf0 	.word	0x20031cf0
20002ef8:	20002fd9 	.word	0x20002fd9
20002efc:	20032949 	.word	0x20032949

20002f00 <UsbHostHidCfgSetProt>:
20002f00:	b538      	push	{r3, r4, r5, lr}
20002f02:	4b11      	ldr	r3, [pc, #68]	@ (20002f48 <UsbHostHidCfgSetProt+0x48>)
20002f04:	4605      	mov	r5, r0
20002f06:	7819      	ldrb	r1, [r3, #0]
20002f08:	f7ff f900 	bl	2000210c <UsbHostHidFindItf>
20002f0c:	f640 3321 	movw	r3, #2849	@ 0xb21
20002f10:	2284      	movs	r2, #132	@ 0x84
20002f12:	4c0e      	ldr	r4, [pc, #56]	@ (20002f4c <UsbHostHidCfgSetProt+0x4c>)
20002f14:	8023      	strh	r3, [r4, #0]
20002f16:	4b0e      	ldr	r3, [pc, #56]	@ (20002f50 <UsbHostHidCfgSetProt+0x50>)
20002f18:	80a1      	strh	r1, [r4, #4]
20002f1a:	fb02 3300 	mla	r3, r2, r0, r3
20002f1e:	78da      	ldrb	r2, [r3, #3]
20002f20:	4628      	mov	r0, r5
20002f22:	fab2 f282 	clz	r2, r2
20002f26:	0952      	lsrs	r2, r2, #5
20002f28:	8062      	strh	r2, [r4, #2]
20002f2a:	2200      	movs	r2, #0
20002f2c:	80e2      	strh	r2, [r4, #6]
20002f2e:	89da      	ldrh	r2, [r3, #14]
20002f30:	2100      	movs	r1, #0
20002f32:	f5b2 7f80 	cmp.w	r2, #256	@ 0x100
20002f36:	bf84      	itt	hi
20002f38:	f44f 7280 	movhi.w	r2, #256	@ 0x100
20002f3c:	81da      	strhhi	r2, [r3, #14]
20002f3e:	4a05      	ldr	r2, [pc, #20]	@ (20002f54 <UsbHostHidCfgSetProt+0x54>)
20002f40:	e8bd 4038 	ldmia.w	sp!, {r3, r4, r5, lr}
20002f44:	f7ff bf86 	b.w	20002e54 <UsbHostCtrlXfer>
20002f48:	20032946 	.word	0x20032946
20002f4c:	200323ce 	.word	0x200323ce
20002f50:	20031cf0 	.word	0x20031cf0
20002f54:	20002eb5 	.word	0x20002eb5

20002f58 <UsbHostHidCfg>:
20002f58:	b538      	push	{r3, r4, r5, lr}
20002f5a:	4605      	mov	r5, r0
20002f5c:	f7ff f8d6 	bl	2000210c <UsbHostHidFindItf>
20002f60:	28ff      	cmp	r0, #255	@ 0xff
20002f62:	460c      	mov	r4, r1
20002f64:	f04f 0100 	mov.w	r1, #0
20002f68:	d00e      	beq.n	20002f88 <UsbHostHidCfg+0x30>
20002f6a:	f640 2221 	movw	r2, #2593	@ 0xa21
20002f6e:	4b07      	ldr	r3, [pc, #28]	@ (20002f8c <UsbHostHidCfg+0x34>)
20002f70:	4628      	mov	r0, r5
20002f72:	801a      	strh	r2, [r3, #0]
20002f74:	8059      	strh	r1, [r3, #2]
20002f76:	809c      	strh	r4, [r3, #4]
20002f78:	80d9      	strh	r1, [r3, #6]
20002f7a:	4b05      	ldr	r3, [pc, #20]	@ (20002f90 <UsbHostHidCfg+0x38>)
20002f7c:	4a05      	ldr	r2, [pc, #20]	@ (20002f94 <UsbHostHidCfg+0x3c>)
20002f7e:	701c      	strb	r4, [r3, #0]
20002f80:	f7ff ff68 	bl	20002e54 <UsbHostCtrlXfer>
20002f84:	2001      	movs	r0, #1
20002f86:	bd38      	pop	{r3, r4, r5, pc}
20002f88:	4608      	mov	r0, r1
20002f8a:	e7fc      	b.n	20002f86 <UsbHostHidCfg+0x2e>
20002f8c:	200323ce 	.word	0x200323ce
20002f90:	20032946 	.word	0x20032946
20002f94:	20002f01 	.word	0x20002f01

20002f98 <UsbHostCfgComp>:
20002f98:	223c      	movs	r2, #60	@ 0x3c
20002f9a:	4342      	muls	r2, r0
20002f9c:	1c4b      	adds	r3, r1, #1
20002f9e:	b2d9      	uxtb	r1, r3
20002fa0:	fa52 f383 	uxtab	r3, r2, r3
20002fa4:	4a09      	ldr	r2, [pc, #36]	@ (20002fcc <UsbHostCfgComp+0x34>)
20002fa6:	4413      	add	r3, r2
20002fa8:	290f      	cmp	r1, #15
20002faa:	d906      	bls.n	20002fba <UsbHostCfgComp+0x22>
20002fac:	2200      	movs	r2, #0
20002fae:	4b08      	ldr	r3, [pc, #32]	@ (20002fd0 <UsbHostCfgComp+0x38>)
20002fb0:	701a      	strb	r2, [r3, #0]
20002fb2:	2201      	movs	r2, #1
20002fb4:	4b07      	ldr	r3, [pc, #28]	@ (20002fd4 <UsbHostCfgComp+0x3c>)
20002fb6:	701a      	strb	r2, [r3, #0]
20002fb8:	4770      	bx	lr
20002fba:	f813 2f01 	ldrb.w	r2, [r3, #1]!
20002fbe:	b90a      	cbnz	r2, 20002fc4 <UsbHostCfgComp+0x2c>
20002fc0:	f7ff bfca 	b.w	20002f58 <UsbHostHidCfg>
20002fc4:	3101      	adds	r1, #1
20002fc6:	b2c9      	uxtb	r1, r1
20002fc8:	e7ee      	b.n	20002fa8 <UsbHostCfgComp+0x10>
20002fca:	bf00      	nop
20002fcc:	200322a9 	.word	0x200322a9
20002fd0:	20032944 	.word	0x20032944
20002fd4:	20032933 	.word	0x20032933

20002fd8 <UsbHostHidCfgComp>:
20002fd8:	e92d 4ff7 	stmdb	sp!, {r0, r1, r2, r4, r5, r6, r7, r8, r9, sl, fp, lr}
20002fdc:	4b1c      	ldr	r3, [pc, #112]	@ (20003050 <UsbHostHidCfgComp+0x78>)
20002fde:	460f      	mov	r7, r1
20002fe0:	f893 8000 	ldrb.w	r8, [r3]
20002fe4:	4606      	mov	r6, r0
20002fe6:	4641      	mov	r1, r8
20002fe8:	f7ff f890 	bl	2000210c <UsbHostHidFindItf>
20002fec:	2484      	movs	r4, #132	@ 0x84
20002fee:	4605      	mov	r5, r0
20002ff0:	f8df a064 	ldr.w	sl, [pc, #100]	@ 20003058 <UsbHostHidCfgComp+0x80>
20002ff4:	b137      	cbz	r7, 20003004 <UsbHostHidCfgComp+0x2c>
20002ff6:	2300      	movs	r3, #0
20002ff8:	fb04 a400 	mla	r4, r4, r0, sl
20002ffc:	81e3      	strh	r3, [r4, #14]
20002ffe:	b003      	add	sp, #12
20003000:	e8bd 8ff0 	ldmia.w	sp!, {r4, r5, r6, r7, r8, r9, sl, fp, pc}
20003004:	4344      	muls	r4, r0
20003006:	4b13      	ldr	r3, [pc, #76]	@ (20003054 <UsbHostHidCfgComp+0x7c>)
20003008:	eb0a 0b04 	add.w	fp, sl, r4
2000300c:	881b      	ldrh	r3, [r3, #0]
2000300e:	f89b 7005 	ldrb.w	r7, [fp, #5]
20003012:	f8ab 300e 	strh.w	r3, [fp, #14]
20003016:	b187      	cbz	r7, 2000303a <UsbHostHidCfgComp+0x62>
20003018:	f89b 9001 	ldrb.w	r9, [fp, #1]
2000301c:	4639      	mov	r1, r7
2000301e:	4648      	mov	r0, r9
20003020:	f7fe ffd4 	bl	20001fcc <UsbHostIsBusy>
20003024:	b948      	cbnz	r0, 2000303a <UsbHostHidCfgComp+0x62>
20003026:	3454      	adds	r4, #84	@ 0x54
20003028:	f8bb 3008 	ldrh.w	r3, [fp, #8]
2000302c:	4639      	mov	r1, r7
2000302e:	9000      	str	r0, [sp, #0]
20003030:	eb0a 0204 	add.w	r2, sl, r4
20003034:	4648      	mov	r0, r9
20003036:	f7ff fc9f 	bl	20002978 <UsbHostXferStart>
2000303a:	4628      	mov	r0, r5
2000303c:	f7ff f948 	bl	200022d0 <UsbHostHidParse>
20003040:	4641      	mov	r1, r8
20003042:	4630      	mov	r0, r6
20003044:	b003      	add	sp, #12
20003046:	e8bd 4ff0 	ldmia.w	sp!, {r4, r5, r6, r7, r8, r9, sl, fp, lr}
2000304a:	f7ff bfa5 	b.w	20002f98 <UsbHostCfgComp>
2000304e:	bf00      	nop
20003050:	20032946 	.word	0x20032946
20003054:	200323cc 	.word	0x200323cc
20003058:	20031cf0 	.word	0x20031cf0

2000305c <UsbHostDevClose>:
2000305c:	e92d 47f0 	stmdb	sp!, {r4, r5, r6, r7, r8, r9, sl, lr}
20003060:	2501      	movs	r5, #1
20003062:	4c1a      	ldr	r4, [pc, #104]	@ (200030cc <UsbHostDevClose+0x70>)
20003064:	4606      	mov	r6, r0
20003066:	4627      	mov	r7, r4
20003068:	46a8      	mov	r8, r5
2000306a:	f8df 9064 	ldr.w	r9, [pc, #100]	@ 200030d0 <UsbHostDevClose+0x74>
2000306e:	f8df a064 	ldr.w	sl, [pc, #100]	@ 200030d4 <UsbHostDevClose+0x78>
20003072:	f894 3024 	ldrb.w	r3, [r4, #36]	@ 0x24
20003076:	b30b      	cbz	r3, 200030bc <UsbHostDevClose+0x60>
20003078:	f894 302a 	ldrb.w	r3, [r4, #42]	@ 0x2a
2000307c:	42b3      	cmp	r3, r6
2000307e:	d11d      	bne.n	200030bc <UsbHostDevClose+0x60>
20003080:	fa08 f305 	lsl.w	r3, r8, r5
20003084:	f8c9 3054 	str.w	r3, [r9, #84]	@ 0x54
20003088:	2300      	movs	r3, #0
2000308a:	00aa      	lsls	r2, r5, #2
2000308c:	f102 42a0 	add.w	r2, r2, #1342177280	@ 0x50000000
20003090:	f502 1288 	add.w	r2, r2, #1114112	@ 0x110000
20003094:	6013      	str	r3, [r2, #0]
20003096:	2224      	movs	r2, #36	@ 0x24
20003098:	fb02 7205 	mla	r2, r2, r5, r7
2000309c:	f884 3024 	strb.w	r3, [r4, #36]	@ 0x24
200030a0:	7053      	strb	r3, [r2, #1]
200030a2:	7093      	strb	r3, [r2, #2]
200030a4:	6c22      	ldr	r2, [r4, #64]	@ 0x40
200030a6:	b112      	cbz	r2, 200030ae <UsbHostDevClose+0x52>
200030a8:	4552      	cmp	r2, sl
200030aa:	bf18      	it	ne
200030ac:	6013      	strne	r3, [r2, #0]
200030ae:	2200      	movs	r2, #0
200030b0:	6c63      	ldr	r3, [r4, #68]	@ 0x44
200030b2:	8de1      	ldrh	r1, [r4, #46]	@ 0x2e
200030b4:	6ba0      	ldr	r0, [r4, #56]	@ 0x38
200030b6:	601a      	str	r2, [r3, #0]
200030b8:	f7ff faf8 	bl	200026ac <UsbRamFree>
200030bc:	3501      	adds	r5, #1
200030be:	2d10      	cmp	r5, #16
200030c0:	f104 0424 	add.w	r4, r4, #36	@ 0x24
200030c4:	d1d5      	bne.n	20003072 <UsbHostDevClose+0x16>
200030c6:	e8bd 87f0 	ldmia.w	sp!, {r4, r5, r6, r7, r8, r9, sl, pc}
200030ca:	bf00      	nop
200030cc:	20031868 	.word	0x20031868
200030d0:	50113000 	.word	0x50113000
200030d4:	5011004c 	.word	0x5011004c

200030d8 <UsbHostEnumStop>:
200030d8:	b538      	push	{r3, r4, r5, lr}
200030da:	4c0c      	ldr	r4, [pc, #48]	@ (2000310c <UsbHostEnumStop+0x34>)
200030dc:	7823      	ldrb	r3, [r4, #0]
200030de:	b19b      	cbz	r3, 20003108 <UsbHostEnumStop+0x30>
200030e0:	7823      	ldrb	r3, [r4, #0]
200030e2:	2b04      	cmp	r3, #4
200030e4:	d90a      	bls.n	200030fc <UsbHostEnumStop+0x24>
200030e6:	4b0a      	ldr	r3, [pc, #40]	@ (20003110 <UsbHostEnumStop+0x38>)
200030e8:	781d      	ldrb	r5, [r3, #0]
200030ea:	4628      	mov	r0, r5
200030ec:	f7ff ffb6 	bl	2000305c <UsbHostDevClose>
200030f0:	223c      	movs	r2, #60	@ 0x3c
200030f2:	4b08      	ldr	r3, [pc, #32]	@ (20003114 <UsbHostEnumStop+0x3c>)
200030f4:	fb02 3305 	mla	r3, r2, r5, r3
200030f8:	2200      	movs	r2, #0
200030fa:	70da      	strb	r2, [r3, #3]
200030fc:	2300      	movs	r3, #0
200030fe:	4a06      	ldr	r2, [pc, #24]	@ (20003118 <UsbHostEnumStop+0x40>)
20003100:	7023      	strb	r3, [r4, #0]
20003102:	7013      	strb	r3, [r2, #0]
20003104:	4a05      	ldr	r2, [pc, #20]	@ (2000311c <UsbHostEnumStop+0x44>)
20003106:	6013      	str	r3, [r2, #0]
20003108:	bd38      	pop	{r3, r4, r5, pc}
2000310a:	bf00      	nop
2000310c:	20032944 	.word	0x20032944
20003110:	20032943 	.word	0x20032943
20003114:	2003229e 	.word	0x2003229e
20003118:	20032a49 	.word	0x20032a49
2000311c:	20032268 	.word	0x20032268

20003120 <UsbHostDevRemove>:
20003120:	e92d 4ff8 	stmdb	sp!, {r3, r4, r5, r6, r7, r8, r9, sl, fp, lr}
20003124:	4d16      	ldr	r5, [pc, #88]	@ (20003180 <UsbHostDevRemove+0x60>)
20003126:	4680      	mov	r8, r0
20003128:	460e      	mov	r6, r1
2000312a:	2400      	movs	r4, #0
2000312c:	46aa      	mov	sl, r5
2000312e:	f04f 093c 	mov.w	r9, #60	@ 0x3c
20003132:	f8df b054 	ldr.w	fp, [pc, #84]	@ 20003188 <UsbHostDevRemove+0x68>
20003136:	fb09 a304 	mla	r3, r9, r4, sl
2000313a:	78db      	ldrb	r3, [r3, #3]
2000313c:	07db      	lsls	r3, r3, #31
2000313e:	d518      	bpl.n	20003172 <UsbHostDevRemove+0x52>
20003140:	782b      	ldrb	r3, [r5, #0]
20003142:	4543      	cmp	r3, r8
20003144:	d115      	bne.n	20003172 <UsbHostDevRemove+0x52>
20003146:	b98e      	cbnz	r6, 2000316c <UsbHostDevRemove+0x4c>
20003148:	b2e7      	uxtb	r7, r4
2000314a:	4638      	mov	r0, r7
2000314c:	f7fd fde6 	bl	20000d1c <UsbHostHidClose>
20003150:	4638      	mov	r0, r7
20003152:	f7ff ff83 	bl	2000305c <UsbHostDevClose>
20003156:	4638      	mov	r0, r7
20003158:	f7fe ffac 	bl	200020b4 <UsbHostClrDev>
2000315c:	f89b 3000 	ldrb.w	r3, [fp]
20003160:	42bb      	cmp	r3, r7
20003162:	d106      	bne.n	20003172 <UsbHostDevRemove+0x52>
20003164:	2200      	movs	r2, #0
20003166:	4b07      	ldr	r3, [pc, #28]	@ (20003184 <UsbHostDevRemove+0x64>)
20003168:	701a      	strb	r2, [r3, #0]
2000316a:	e002      	b.n	20003172 <UsbHostDevRemove+0x52>
2000316c:	786b      	ldrb	r3, [r5, #1]
2000316e:	42b3      	cmp	r3, r6
20003170:	d0ea      	beq.n	20003148 <UsbHostDevRemove+0x28>
20003172:	3401      	adds	r4, #1
20003174:	2c05      	cmp	r4, #5
20003176:	f105 053c 	add.w	r5, r5, #60	@ 0x3c
2000317a:	d1dc      	bne.n	20003136 <UsbHostDevRemove+0x16>
2000317c:	e8bd 8ff8 	ldmia.w	sp!, {r3, r4, r5, r6, r7, r8, r9, sl, fp, pc}
20003180:	2003229e 	.word	0x2003229e
20003184:	20032a49 	.word	0x20032a49
20003188:	20032943 	.word	0x20032943

2000318c <UsbEpBindDrv>:
2000318c:	b530      	push	{r4, r5, lr}
2000318e:	440a      	add	r2, r1
20003190:	4291      	cmp	r1, r2
20003192:	d300      	bcc.n	20003196 <UsbEpBindDrv+0xa>
20003194:	bd30      	pop	{r4, r5, pc}
20003196:	784c      	ldrb	r4, [r1, #1]
20003198:	2c05      	cmp	r4, #5
2000319a:	d108      	bne.n	200031ae <UsbEpBindDrv+0x22>
2000319c:	788c      	ldrb	r4, [r1, #2]
2000319e:	f084 0580 	eor.w	r5, r4, #128	@ 0x80
200031a2:	0064      	lsls	r4, r4, #1
200031a4:	f004 041e 	and.w	r4, r4, #30
200031a8:	ea44 14d5 	orr.w	r4, r4, r5, lsr #7
200031ac:	5503      	strb	r3, [r0, r4]
200031ae:	780c      	ldrb	r4, [r1, #0]
200031b0:	4421      	add	r1, r4
200031b2:	e7ed      	b.n	20003190 <UsbEpBindDrv+0x4>

200031b4 <UsbHostParseCfg>:
200031b4:	e92d 4ff8 	stmdb	sp!, {r3, r4, r5, r6, r7, r8, r9, sl, fp, lr}
200031b8:	4607      	mov	r7, r0
200031ba:	f04f 093c 	mov.w	r9, #60	@ 0x3c
200031be:	884e      	ldrh	r6, [r1, #2]
200031c0:	780b      	ldrb	r3, [r1, #0]
200031c2:	f8df 80b4 	ldr.w	r8, [pc, #180]	@ 20003278 <UsbHostParseCfg+0xc4>
200031c6:	440e      	add	r6, r1
200031c8:	18cc      	adds	r4, r1, r3
200031ca:	42b4      	cmp	r4, r6
200031cc:	d301      	bcc.n	200031d2 <UsbHostParseCfg+0x1e>
200031ce:	2001      	movs	r0, #1
200031d0:	e00e      	b.n	200031f0 <UsbHostParseCfg+0x3c>
200031d2:	7863      	ldrb	r3, [r4, #1]
200031d4:	2b0b      	cmp	r3, #11
200031d6:	bf02      	ittt	eq
200031d8:	7823      	ldrbeq	r3, [r4, #0]
200031da:	f894 a003 	ldrbeq.w	sl, [r4, #3]
200031de:	18e4      	addeq	r4, r4, r3
200031e0:	7823      	ldrb	r3, [r4, #0]
200031e2:	bf18      	it	ne
200031e4:	f04f 0a01 	movne.w	sl, #1
200031e8:	4423      	add	r3, r4
200031ea:	429e      	cmp	r6, r3
200031ec:	d202      	bcs.n	200031f4 <UsbHostParseCfg+0x40>
200031ee:	2000      	movs	r0, #0
200031f0:	e8bd 8ff8 	ldmia.w	sp!, {r3, r4, r5, r6, r7, r8, r9, sl, fp, pc}
200031f4:	7863      	ldrb	r3, [r4, #1]
200031f6:	2b04      	cmp	r3, #4
200031f8:	d1f9      	bne.n	200031ee <UsbHostParseCfg+0x3a>
200031fa:	f1ba 0f01 	cmp.w	sl, #1
200031fe:	d107      	bne.n	20003210 <UsbHostParseCfg+0x5c>
20003200:	7963      	ldrb	r3, [r4, #5]
20003202:	2b02      	cmp	r3, #2
20003204:	d104      	bne.n	20003210 <UsbHostParseCfg+0x5c>
20003206:	79a3      	ldrb	r3, [r4, #6]
20003208:	2b02      	cmp	r3, #2
2000320a:	bf08      	it	eq
2000320c:	f04f 0a02 	moveq.w	sl, #2
20003210:	eba6 0b04 	sub.w	fp, r6, r4
20003214:	fa1f fb8b 	uxth.w	fp, fp
20003218:	465a      	mov	r2, fp
2000321a:	4621      	mov	r1, r4
2000321c:	4638      	mov	r0, r7
2000321e:	f7ff fb43 	bl	200028a8 <UsbHostHidOpen>
20003222:	2808      	cmp	r0, #8
20003224:	4605      	mov	r5, r0
20003226:	d91e      	bls.n	20003266 <UsbHostParseCfg+0xb2>
20003228:	4583      	cmp	fp, r0
2000322a:	d31c      	bcc.n	20003266 <UsbHostParseCfg+0xb2>
2000322c:	2200      	movs	r2, #0
2000322e:	fb09 8107 	mla	r1, r9, r7, r8
20003232:	4610      	mov	r0, r2
20003234:	e008      	b.n	20003248 <UsbHostParseCfg+0x94>
20003236:	f894 c002 	ldrb.w	ip, [r4, #2]
2000323a:	3201      	adds	r2, #1
2000323c:	4463      	add	r3, ip
2000323e:	b2db      	uxtb	r3, r3
20003240:	2b0f      	cmp	r3, #15
20003242:	d8d4      	bhi.n	200031ee <UsbHostParseCfg+0x3a>
20003244:	440b      	add	r3, r1
20003246:	7318      	strb	r0, [r3, #12]
20003248:	b2d3      	uxtb	r3, r2
2000324a:	459a      	cmp	sl, r3
2000324c:	d8f3      	bhi.n	20003236 <UsbHostParseCfg+0x82>
2000324e:	f04f 0c3c 	mov.w	ip, #60	@ 0x3c
20003252:	4808      	ldr	r0, [pc, #32]	@ (20003274 <UsbHostParseCfg+0xc0>)
20003254:	4621      	mov	r1, r4
20003256:	2300      	movs	r3, #0
20003258:	462a      	mov	r2, r5
2000325a:	fb0c 0007 	mla	r0, ip, r7, r0
2000325e:	f7ff ff95 	bl	2000318c <UsbEpBindDrv>
20003262:	442c      	add	r4, r5
20003264:	e7b1      	b.n	200031ca <UsbHostParseCfg+0x16>
20003266:	7823      	ldrb	r3, [r4, #0]
20003268:	441c      	add	r4, r3
2000326a:	7863      	ldrb	r3, [r4, #1]
2000326c:	2b05      	cmp	r3, #5
2000326e:	d0fa      	beq.n	20003266 <UsbHostParseCfg+0xb2>
20003270:	e7ab      	b.n	200031ca <UsbHostParseCfg+0x16>
20003272:	bf00      	nop
20003274:	200322ba 	.word	0x200322ba
20003278:	2003229e 	.word	0x2003229e

2000327c <UsbHostEnum>:
2000327c:	b5f0      	push	{r4, r5, r6, r7, lr}
2000327e:	4c7e      	ldr	r4, [pc, #504]	@ (20003478 <UsbHostEnum+0x1fc>)
20003280:	b085      	sub	sp, #20
20003282:	7823      	ldrb	r3, [r4, #0]
20003284:	b303      	cbz	r3, 200032c8 <UsbHostEnum+0x4c>
20003286:	f7ff f8c5 	bl	20002414 <UsbGetDevSpeed>
2000328a:	b938      	cbnz	r0, 2000329c <UsbHostEnum+0x20>
2000328c:	7823      	ldrb	r3, [r4, #0]
2000328e:	2b02      	cmp	r3, #2
20003290:	d904      	bls.n	2000329c <UsbHostEnum+0x20>
20003292:	b005      	add	sp, #20
20003294:	e8bd 40f0 	ldmia.w	sp!, {r4, r5, r6, r7, lr}
20003298:	f7ff bf1e 	b.w	200030d8 <UsbHostEnumStop>
2000329c:	b1b1      	cbz	r1, 200032cc <UsbHostEnum+0x50>
2000329e:	4a77      	ldr	r2, [pc, #476]	@ (2000347c <UsbHostEnum+0x200>)
200032a0:	7813      	ldrb	r3, [r2, #0]
200032a2:	b11b      	cbz	r3, 200032ac <UsbHostEnum+0x30>
200032a4:	7813      	ldrb	r3, [r2, #0]
200032a6:	3b01      	subs	r3, #1
200032a8:	b2db      	uxtb	r3, r3
200032aa:	7013      	strb	r3, [r2, #0]
200032ac:	7813      	ldrb	r3, [r2, #0]
200032ae:	2b00      	cmp	r3, #0
200032b0:	d0ef      	beq.n	20003292 <UsbHostEnum+0x16>
200032b2:	4b73      	ldr	r3, [pc, #460]	@ (20003480 <UsbHostEnum+0x204>)
200032b4:	4a73      	ldr	r2, [pc, #460]	@ (20003484 <UsbHostEnum+0x208>)
200032b6:	6a9b      	ldr	r3, [r3, #40]	@ 0x28
200032b8:	f503 4343 	add.w	r3, r3, #49920	@ 0xc300
200032bc:	3350      	adds	r3, #80	@ 0x50
200032be:	6013      	str	r3, [r2, #0]
200032c0:	f3bf 8f5f 	dmb	sy
200032c4:	2301      	movs	r3, #1
200032c6:	7023      	strb	r3, [r4, #0]
200032c8:	b005      	add	sp, #20
200032ca:	bdf0      	pop	{r4, r5, r6, r7, pc}
200032cc:	7823      	ldrb	r3, [r4, #0]
200032ce:	3b01      	subs	r3, #1
200032d0:	2b09      	cmp	r3, #9
200032d2:	d816      	bhi.n	20003302 <UsbHostEnum+0x86>
200032d4:	e8df f013 	tbh	[pc, r3, lsl #1]
200032d8:	0019000a 	.word	0x0019000a
200032dc:	00360022 	.word	0x00360022
200032e0:	00690063 	.word	0x00690063
200032e4:	00990081 	.word	0x00990081
200032e8:	00bf00a9 	.word	0x00bf00a9
200032ec:	4b64      	ldr	r3, [pc, #400]	@ (20003480 <UsbHostEnum+0x204>)
200032ee:	4a65      	ldr	r2, [pc, #404]	@ (20003484 <UsbHostEnum+0x208>)
200032f0:	6a9b      	ldr	r3, [r3, #40]	@ 0x28
200032f2:	f503 531c 	add.w	r3, r3, #9984	@ 0x2700
200032f6:	3310      	adds	r3, #16
200032f8:	6013      	str	r3, [r2, #0]
200032fa:	f44f 5200 	mov.w	r2, #8192	@ 0x2000
200032fe:	4b62      	ldr	r3, [pc, #392]	@ (20003488 <UsbHostEnum+0x20c>)
20003300:	64da      	str	r2, [r3, #76]	@ 0x4c
20003302:	7823      	ldrb	r3, [r4, #0]
20003304:	3301      	adds	r3, #1
20003306:	b2db      	uxtb	r3, r3
20003308:	e7dd      	b.n	200032c6 <UsbHostEnum+0x4a>
2000330a:	4b5d      	ldr	r3, [pc, #372]	@ (20003480 <UsbHostEnum+0x204>)
2000330c:	6a9b      	ldr	r3, [r3, #40]	@ 0x28
2000330e:	f503 23c3 	add.w	r3, r3, #399360	@ 0x61800
20003312:	f503 7320 	add.w	r3, r3, #640	@ 0x280
20003316:	4a5b      	ldr	r2, [pc, #364]	@ (20003484 <UsbHostEnum+0x208>)
20003318:	6013      	str	r3, [r2, #0]
2000331a:	e7f2      	b.n	20003302 <UsbHostEnum+0x86>
2000331c:	2500      	movs	r5, #0
2000331e:	4b5b      	ldr	r3, [pc, #364]	@ (2000348c <UsbHostEnum+0x210>)
20003320:	2108      	movs	r1, #8
20003322:	4628      	mov	r0, r5
20003324:	701d      	strb	r5, [r3, #0]
20003326:	f7ff fb1b 	bl	20002960 <UsbHostEp0Open>
2000332a:	4b59      	ldr	r3, [pc, #356]	@ (20003490 <UsbHostEnum+0x214>)
2000332c:	462a      	mov	r2, r5
2000332e:	9302      	str	r3, [sp, #8]
20003330:	2308      	movs	r3, #8
20003332:	9301      	str	r3, [sp, #4]
20003334:	4b57      	ldr	r3, [pc, #348]	@ (20003494 <UsbHostEnum+0x218>)
20003336:	2101      	movs	r1, #1
20003338:	9300      	str	r3, [sp, #0]
2000333a:	4628      	mov	r0, r5
2000333c:	462b      	mov	r3, r5
2000333e:	f7ff fda5 	bl	20002e8c <UsbHostGetDesc>
20003342:	e7de      	b.n	20003302 <UsbHostEnum+0x86>
20003344:	4d53      	ldr	r5, [pc, #332]	@ (20003494 <UsbHostEnum+0x218>)
20003346:	223c      	movs	r2, #60	@ 0x3c
20003348:	792b      	ldrb	r3, [r5, #4]
2000334a:	4853      	ldr	r0, [pc, #332]	@ (20003498 <UsbHostEnum+0x21c>)
2000334c:	2b09      	cmp	r3, #9
2000334e:	bf14      	ite	ne
20003350:	2301      	movne	r3, #1
20003352:	2305      	moveq	r3, #5
20003354:	b2de      	uxtb	r6, r3
20003356:	2e05      	cmp	r6, #5
20003358:	d09b      	beq.n	20003292 <UsbHostEnum+0x16>
2000335a:	fb02 0103 	mla	r1, r2, r3, r0
2000335e:	78c9      	ldrb	r1, [r1, #3]
20003360:	3301      	adds	r3, #1
20003362:	f011 0101 	ands.w	r1, r1, #1
20003366:	d1f5      	bne.n	20003354 <UsbHostEnum+0xd8>
20003368:	4b48      	ldr	r3, [pc, #288]	@ (2000348c <UsbHostEnum+0x210>)
2000336a:	f8b0 c000 	ldrh.w	ip, [r0]
2000336e:	701e      	strb	r6, [r3, #0]
20003370:	fb02 f306 	mul.w	r3, r2, r6
20003374:	7887      	ldrb	r7, [r0, #2]
20003376:	18c2      	adds	r2, r0, r3
20003378:	f820 c003 	strh.w	ip, [r0, r3]
2000337c:	2301      	movs	r3, #1
2000337e:	70d3      	strb	r3, [r2, #3]
20003380:	79eb      	ldrb	r3, [r5, #7]
20003382:	7097      	strb	r7, [r2, #2]
20003384:	72d3      	strb	r3, [r2, #11]
20003386:	f44f 62a0 	mov.w	r2, #1280	@ 0x500
2000338a:	4608      	mov	r0, r1
2000338c:	4b43      	ldr	r3, [pc, #268]	@ (2000349c <UsbHostEnum+0x220>)
2000338e:	801a      	strh	r2, [r3, #0]
20003390:	4a3f      	ldr	r2, [pc, #252]	@ (20003490 <UsbHostEnum+0x214>)
20003392:	805e      	strh	r6, [r3, #2]
20003394:	8099      	strh	r1, [r3, #4]
20003396:	80d9      	strh	r1, [r3, #6]
20003398:	f7ff fd5c 	bl	20002e54 <UsbHostCtrlXfer>
2000339c:	e7b1      	b.n	20003302 <UsbHostEnum+0x86>
2000339e:	4b38      	ldr	r3, [pc, #224]	@ (20003480 <UsbHostEnum+0x204>)
200033a0:	6a9b      	ldr	r3, [r3, #40]	@ 0x28
200033a2:	f503 531c 	add.w	r3, r3, #9984	@ 0x2700
200033a6:	3310      	adds	r3, #16
200033a8:	e7b5      	b.n	20003316 <UsbHostEnum+0x9a>
200033aa:	4b38      	ldr	r3, [pc, #224]	@ (2000348c <UsbHostEnum+0x210>)
200033ac:	2000      	movs	r0, #0
200033ae:	781d      	ldrb	r5, [r3, #0]
200033b0:	f7ff fe54 	bl	2000305c <UsbHostDevClose>
200033b4:	223c      	movs	r2, #60	@ 0x3c
200033b6:	4b38      	ldr	r3, [pc, #224]	@ (20003498 <UsbHostEnum+0x21c>)
200033b8:	4628      	mov	r0, r5
200033ba:	fb02 3305 	mla	r3, r2, r5, r3
200033be:	7ad9      	ldrb	r1, [r3, #11]
200033c0:	f7ff face 	bl	20002960 <UsbHostEp0Open>
200033c4:	4b32      	ldr	r3, [pc, #200]	@ (20003490 <UsbHostEnum+0x214>)
200033c6:	2101      	movs	r1, #1
200033c8:	9302      	str	r3, [sp, #8]
200033ca:	2312      	movs	r3, #18
200033cc:	9301      	str	r3, [sp, #4]
200033ce:	4b31      	ldr	r3, [pc, #196]	@ (20003494 <UsbHostEnum+0x218>)
200033d0:	4628      	mov	r0, r5
200033d2:	9300      	str	r3, [sp, #0]
200033d4:	2300      	movs	r3, #0
200033d6:	461a      	mov	r2, r3
200033d8:	e7b1      	b.n	2000333e <UsbHostEnum+0xc2>
200033da:	223c      	movs	r2, #60	@ 0x3c
200033dc:	4b2b      	ldr	r3, [pc, #172]	@ (2000348c <UsbHostEnum+0x210>)
200033de:	7818      	ldrb	r0, [r3, #0]
200033e0:	4b2d      	ldr	r3, [pc, #180]	@ (20003498 <UsbHostEnum+0x21c>)
200033e2:	fb02 3300 	mla	r3, r2, r0, r3
200033e6:	4a2b      	ldr	r2, [pc, #172]	@ (20003494 <UsbHostEnum+0x218>)
200033e8:	8911      	ldrh	r1, [r2, #8]
200033ea:	89d5      	ldrh	r5, [r2, #14]
200033ec:	8099      	strh	r1, [r3, #4]
200033ee:	8951      	ldrh	r1, [r2, #10]
200033f0:	80d9      	strh	r1, [r3, #6]
200033f2:	7c11      	ldrb	r1, [r2, #16]
200033f4:	811d      	strh	r5, [r3, #8]
200033f6:	7299      	strb	r1, [r3, #10]
200033f8:	4b25      	ldr	r3, [pc, #148]	@ (20003490 <UsbHostEnum+0x214>)
200033fa:	2102      	movs	r1, #2
200033fc:	9302      	str	r3, [sp, #8]
200033fe:	2309      	movs	r3, #9
20003400:	e9cd 2300 	strd	r2, r3, [sp]
20003404:	2300      	movs	r3, #0
20003406:	461a      	mov	r2, r3
20003408:	e799      	b.n	2000333e <UsbHostEnum+0xc2>
2000340a:	4b22      	ldr	r3, [pc, #136]	@ (20003494 <UsbHostEnum+0x218>)
2000340c:	885a      	ldrh	r2, [r3, #2]
2000340e:	f5b2 7fa0 	cmp.w	r2, #320	@ 0x140
20003412:	f63f af3e 	bhi.w	20003292 <UsbHostEnum+0x16>
20003416:	9300      	str	r3, [sp, #0]
20003418:	2300      	movs	r3, #0
2000341a:	491d      	ldr	r1, [pc, #116]	@ (20003490 <UsbHostEnum+0x214>)
2000341c:	481b      	ldr	r0, [pc, #108]	@ (2000348c <UsbHostEnum+0x210>)
2000341e:	e9cd 2101 	strd	r2, r1, [sp, #4]
20003422:	461a      	mov	r2, r3
20003424:	2102      	movs	r1, #2
20003426:	7800      	ldrb	r0, [r0, #0]
20003428:	e789      	b.n	2000333e <UsbHostEnum+0xc2>
2000342a:	4b18      	ldr	r3, [pc, #96]	@ (2000348c <UsbHostEnum+0x210>)
2000342c:	4e19      	ldr	r6, [pc, #100]	@ (20003494 <UsbHostEnum+0x218>)
2000342e:	781d      	ldrb	r5, [r3, #0]
20003430:	4631      	mov	r1, r6
20003432:	4628      	mov	r0, r5
20003434:	f7ff febe 	bl	200031b4 <UsbHostParseCfg>
20003438:	2800      	cmp	r0, #0
2000343a:	f43f af2a 	beq.w	20003292 <UsbHostEnum+0x16>
2000343e:	f44f 6110 	mov.w	r1, #2304	@ 0x900
20003442:	4b16      	ldr	r3, [pc, #88]	@ (2000349c <UsbHostEnum+0x220>)
20003444:	7972      	ldrb	r2, [r6, #5]
20003446:	8019      	strh	r1, [r3, #0]
20003448:	2100      	movs	r1, #0
2000344a:	805a      	strh	r2, [r3, #2]
2000344c:	4628      	mov	r0, r5
2000344e:	4a10      	ldr	r2, [pc, #64]	@ (20003490 <UsbHostEnum+0x214>)
20003450:	8099      	strh	r1, [r3, #4]
20003452:	80d9      	strh	r1, [r3, #6]
20003454:	e7a0      	b.n	20003398 <UsbHostEnum+0x11c>
20003456:	223c      	movs	r2, #60	@ 0x3c
20003458:	21ff      	movs	r1, #255	@ 0xff
2000345a:	4b0c      	ldr	r3, [pc, #48]	@ (2000348c <UsbHostEnum+0x210>)
2000345c:	7818      	ldrb	r0, [r3, #0]
2000345e:	4b0e      	ldr	r3, [pc, #56]	@ (20003498 <UsbHostEnum+0x21c>)
20003460:	fb02 3300 	mla	r3, r2, r0, r3
20003464:	78da      	ldrb	r2, [r3, #3]
20003466:	f042 0202 	orr.w	r2, r2, #2
2000346a:	70da      	strb	r2, [r3, #3]
2000346c:	b005      	add	sp, #20
2000346e:	e8bd 40f0 	ldmia.w	sp!, {r4, r5, r6, r7, lr}
20003472:	f7ff bd91 	b.w	20002f98 <UsbHostCfgComp>
20003476:	bf00      	nop
20003478:	20032944 	.word	0x20032944
2000347c:	20032945 	.word	0x20032945
20003480:	400b0000 	.word	0x400b0000
20003484:	20031cec 	.word	0x20031cec
20003488:	50112000 	.word	0x50112000
2000348c:	20032943 	.word	0x20032943
20003490:	2000327d 	.word	0x2000327d
20003494:	20032128 	.word	0x20032128
20003498:	2003229e 	.word	0x2003229e
2000349c:	200323ce 	.word	0x200323ce

200034a0 <UsbHostIrq>:
200034a0:	e92d 4ff8 	stmdb	sp!, {r3, r4, r5, r6, r7, r8, r9, sl, fp, lr}
200034a4:	4c62      	ldr	r4, [pc, #392]	@ (20003630 <UsbHostIrq+0x190>)
200034a6:	f8d4 3094 	ldr.w	r3, [r4, #148]	@ 0x94
200034aa:	06d8      	lsls	r0, r3, #27
200034ac:	d507      	bpl.n	200034be <UsbHostIrq+0x1e>
200034ae:	2210      	movs	r2, #16
200034b0:	4b60      	ldr	r3, [pc, #384]	@ (20003634 <UsbHostIrq+0x194>)
200034b2:	f8c3 2094 	str.w	r2, [r3, #148]	@ 0x94
200034b6:	f7ff fb26 	bl	20002b06 <UsbHostHidSched>
200034ba:	f3bf 8f5f 	dmb	sy
200034be:	f8d4 3094 	ldr.w	r3, [r4, #148]	@ 0x94
200034c2:	0719      	lsls	r1, r3, #28
200034c4:	d519      	bpl.n	200034fa <UsbHostIrq+0x5a>
200034c6:	2208      	movs	r2, #8
200034c8:	4b5a      	ldr	r3, [pc, #360]	@ (20003634 <UsbHostIrq+0x194>)
200034ca:	f8c3 2094 	str.w	r2, [r3, #148]	@ 0x94
200034ce:	4b5a      	ldr	r3, [pc, #360]	@ (20003638 <UsbHostIrq+0x198>)
200034d0:	781b      	ldrb	r3, [r3, #0]
200034d2:	b2da      	uxtb	r2, r3
200034d4:	3b01      	subs	r3, #1
200034d6:	2b02      	cmp	r3, #2
200034d8:	d901      	bls.n	200034de <UsbHostIrq+0x3e>
200034da:	2a06      	cmp	r2, #6
200034dc:	d10b      	bne.n	200034f6 <UsbHostIrq+0x56>
200034de:	4b57      	ldr	r3, [pc, #348]	@ (2000363c <UsbHostIrq+0x19c>)
200034e0:	4a57      	ldr	r2, [pc, #348]	@ (20003640 <UsbHostIrq+0x1a0>)
200034e2:	6a9b      	ldr	r3, [r3, #40]	@ 0x28
200034e4:	6812      	ldr	r2, [r2, #0]
200034e6:	1a9b      	subs	r3, r3, r2
200034e8:	2b00      	cmp	r3, #0
200034ea:	db04      	blt.n	200034f6 <UsbHostIrq+0x56>
200034ec:	4b55      	ldr	r3, [pc, #340]	@ (20003644 <UsbHostIrq+0x1a4>)
200034ee:	2100      	movs	r1, #0
200034f0:	7818      	ldrb	r0, [r3, #0]
200034f2:	f7ff fec3 	bl	2000327c <UsbHostEnum>
200034f6:	f3bf 8f5f 	dmb	sy
200034fa:	4b4d      	ldr	r3, [pc, #308]	@ (20003630 <UsbHostIrq+0x190>)
200034fc:	f8d3 4098 	ldr.w	r4, [r3, #152]	@ 0x98
20003500:	07e2      	lsls	r2, r4, #31
20003502:	d50a      	bpl.n	2000351a <UsbHostIrq+0x7a>
20003504:	4e4c      	ldr	r6, [pc, #304]	@ (20003638 <UsbHostIrq+0x198>)
20003506:	4a4b      	ldr	r2, [pc, #300]	@ (20003634 <UsbHostIrq+0x194>)
20003508:	7833      	ldrb	r3, [r6, #0]
2000350a:	2b00      	cmp	r3, #0
2000350c:	d069      	beq.n	200035e2 <UsbHostIrq+0x142>
2000350e:	7833      	ldrb	r3, [r6, #0]
20003510:	2b03      	cmp	r3, #3
20003512:	d866      	bhi.n	200035e2 <UsbHostIrq+0x142>
20003514:	f44f 7340 	mov.w	r3, #768	@ 0x300
20003518:	6513      	str	r3, [r2, #80]	@ 0x50
2000351a:	07a3      	lsls	r3, r4, #30
2000351c:	bf42      	ittt	mi
2000351e:	f44f 6200 	movmi.w	r2, #2048	@ 0x800
20003522:	4b44      	ldrmi	r3, [pc, #272]	@ (20003634 <UsbHostIrq+0x194>)
20003524:	651a      	strmi	r2, [r3, #80]	@ 0x50
20003526:	0727      	lsls	r7, r4, #28
20003528:	d514      	bpl.n	20003554 <UsbHostIrq+0xb4>
2000352a:	f44f 2280 	mov.w	r2, #262144	@ 0x40000
2000352e:	4b41      	ldr	r3, [pc, #260]	@ (20003634 <UsbHostIrq+0x194>)
20003530:	4d45      	ldr	r5, [pc, #276]	@ (20003648 <UsbHostIrq+0x1a8>)
20003532:	651a      	str	r2, [r3, #80]	@ 0x50
20003534:	786b      	ldrb	r3, [r5, #1]
20003536:	b16b      	cbz	r3, 20003554 <UsbHostIrq+0xb4>
20003538:	4b3d      	ldr	r3, [pc, #244]	@ (20003630 <UsbHostIrq+0x190>)
2000353a:	6cdb      	ldr	r3, [r3, #76]	@ 0x4c
2000353c:	079e      	lsls	r6, r3, #30
2000353e:	d509      	bpl.n	20003554 <UsbHostIrq+0xb4>
20003540:	f44f 70c8 	mov.w	r0, #400	@ 0x190
20003544:	f7fe fbc4 	bl	20001cd0 <WaitUs>
20003548:	2100      	movs	r1, #0
2000354a:	2308      	movs	r3, #8
2000354c:	4608      	mov	r0, r1
2000354e:	822b      	strh	r3, [r5, #16]
20003550:	f7ff fc1c 	bl	20002d8c <UsbHostComp>
20003554:	06e5      	lsls	r5, r4, #27
20003556:	d521      	bpl.n	2000359c <UsbHostIrq+0xfc>
20003558:	2500      	movs	r5, #0
2000355a:	2603      	movs	r6, #3
2000355c:	f04f 0b24 	mov.w	fp, #36	@ 0x24
20003560:	4b33      	ldr	r3, [pc, #204]	@ (20003630 <UsbHostIrq+0x190>)
20003562:	f8df 90d0 	ldr.w	r9, [pc, #208]	@ 20003634 <UsbHostIrq+0x194>
20003566:	f8d3 8058 	ldr.w	r8, [r3, #88]	@ 0x58
2000356a:	f8df a0dc 	ldr.w	sl, [pc, #220]	@ 20003648 <UsbHostIrq+0x1a8>
2000356e:	ea16 0f08 	tst.w	r6, r8
20003572:	d00e      	beq.n	20003592 <UsbHostIrq+0xf2>
20003574:	fb0b a305 	mla	r3, fp, r5, sl
20003578:	f8c9 6058 	str.w	r6, [r9, #88]	@ 0x58
2000357c:	785b      	ldrb	r3, [r3, #1]
2000357e:	b143      	cbz	r3, 20003592 <UsbHostIrq+0xf2>
20003580:	b2ef      	uxtb	r7, r5
20003582:	4638      	mov	r0, r7
20003584:	f7ff f82c 	bl	200025e0 <UsbXferCont>
20003588:	b118      	cbz	r0, 20003592 <UsbHostIrq+0xf2>
2000358a:	2100      	movs	r1, #0
2000358c:	4638      	mov	r0, r7
2000358e:	f7ff fbfd 	bl	20002d8c <UsbHostComp>
20003592:	3501      	adds	r5, #1
20003594:	2d10      	cmp	r5, #16
20003596:	ea4f 0686 	mov.w	r6, r6, lsl #2
2000359a:	d1e8      	bne.n	2000356e <UsbHostIrq+0xce>
2000359c:	06a0      	lsls	r0, r4, #26
2000359e:	bf42      	ittt	mi
200035a0:	f04f 4200 	movmi.w	r2, #2147483648	@ 0x80000000
200035a4:	4b23      	ldrmi	r3, [pc, #140]	@ (20003634 <UsbHostIrq+0x194>)
200035a6:	651a      	strmi	r2, [r3, #80]	@ 0x50
200035a8:	0661      	lsls	r1, r4, #25
200035aa:	bf42      	ittt	mi
200035ac:	f04f 6200 	movmi.w	r2, #134217728	@ 0x8000000
200035b0:	4b20      	ldrmi	r3, [pc, #128]	@ (20003634 <UsbHostIrq+0x194>)
200035b2:	651a      	strmi	r2, [r3, #80]	@ 0x50
200035b4:	0562      	lsls	r2, r4, #21
200035b6:	d507      	bpl.n	200035c8 <UsbHostIrq+0x128>
200035b8:	f04f 5200 	mov.w	r2, #536870912	@ 0x20000000
200035bc:	4b1d      	ldr	r3, [pc, #116]	@ (20003634 <UsbHostIrq+0x194>)
200035be:	2102      	movs	r1, #2
200035c0:	2000      	movs	r0, #0
200035c2:	651a      	str	r2, [r3, #80]	@ 0x50
200035c4:	f7ff fbe2 	bl	20002d8c <UsbHostComp>
200035c8:	0763      	lsls	r3, r4, #29
200035ca:	d52f      	bpl.n	2000362c <UsbHostIrq+0x18c>
200035cc:	4b18      	ldr	r3, [pc, #96]	@ (20003630 <UsbHostIrq+0x190>)
200035ce:	6c98      	ldr	r0, [r3, #72]	@ 0x48
200035d0:	4b1e      	ldr	r3, [pc, #120]	@ (2000364c <UsbHostIrq+0x1ac>)
200035d2:	781b      	ldrb	r3, [r3, #0]
200035d4:	b353      	cbz	r3, 2000362c <UsbHostIrq+0x18c>
200035d6:	e8bd 4ff8 	ldmia.w	sp!, {r3, r4, r5, r6, r7, r8, r9, sl, fp, lr}
200035da:	f3c0 000a 	ubfx	r0, r0, #0, #11
200035de:	f7ff bac6 	b.w	20002b6e <UsbHostHidSof>
200035e2:	2700      	movs	r7, #0
200035e4:	4b1a      	ldr	r3, [pc, #104]	@ (20003650 <UsbHostIrq+0x1b0>)
200035e6:	701f      	strb	r7, [r3, #0]
200035e8:	f7fe ff14 	bl	20002414 <UsbGetDevSpeed>
200035ec:	4605      	mov	r5, r0
200035ee:	f3bf 8f5f 	dmb	sy
200035f2:	f44f 7340 	mov.w	r3, #768	@ 0x300
200035f6:	6513      	str	r3, [r2, #80]	@ 0x50
200035f8:	f7ff fd6e 	bl	200030d8 <UsbHostEnumStop>
200035fc:	b18d      	cbz	r5, 20003622 <UsbHostIrq+0x182>
200035fe:	2203      	movs	r2, #3
20003600:	4b14      	ldr	r3, [pc, #80]	@ (20003654 <UsbHostIrq+0x1b4>)
20003602:	801f      	strh	r7, [r3, #0]
20003604:	709d      	strb	r5, [r3, #2]
20003606:	4b14      	ldr	r3, [pc, #80]	@ (20003658 <UsbHostIrq+0x1b8>)
20003608:	701a      	strb	r2, [r3, #0]
2000360a:	4b0c      	ldr	r3, [pc, #48]	@ (2000363c <UsbHostIrq+0x19c>)
2000360c:	4a0c      	ldr	r2, [pc, #48]	@ (20003640 <UsbHostIrq+0x1a0>)
2000360e:	6a9b      	ldr	r3, [r3, #40]	@ 0x28
20003610:	f503 4343 	add.w	r3, r3, #49920	@ 0xc300
20003614:	3350      	adds	r3, #80	@ 0x50
20003616:	6013      	str	r3, [r2, #0]
20003618:	f3bf 8f5f 	dmb	sy
2000361c:	2301      	movs	r3, #1
2000361e:	7033      	strb	r3, [r6, #0]
20003620:	e77b      	b.n	2000351a <UsbHostIrq+0x7a>
20003622:	4629      	mov	r1, r5
20003624:	4628      	mov	r0, r5
20003626:	f7ff fd7b 	bl	20003120 <UsbHostDevRemove>
2000362a:	e776      	b.n	2000351a <UsbHostIrq+0x7a>
2000362c:	e8bd 8ff8 	ldmia.w	sp!, {r3, r4, r5, r6, r7, r8, r9, sl, fp, pc}
20003630:	50110000 	.word	0x50110000
20003634:	50113000 	.word	0x50113000
20003638:	20032944 	.word	0x20032944
2000363c:	400b0000 	.word	0x400b0000
20003640:	20031cec 	.word	0x20031cec
20003644:	20032943 	.word	0x20032943
20003648:	20031868 	.word	0x20031868
2000364c:	20032a4a 	.word	0x20032a4a
20003650:	20032933 	.word	0x20032933
20003654:	2003229e 	.word	0x2003229e
20003658:	20032945 	.word	0x20032945

2000365c <UsbTerm>:
2000365c:	2100      	movs	r1, #0
2000365e:	4b14      	ldr	r3, [pc, #80]	@ (200036b0 <UsbTerm+0x54>)
20003660:	b510      	push	{r4, lr}
20003662:	f8c3 1090 	str.w	r1, [r3, #144]	@ 0x90
20003666:	6559      	str	r1, [r3, #84]	@ 0x54
20003668:	f7fe fec8 	bl	200023fc <UsbIntDisable>
2000366c:	f44f 3280 	mov.w	r2, #65536	@ 0x10000
20003670:	4b10      	ldr	r3, [pc, #64]	@ (200036b4 <UsbTerm+0x58>)
20003672:	64da      	str	r2, [r3, #76]	@ 0x4c
20003674:	4a10      	ldr	r2, [pc, #64]	@ (200036b8 <UsbTerm+0x5c>)
20003676:	f5a3 3398 	sub.w	r3, r3, #77824	@ 0x13000
2000367a:	6019      	str	r1, [r3, #0]
2000367c:	f8c3 1080 	str.w	r1, [r3, #128]	@ 0x80
20003680:	3304      	adds	r3, #4
20003682:	4293      	cmp	r3, r2
20003684:	d1f9      	bne.n	2000367a <UsbTerm+0x1e>
20003686:	4b0d      	ldr	r3, [pc, #52]	@ (200036bc <UsbTerm+0x60>)
20003688:	480d      	ldr	r0, [pc, #52]	@ (200036c0 <UsbTerm+0x64>)
2000368a:	f8c3 1100 	str.w	r1, [r3, #256]	@ 0x100
2000368e:	7803      	ldrb	r3, [r0, #0]
20003690:	b10b      	cbz	r3, 20003696 <UsbTerm+0x3a>
20003692:	f7fd faf7 	bl	20000c84 <UsbHostHidTerm>
20003696:	2100      	movs	r1, #0
20003698:	4c0a      	ldr	r4, [pc, #40]	@ (200036c4 <UsbTerm+0x68>)
2000369a:	4b0b      	ldr	r3, [pc, #44]	@ (200036c8 <UsbTerm+0x6c>)
2000369c:	7001      	strb	r1, [r0, #0]
2000369e:	f04f 5080 	mov.w	r0, #268435456	@ 0x10000000
200036a2:	7021      	strb	r1, [r4, #0]
200036a4:	7019      	strb	r1, [r3, #0]
200036a6:	f7fe f8cd 	bl	20001844 <ResetPeripheryMask>
200036aa:	7021      	strb	r1, [r4, #0]
200036ac:	bd10      	pop	{r4, pc}
200036ae:	bf00      	nop
200036b0:	50110000 	.word	0x50110000
200036b4:	50113000 	.word	0x50113000
200036b8:	50100080 	.word	0x50100080
200036bc:	50100000 	.word	0x50100000
200036c0:	20032947 	.word	0x20032947
200036c4:	20032933 	.word	0x20032933
200036c8:	20032934 	.word	0x20032934

200036cc <UsbPhyInit>:
200036cc:	b508      	push	{r3, lr}
200036ce:	f7ff ffc5 	bl	2000365c <UsbTerm>
200036d2:	229c      	movs	r2, #156	@ 0x9c
200036d4:	2100      	movs	r1, #0
200036d6:	480d      	ldr	r0, [pc, #52]	@ (2000370c <UsbPhyInit+0x40>)
200036d8:	f005 fde8 	bl	200092ac <memset>
200036dc:	f44f 72c0 	mov.w	r2, #384	@ 0x180
200036e0:	2100      	movs	r1, #0
200036e2:	480b      	ldr	r0, [pc, #44]	@ (20003710 <UsbPhyInit+0x44>)
200036e4:	f005 fde2 	bl	200092ac <memset>
200036e8:	f44f 6290 	mov.w	r2, #1152	@ 0x480
200036ec:	2100      	movs	r1, #0
200036ee:	4809      	ldr	r0, [pc, #36]	@ (20003714 <UsbPhyInit+0x48>)
200036f0:	f005 fddc 	bl	200092ac <memset>
200036f4:	203f      	movs	r0, #63	@ 0x3f
200036f6:	2100      	movs	r1, #0
200036f8:	4b07      	ldr	r3, [pc, #28]	@ (20003718 <UsbPhyInit+0x4c>)
200036fa:	4a04      	ldr	r2, [pc, #16]	@ (2000370c <UsbPhyInit+0x40>)
200036fc:	e9c3 0100 	strd	r0, r1, [r3]
20003700:	2309      	movs	r3, #9
20003702:	6753      	str	r3, [r2, #116]	@ 0x74
20003704:	230c      	movs	r3, #12
20003706:	6793      	str	r3, [r2, #120]	@ 0x78
20003708:	bd08      	pop	{r3, pc}
2000370a:	bf00      	nop
2000370c:	50110000 	.word	0x50110000
20003710:	50100000 	.word	0x50100000
20003714:	20031868 	.word	0x20031868
20003718:	2000aae0 	.word	0x2000aae0

2000371c <UsbHostInit>:
2000371c:	2201      	movs	r2, #1
2000371e:	4b2c      	ldr	r3, [pc, #176]	@ (200037d0 <UsbHostInit+0xb4>)
20003720:	b570      	push	{r4, r5, r6, lr}
20003722:	701a      	strb	r2, [r3, #0]
20003724:	f7ff ffd2 	bl	200036cc <UsbPhyInit>
20003728:	f04f 23e0 	mov.w	r3, #3758153728	@ 0xe000e000
2000372c:	4a29      	ldr	r2, [pc, #164]	@ (200037d4 <UsbHostInit+0xb8>)
2000372e:	f8d3 3d08 	ldr.w	r3, [r3, #3336]	@ 0xd08
20003732:	679a      	str	r2, [r3, #120]	@ 0x78
20003734:	f3bf 8f5f 	dmb	sy
20003738:	2100      	movs	r1, #0
2000373a:	4b27      	ldr	r3, [pc, #156]	@ (200037d8 <UsbHostInit+0xbc>)
2000373c:	2440      	movs	r4, #64	@ 0x40
2000373e:	7019      	strb	r1, [r3, #0]
20003740:	4b26      	ldr	r3, [pc, #152]	@ (200037dc <UsbHostInit+0xc0>)
20003742:	4a27      	ldr	r2, [pc, #156]	@ (200037e0 <UsbHostInit+0xc4>)
20003744:	7019      	strb	r1, [r3, #0]
20003746:	4b27      	ldr	r3, [pc, #156]	@ (200037e4 <UsbHostInit+0xc8>)
20003748:	4827      	ldr	r0, [pc, #156]	@ (200037e8 <UsbHostInit+0xcc>)
2000374a:	7019      	strb	r1, [r3, #0]
2000374c:	4b27      	ldr	r3, [pc, #156]	@ (200037ec <UsbHostInit+0xd0>)
2000374e:	6019      	str	r1, [r3, #0]
20003750:	4b27      	ldr	r3, [pc, #156]	@ (200037f0 <UsbHostInit+0xd4>)
20003752:	461d      	mov	r5, r3
20003754:	61da      	str	r2, [r3, #28]
20003756:	f102 0680 	add.w	r6, r2, #128	@ 0x80
2000375a:	3208      	adds	r2, #8
2000375c:	4282      	cmp	r2, r0
2000375e:	6159      	str	r1, [r3, #20]
20003760:	621e      	str	r6, [r3, #32]
20003762:	815c      	strh	r4, [r3, #10]
20003764:	f103 0324 	add.w	r3, r3, #36	@ 0x24
20003768:	d1f4      	bne.n	20003754 <UsbHostInit+0x38>
2000376a:	f240 30ff 	movw	r0, #1023	@ 0x3ff
2000376e:	f7fe ff5b 	bl	20002628 <UsbRamAlloc>
20003772:	f240 33ff 	movw	r3, #1023	@ 0x3ff
20003776:	2401      	movs	r4, #1
20003778:	816b      	strh	r3, [r5, #10]
2000377a:	4b1e      	ldr	r3, [pc, #120]	@ (200037f4 <UsbHostInit+0xd8>)
2000377c:	6168      	str	r0, [r5, #20]
2000377e:	61eb      	str	r3, [r5, #28]
20003780:	702c      	strb	r4, [r5, #0]
20003782:	4d1d      	ldr	r5, [pc, #116]	@ (200037f8 <UsbHostInit+0xdc>)
20003784:	2000      	movs	r0, #0
20003786:	702c      	strb	r4, [r5, #0]
20003788:	f7fe fc94 	bl	200020b4 <UsbHostClrDev>
2000378c:	4620      	mov	r0, r4
2000378e:	f7fe fc91 	bl	200020b4 <UsbHostClrDev>
20003792:	2002      	movs	r0, #2
20003794:	f7fe fc8e 	bl	200020b4 <UsbHostClrDev>
20003798:	2003      	movs	r0, #3
2000379a:	f7fe fc8b 	bl	200020b4 <UsbHostClrDev>
2000379e:	2004      	movs	r0, #4
200037a0:	f7fe fc88 	bl	200020b4 <UsbHostClrDev>
200037a4:	2203      	movs	r2, #3
200037a6:	4b15      	ldr	r3, [pc, #84]	@ (200037fc <UsbHostInit+0xe0>)
200037a8:	f240 417b 	movw	r1, #1147	@ 0x47b
200037ac:	641a      	str	r2, [r3, #64]	@ 0x40
200037ae:	4a14      	ldr	r2, [pc, #80]	@ (20003800 <UsbHostInit+0xe4>)
200037b0:	64da      	str	r2, [r3, #76]	@ 0x4c
200037b2:	f240 427f 	movw	r2, #1151	@ 0x47f
200037b6:	7828      	ldrb	r0, [r5, #0]
200037b8:	2800      	cmp	r0, #0
200037ba:	bf08      	it	eq
200037bc:	460a      	moveq	r2, r1
200037be:	f8c3 2090 	str.w	r2, [r3, #144]	@ 0x90
200037c2:	f7fd fa7d 	bl	20000cc0 <UsbHostHidInit>
200037c6:	f7fe fe0f 	bl	200023e8 <UsbIntEnable>
200037ca:	4b0e      	ldr	r3, [pc, #56]	@ (20003804 <UsbHostInit+0xe8>)
200037cc:	701c      	strb	r4, [r3, #0]
200037ce:	bd70      	pop	{r4, r5, r6, pc}
200037d0:	20032948 	.word	0x20032948
200037d4:	200034a1 	.word	0x200034a1
200037d8:	20032933 	.word	0x20032933
200037dc:	20032a49 	.word	0x20032a49
200037e0:	50100000 	.word	0x50100000
200037e4:	20032944 	.word	0x20032944
200037e8:	50100080 	.word	0x50100080
200037ec:	20032268 	.word	0x20032268
200037f0:	20031868 	.word	0x20031868
200037f4:	50100100 	.word	0x50100100
200037f8:	20032a4a 	.word	0x20032a4a
200037fc:	50110000 	.word	0x50110000
20003800:	20008600 	.word	0x20008600
20003804:	20032947 	.word	0x20032947

20003808 <PWMSndIrq>:
20003808:	4bbe      	ldr	r3, [pc, #760]	@ (20003b04 <PWMSndIrq+0x2fc>)
2000380a:	e92d 4ff0 	stmdb	sp!, {r4, r5, r6, r7, r8, r9, sl, fp, lr}
2000380e:	681a      	ldr	r2, [r3, #0]
20003810:	2301      	movs	r3, #1
20003812:	4093      	lsls	r3, r2
20003814:	4abc      	ldr	r2, [pc, #752]	@ (20003b08 <PWMSndIrq+0x300>)
20003816:	b085      	sub	sp, #20
20003818:	f8c2 30f4 	str.w	r3, [r2, #244]	@ 0xf4
2000381c:	2300      	movs	r3, #0
2000381e:	4abb      	ldr	r2, [pc, #748]	@ (20003b0c <PWMSndIrq+0x304>)
20003820:	9302      	str	r3, [sp, #8]
20003822:	4610      	mov	r0, r2
20003824:	4bba      	ldr	r3, [pc, #744]	@ (20003b10 <PWMSndIrq+0x308>)
20003826:	9200      	str	r2, [sp, #0]
20003828:	6859      	ldr	r1, [r3, #4]
2000382a:	2900      	cmp	r1, #0
2000382c:	dd4f      	ble.n	200038ce <PWMSndIrq+0xc6>
2000382e:	f893 6034 	ldrb.w	r6, [r3, #52]	@ 0x34
20003832:	681a      	ldr	r2, [r3, #0]
20003834:	689d      	ldr	r5, [r3, #8]
20003836:	2e00      	cmp	r6, #0
20003838:	f040 8090 	bne.w	2000395c <PWMSndIrq+0x154>
2000383c:	7817      	ldrb	r7, [r2, #0]
2000383e:	2901      	cmp	r1, #1
20003840:	f1a7 0780 	sub.w	r7, r7, #128	@ 0x80
20003844:	bf0c      	ite	eq
20003846:	463e      	moveq	r6, r7
20003848:	7856      	ldrbne	r6, [r2, #1]
2000384a:	f5c5 6c80 	rsb	ip, r5, #1024	@ 0x400
2000384e:	bf18      	it	ne
20003850:	3e80      	subne	r6, #128	@ 0x80
20003852:	436e      	muls	r6, r5
20003854:	fb07 660c 	mla	r6, r7, ip, r6
20003858:	6a1f      	ldr	r7, [r3, #32]
2000385a:	9c00      	ldr	r4, [sp, #0]
2000385c:	437e      	muls	r6, r7
2000385e:	68df      	ldr	r7, [r3, #12]
20003860:	eb04 14e6 	add.w	r4, r4, r6, asr #7
20003864:	442f      	add	r7, r5
20003866:	eb00 10e6 	add.w	r0, r0, r6, asr #7
2000386a:	9400      	str	r4, [sp, #0]
2000386c:	ebc1 26a7 	rsb	r6, r1, r7, asr #10
20003870:	eb02 22a7 	add.w	r2, r2, r7, asr #10
20003874:	f3c7 0509 	ubfx	r5, r7, #0, #10
20003878:	eba1 21a7 	sub.w	r1, r1, r7, asr #10
2000387c:	2900      	cmp	r1, #0
2000387e:	dc23      	bgt.n	200038c8 <PWMSndIrq+0xc0>
20003880:	2700      	movs	r7, #0
20003882:	695a      	ldr	r2, [r3, #20]
20003884:	855f      	strh	r7, [r3, #42]	@ 0x2a
20003886:	4432      	add	r2, r6
20003888:	699e      	ldr	r6, [r3, #24]
2000388a:	f883 7035 	strb.w	r7, [r3, #53]	@ 0x35
2000388e:	4431      	add	r1, r6
20003890:	7f1e      	ldrb	r6, [r3, #28]
20003892:	f883 7036 	strb.w	r7, [r3, #54]	@ 0x36
20003896:	861f      	strh	r7, [r3, #48]	@ 0x30
20003898:	865f      	strh	r7, [r3, #50]	@ 0x32
2000389a:	f883 7037 	strb.w	r7, [r3, #55]	@ 0x37
2000389e:	859f      	strh	r7, [r3, #44]	@ 0x2c
200038a0:	85df      	strh	r7, [r3, #46]	@ 0x2e
200038a2:	b18e      	cbz	r6, 200038c8 <PWMSndIrq+0xc0>
200038a4:	7f5e      	ldrb	r6, [r3, #29]
200038a6:	619f      	str	r7, [r3, #24]
200038a8:	b176      	cbz	r6, 200038c8 <PWMSndIrq+0xc0>
200038aa:	f3bf 8f5f 	dmb	sy
200038ae:	f04f 0c01 	mov.w	ip, #1
200038b2:	7f9e      	ldrb	r6, [r3, #30]
200038b4:	1177      	asrs	r7, r6, #5
200038b6:	f006 061f 	and.w	r6, r6, #31
200038ba:	fa0c fc06 	lsl.w	ip, ip, r6
200038be:	f107 0640 	add.w	r6, r7, #64	@ 0x40
200038c2:	4f94      	ldr	r7, [pc, #592]	@ (20003b14 <PWMSndIrq+0x30c>)
200038c4:	f847 c026 	str.w	ip, [r7, r6, lsl #2]
200038c8:	6059      	str	r1, [r3, #4]
200038ca:	601a      	str	r2, [r3, #0]
200038cc:	609d      	str	r5, [r3, #8]
200038ce:	9a02      	ldr	r2, [sp, #8]
200038d0:	333c      	adds	r3, #60	@ 0x3c
200038d2:	3201      	adds	r2, #1
200038d4:	2a04      	cmp	r2, #4
200038d6:	9202      	str	r2, [sp, #8]
200038d8:	d1a6      	bne.n	20003828 <PWMSndIrq+0x20>
200038da:	f240 76ff 	movw	r6, #2047	@ 0x7ff
200038de:	4a8e      	ldr	r2, [pc, #568]	@ (20003b18 <PWMSndIrq+0x310>)
200038e0:	2114      	movs	r1, #20
200038e2:	6813      	ldr	r3, [r2, #0]
200038e4:	4f8d      	ldr	r7, [pc, #564]	@ (20003b1c <PWMSndIrq+0x314>)
200038e6:	f083 0301 	eor.w	r3, r3, #1
200038ea:	6013      	str	r3, [r2, #0]
200038ec:	025b      	lsls	r3, r3, #9
200038ee:	f503 7380 	add.w	r3, r3, #256	@ 0x100
200038f2:	4418      	add	r0, r3
200038f4:	1280      	asrs	r0, r0, #10
200038f6:	42b0      	cmp	r0, r6
200038f8:	bfa8      	it	ge
200038fa:	4630      	movge	r0, r6
200038fc:	4a81      	ldr	r2, [pc, #516]	@ (20003b04 <PWMSndIrq+0x2fc>)
200038fe:	4d88      	ldr	r5, [pc, #544]	@ (20003b20 <PWMSndIrq+0x318>)
20003900:	6812      	ldr	r2, [r2, #0]
20003902:	683f      	ldr	r7, [r7, #0]
20003904:	434a      	muls	r2, r1
20003906:	2f00      	cmp	r7, #0
20003908:	eb02 0105 	add.w	r1, r2, r5
2000390c:	ea20 70e0 	bic.w	r0, r0, r0, asr #31
20003910:	f441 5180 	orr.w	r1, r1, #4096	@ 0x1000
20003914:	db13      	blt.n	2000393e <PWMSndIrq+0x136>
20003916:	9c00      	ldr	r4, [sp, #0]
20003918:	5957      	ldr	r7, [r2, r5]
2000391a:	441c      	add	r4, r3
2000391c:	12a4      	asrs	r4, r4, #10
2000391e:	42b4      	cmp	r4, r6
20003920:	bfa8      	it	ge
20003922:	4634      	movge	r4, r6
20003924:	f64f 76ff 	movw	r6, #65535	@ 0xffff
20003928:	4b7e      	ldr	r3, [pc, #504]	@ (20003b24 <PWMSndIrq+0x31c>)
2000392a:	ea24 74e4 	bic.w	r4, r4, r4, asr #31
2000392e:	681b      	ldr	r3, [r3, #0]
20003930:	011b      	lsls	r3, r3, #4
20003932:	409c      	lsls	r4, r3
20003934:	407c      	eors	r4, r7
20003936:	fa06 f303 	lsl.w	r3, r6, r3
2000393a:	401c      	ands	r4, r3
2000393c:	600c      	str	r4, [r1, #0]
2000393e:	4b7a      	ldr	r3, [pc, #488]	@ (20003b28 <PWMSndIrq+0x320>)
20003940:	5952      	ldr	r2, [r2, r5]
20003942:	681b      	ldr	r3, [r3, #0]
20003944:	011b      	lsls	r3, r3, #4
20003946:	4098      	lsls	r0, r3
20003948:	4050      	eors	r0, r2
2000394a:	f64f 72ff 	movw	r2, #65535	@ 0xffff
2000394e:	fa02 f303 	lsl.w	r3, r2, r3
20003952:	4018      	ands	r0, r3
20003954:	6008      	str	r0, [r1, #0]
20003956:	b005      	add	sp, #20
20003958:	e8bd 8ff0 	ldmia.w	sp!, {r4, r5, r6, r7, r8, r9, sl, fp, pc}
2000395c:	2e40      	cmp	r6, #64	@ 0x40
2000395e:	d13c      	bne.n	200039da <PWMSndIrq+0x1d2>
20003960:	7817      	ldrb	r7, [r2, #0]
20003962:	2901      	cmp	r1, #1
20003964:	f1a7 0780 	sub.w	r7, r7, #128	@ 0x80
20003968:	bf0c      	ite	eq
2000396a:	463e      	moveq	r6, r7
2000396c:	7896      	ldrbne	r6, [r2, #2]
2000396e:	f5c5 6c80 	rsb	ip, r5, #1024	@ 0x400
20003972:	bf18      	it	ne
20003974:	3e80      	subne	r6, #128	@ 0x80
20003976:	436e      	muls	r6, r5
20003978:	fb07 660c 	mla	r6, r7, ip, r6
2000397c:	f8d3 e020 	ldr.w	lr, [r3, #32]
20003980:	2901      	cmp	r1, #1
20003982:	fb06 f60e 	mul.w	r6, r6, lr
20003986:	ea4f 16e6 	mov.w	r6, r6, asr #7
2000398a:	bf0c      	ite	eq
2000398c:	4637      	moveq	r7, r6
2000398e:	78d7      	ldrbne	r7, [r2, #3]
20003990:	f892 8001 	ldrb.w	r8, [r2, #1]
20003994:	bf18      	it	ne
20003996:	3f80      	subne	r7, #128	@ 0x80
20003998:	436f      	muls	r7, r5
2000399a:	f1a8 0880 	sub.w	r8, r8, #128	@ 0x80
2000399e:	fb08 770c 	mla	r7, r8, ip, r7
200039a2:	fb07 fe0e 	mul.w	lr, r7, lr
200039a6:	4f5d      	ldr	r7, [pc, #372]	@ (20003b1c <PWMSndIrq+0x314>)
200039a8:	ea4f 1eee 	mov.w	lr, lr, asr #7
200039ac:	683f      	ldr	r7, [r7, #0]
200039ae:	2f00      	cmp	r7, #0
200039b0:	db04      	blt.n	200039bc <PWMSndIrq+0x1b4>
200039b2:	9c00      	ldr	r4, [sp, #0]
200039b4:	4430      	add	r0, r6
200039b6:	4474      	add	r4, lr
200039b8:	9400      	str	r4, [sp, #0]
200039ba:	e002      	b.n	200039c2 <PWMSndIrq+0x1ba>
200039bc:	4476      	add	r6, lr
200039be:	eb00 0066 	add.w	r0, r0, r6, asr #1
200039c2:	68de      	ldr	r6, [r3, #12]
200039c4:	4435      	add	r5, r6
200039c6:	12ae      	asrs	r6, r5, #10
200039c8:	eb02 0246 	add.w	r2, r2, r6, lsl #1
200039cc:	1b89      	subs	r1, r1, r6
200039ce:	f06f 0601 	mvn.w	r6, #1
200039d2:	434e      	muls	r6, r1
200039d4:	f3c5 0509 	ubfx	r5, r5, #0, #10
200039d8:	e750      	b.n	2000387c <PWMSndIrq+0x74>
200039da:	2e02      	cmp	r6, #2
200039dc:	d11b      	bne.n	20003a16 <PWMSndIrq+0x20e>
200039de:	f992 6001 	ldrsb.w	r6, [r2, #1]
200039e2:	7817      	ldrb	r7, [r2, #0]
200039e4:	2901      	cmp	r1, #1
200039e6:	eb07 2706 	add.w	r7, r7, r6, lsl #8
200039ea:	bf0e      	itee	eq
200039ec:	463e      	moveq	r6, r7
200039ee:	f992 c003 	ldrsbne.w	ip, [r2, #3]
200039f2:	7896      	ldrbne	r6, [r2, #2]
200039f4:	9c00      	ldr	r4, [sp, #0]
200039f6:	bf18      	it	ne
200039f8:	eb06 260c 	addne.w	r6, r6, ip, lsl #8
200039fc:	436e      	muls	r6, r5
200039fe:	f5c5 6c80 	rsb	ip, r5, #1024	@ 0x400
20003a02:	fb07 660c 	mla	r6, r7, ip, r6
20003a06:	6a1f      	ldr	r7, [r3, #32]
20003a08:	12b6      	asrs	r6, r6, #10
20003a0a:	437e      	muls	r6, r7
20003a0c:	eb00 1066 	add.w	r0, r0, r6, asr #5
20003a10:	eb04 1466 	add.w	r4, r4, r6, asr #5
20003a14:	e7d0      	b.n	200039b8 <PWMSndIrq+0x1b0>
20003a16:	2e42      	cmp	r6, #66	@ 0x42
20003a18:	d14c      	bne.n	20003ab4 <PWMSndIrq+0x2ac>
20003a1a:	f992 6001 	ldrsb.w	r6, [r2, #1]
20003a1e:	f892 c000 	ldrb.w	ip, [r2]
20003a22:	2901      	cmp	r1, #1
20003a24:	eb0c 2c06 	add.w	ip, ip, r6, lsl #8
20003a28:	bf0e      	itee	eq
20003a2a:	4666      	moveq	r6, ip
20003a2c:	f992 7005 	ldrsbne.w	r7, [r2, #5]
20003a30:	7916      	ldrbne	r6, [r2, #4]
20003a32:	f892 8002 	ldrb.w	r8, [r2, #2]
20003a36:	bf18      	it	ne
20003a38:	eb06 2607 	addne.w	r6, r6, r7, lsl #8
20003a3c:	436e      	muls	r6, r5
20003a3e:	f5c5 6780 	rsb	r7, r5, #1024	@ 0x400
20003a42:	fb0c 6607 	mla	r6, ip, r7, r6
20003a46:	f992 c003 	ldrsb.w	ip, [r2, #3]
20003a4a:	2901      	cmp	r1, #1
20003a4c:	eb08 280c 	add.w	r8, r8, ip, lsl #8
20003a50:	bf0e      	itee	eq
20003a52:	46c4      	moveq	ip, r8
20003a54:	f892 c006 	ldrbne.w	ip, [r2, #6]
20003a58:	f992 9007 	ldrsbne.w	r9, [r2, #7]
20003a5c:	f8d3 e020 	ldr.w	lr, [r3, #32]
20003a60:	bf18      	it	ne
20003a62:	eb0c 2c09 	addne.w	ip, ip, r9, lsl #8
20003a66:	fb05 fc0c 	mul.w	ip, r5, ip
20003a6a:	fb08 cc07 	mla	ip, r8, r7, ip
20003a6e:	12b6      	asrs	r6, r6, #10
20003a70:	ea4f 2cac 	mov.w	ip, ip, asr #10
20003a74:	fb06 f60e 	mul.w	r6, r6, lr
20003a78:	4f28      	ldr	r7, [pc, #160]	@ (20003b1c <PWMSndIrq+0x314>)
20003a7a:	fb0c fe0e 	mul.w	lr, ip, lr
20003a7e:	683f      	ldr	r7, [r7, #0]
20003a80:	1176      	asrs	r6, r6, #5
20003a82:	2f00      	cmp	r7, #0
20003a84:	ea4f 1e6e 	mov.w	lr, lr, asr #5
20003a88:	bfb6      	itet	lt
20003a8a:	4476      	addlt	r6, lr
20003a8c:	1980      	addge	r0, r0, r6
20003a8e:	eb00 0066 	addlt.w	r0, r0, r6, asr #1
20003a92:	68de      	ldr	r6, [r3, #12]
20003a94:	bfa8      	it	ge
20003a96:	9c00      	ldrge	r4, [sp, #0]
20003a98:	4435      	add	r5, r6
20003a9a:	ea4f 26a5 	mov.w	r6, r5, asr #10
20003a9e:	bfa8      	it	ge
20003aa0:	4474      	addge	r4, lr
20003aa2:	eb02 0286 	add.w	r2, r2, r6, lsl #2
20003aa6:	eba1 0106 	sub.w	r1, r1, r6
20003aaa:	bfa8      	it	ge
20003aac:	9400      	strge	r4, [sp, #0]
20003aae:	f06f 0603 	mvn.w	r6, #3
20003ab2:	e78e      	b.n	200039d2 <PWMSndIrq+0x1ca>
20003ab4:	2e01      	cmp	r6, #1
20003ab6:	f040 80a1 	bne.w	20003bfc <PWMSndIrq+0x3f4>
20003aba:	68de      	ldr	r6, [r3, #12]
20003abc:	4435      	add	r5, r6
20003abe:	ea4f 28a5 	mov.w	r8, r5, asr #10
20003ac2:	f1b8 0f00 	cmp.w	r8, #0
20003ac6:	f3c5 0509 	ubfx	r5, r5, #0, #10
20003aca:	dd08      	ble.n	20003ade <PWMSndIrq+0x2d6>
20003acc:	f647 79ff 	movw	r9, #32767	@ 0x7fff
20003ad0:	f04f 0a00 	mov.w	sl, #0
20003ad4:	8e1e      	ldrh	r6, [r3, #48]	@ 0x30
20003ad6:	859e      	strh	r6, [r3, #44]	@ 0x2c
20003ad8:	f1b8 0f00 	cmp.w	r8, #0
20003adc:	d126      	bne.n	20003b2c <PWMSndIrq+0x324>
20003ade:	8d9f      	ldrh	r7, [r3, #44]	@ 0x2c
20003ae0:	f5c5 6680 	rsb	r6, r5, #1024	@ 0x400
20003ae4:	fb17 f706 	smulbb	r7, r7, r6
20003ae8:	8e1e      	ldrh	r6, [r3, #48]	@ 0x30
20003aea:	9c00      	ldr	r4, [sp, #0]
20003aec:	fb16 7605 	smlabb	r6, r6, r5, r7
20003af0:	6a1f      	ldr	r7, [r3, #32]
20003af2:	12b6      	asrs	r6, r6, #10
20003af4:	437e      	muls	r6, r7
20003af6:	eb00 1066 	add.w	r0, r0, r6, asr #5
20003afa:	eb04 1466 	add.w	r4, r4, r6, asr #5
20003afe:	9400      	str	r4, [sp, #0]
20003b00:	2600      	movs	r6, #0
20003b02:	e6bb      	b.n	2000387c <PWMSndIrq+0x74>
20003b04:	2000aaa8 	.word	0x2000aaa8
20003b08:	400a8000 	.word	0x400a8000
20003b0c:	000ffe00 	.word	0x000ffe00
20003b10:	20031714 	.word	0x20031714
20003b14:	e000e100 	.word	0xe000e100
20003b18:	20031804 	.word	0x20031804
20003b1c:	2000aab4 	.word	0x2000aab4
20003b20:	400a800c 	.word	0x400a800c
20003b24:	2000aaac 	.word	0x2000aaac
20003b28:	2000aab0 	.word	0x2000aab0
20003b2c:	f9b3 e02a 	ldrsh.w	lr, [r3, #42]	@ 0x2a
20003b30:	f1be 0f00 	cmp.w	lr, #0
20003b34:	dc16      	bgt.n	20003b64 <PWMSndIrq+0x35c>
20003b36:	7857      	ldrb	r7, [r2, #1]
20003b38:	7816      	ldrb	r6, [r2, #0]
20003b3a:	f9b3 e028 	ldrsh.w	lr, [r3, #40]	@ 0x28
20003b3e:	eb06 2607 	add.w	r6, r6, r7, lsl #8
20003b42:	861e      	strh	r6, [r3, #48]	@ 0x30
20003b44:	7896      	ldrb	r6, [r2, #2]
20003b46:	3908      	subs	r1, #8
20003b48:	f883 6035 	strb.w	r6, [r3, #53]	@ 0x35
20003b4c:	3204      	adds	r2, #4
20003b4e:	f883 a037 	strb.w	sl, [r3, #55]	@ 0x37
20003b52:	f10e 3eff 	add.w	lr, lr, #4294967295
20003b56:	2900      	cmp	r1, #0
20003b58:	f8a3 e02a 	strh.w	lr, [r3, #42]	@ 0x2a
20003b5c:	dd4c      	ble.n	20003bf8 <PWMSndIrq+0x3f0>
20003b5e:	f108 38ff 	add.w	r8, r8, #4294967295
20003b62:	e7b9      	b.n	20003ad8 <PWMSndIrq+0x2d0>
20003b64:	f893 7037 	ldrb.w	r7, [r3, #55]	@ 0x37
20003b68:	2f00      	cmp	r7, #0
20003b6a:	d03e      	beq.n	20003bea <PWMSndIrq+0x3e2>
20003b6c:	f893 6039 	ldrb.w	r6, [r3, #57]	@ 0x39
20003b70:	0936      	lsrs	r6, r6, #4
20003b72:	fab7 f787 	clz	r7, r7
20003b76:	097f      	lsrs	r7, r7, #5
20003b78:	4ca7      	ldr	r4, [pc, #668]	@ (20003e18 <PWMSndIrq+0x610>)
20003b7a:	f883 7037 	strb.w	r7, [r3, #55]	@ 0x37
20003b7e:	f993 7035 	ldrsb.w	r7, [r3, #53]	@ 0x35
20003b82:	3901      	subs	r1, #1
20003b84:	f934 c017 	ldrsh.w	ip, [r4, r7, lsl #1]
20003b88:	4ca4      	ldr	r4, [pc, #656]	@ (20003e1c <PWMSndIrq+0x614>)
20003b8a:	f814 b006 	ldrb.w	fp, [r4, r6]
20003b8e:	445f      	add	r7, fp
20003b90:	fa5f fb87 	uxtb.w	fp, r7
20003b94:	f1bb 0f58 	cmp.w	fp, #88	@ 0x58
20003b98:	b27f      	sxtb	r7, r7
20003b9a:	d903      	bls.n	20003ba4 <PWMSndIrq+0x39c>
20003b9c:	2f00      	cmp	r7, #0
20003b9e:	bfac      	ite	ge
20003ba0:	2758      	movge	r7, #88	@ 0x58
20003ba2:	2700      	movlt	r7, #0
20003ba4:	07f4      	lsls	r4, r6, #31
20003ba6:	f883 7035 	strb.w	r7, [r3, #53]	@ 0x35
20003baa:	ea4f 07ec 	mov.w	r7, ip, asr #3
20003bae:	bf48      	it	mi
20003bb0:	eb07 07ac 	addmi.w	r7, r7, ip, asr #2
20003bb4:	07b4      	lsls	r4, r6, #30
20003bb6:	bf44      	itt	mi
20003bb8:	eb07 076c 	addmi.w	r7, r7, ip, asr #1
20003bbc:	b23f      	sxthmi	r7, r7
20003bbe:	0774      	lsls	r4, r6, #29
20003bc0:	bf44      	itt	mi
20003bc2:	44bc      	addmi	ip, r7
20003bc4:	fa0f f78c 	sxthmi.w	r7, ip
20003bc8:	0736      	lsls	r6, r6, #28
20003bca:	bf48      	it	mi
20003bcc:	427f      	negmi	r7, r7
20003bce:	f9b3 6030 	ldrsh.w	r6, [r3, #48]	@ 0x30
20003bd2:	4c93      	ldr	r4, [pc, #588]	@ (20003e20 <PWMSndIrq+0x618>)
20003bd4:	bf48      	it	mi
20003bd6:	b23f      	sxthmi	r7, r7
20003bd8:	443e      	add	r6, r7
20003bda:	42a6      	cmp	r6, r4
20003bdc:	bfb8      	it	lt
20003bde:	4626      	movlt	r6, r4
20003be0:	454e      	cmp	r6, r9
20003be2:	bfa8      	it	ge
20003be4:	464e      	movge	r6, r9
20003be6:	861e      	strh	r6, [r3, #48]	@ 0x30
20003be8:	e7b3      	b.n	20003b52 <PWMSndIrq+0x34a>
20003bea:	f812 6b01 	ldrb.w	r6, [r2], #1
20003bee:	f883 6039 	strb.w	r6, [r3, #57]	@ 0x39
20003bf2:	f006 060f 	and.w	r6, r6, #15
20003bf6:	e7bc      	b.n	20003b72 <PWMSndIrq+0x36a>
20003bf8:	2100      	movs	r1, #0
20003bfa:	e770      	b.n	20003ade <PWMSndIrq+0x2d6>
20003bfc:	2e41      	cmp	r6, #65	@ 0x41
20003bfe:	f47f ae63 	bne.w	200038c8 <PWMSndIrq+0xc0>
20003c02:	68de      	ldr	r6, [r3, #12]
20003c04:	4435      	add	r5, r6
20003c06:	ea4f 2ba5 	mov.w	fp, r5, asr #10
20003c0a:	f1bb 0f00 	cmp.w	fp, #0
20003c0e:	f3c5 0509 	ubfx	r5, r5, #0, #10
20003c12:	dd06      	ble.n	20003c22 <PWMSndIrq+0x41a>
20003c14:	8e1e      	ldrh	r6, [r3, #48]	@ 0x30
20003c16:	859e      	strh	r6, [r3, #44]	@ 0x2c
20003c18:	8e5e      	ldrh	r6, [r3, #50]	@ 0x32
20003c1a:	85de      	strh	r6, [r3, #46]	@ 0x2e
20003c1c:	f1bb 0f00 	cmp.w	fp, #0
20003c20:	d124      	bne.n	20003c6c <PWMSndIrq+0x464>
20003c22:	8d9f      	ldrh	r7, [r3, #44]	@ 0x2c
20003c24:	f8b3 e02e 	ldrh.w	lr, [r3, #46]	@ 0x2e
20003c28:	f5c5 6c80 	rsb	ip, r5, #1024	@ 0x400
20003c2c:	fb17 f70c 	smulbb	r7, r7, ip
20003c30:	fb1e fe0c 	smulbb	lr, lr, ip
20003c34:	8e1e      	ldrh	r6, [r3, #48]	@ 0x30
20003c36:	f8b3 c032 	ldrh.w	ip, [r3, #50]	@ 0x32
20003c3a:	fb16 7605 	smlabb	r6, r6, r5, r7
20003c3e:	fb1c ec05 	smlabb	ip, ip, r5, lr
20003c42:	6a1f      	ldr	r7, [r3, #32]
20003c44:	ea4f 2cac 	mov.w	ip, ip, asr #10
20003c48:	12b6      	asrs	r6, r6, #10
20003c4a:	437e      	muls	r6, r7
20003c4c:	fb0c f707 	mul.w	r7, ip, r7
20003c50:	f8df c1d0 	ldr.w	ip, [pc, #464]	@ 20003e24 <PWMSndIrq+0x61c>
20003c54:	1176      	asrs	r6, r6, #5
20003c56:	f8dc c000 	ldr.w	ip, [ip]
20003c5a:	117f      	asrs	r7, r7, #5
20003c5c:	f1bc 0f00 	cmp.w	ip, #0
20003c60:	f2c0 80d5 	blt.w	20003e0e <PWMSndIrq+0x606>
20003c64:	9c00      	ldr	r4, [sp, #0]
20003c66:	4430      	add	r0, r6
20003c68:	443c      	add	r4, r7
20003c6a:	e748      	b.n	20003afe <PWMSndIrq+0x2f6>
20003c6c:	f9b3 402a 	ldrsh.w	r4, [r3, #42]	@ 0x2a
20003c70:	2c00      	cmp	r4, #0
20003c72:	9401      	str	r4, [sp, #4]
20003c74:	dc26      	bgt.n	20003cc4 <PWMSndIrq+0x4bc>
20003c76:	f9b3 4028 	ldrsh.w	r4, [r3, #40]	@ 0x28
20003c7a:	7857      	ldrb	r7, [r2, #1]
20003c7c:	9401      	str	r4, [sp, #4]
20003c7e:	f04f 0400 	mov.w	r4, #0
20003c82:	7816      	ldrb	r6, [r2, #0]
20003c84:	3908      	subs	r1, #8
20003c86:	eb06 2607 	add.w	r6, r6, r7, lsl #8
20003c8a:	861e      	strh	r6, [r3, #48]	@ 0x30
20003c8c:	7957      	ldrb	r7, [r2, #5]
20003c8e:	7916      	ldrb	r6, [r2, #4]
20003c90:	3208      	adds	r2, #8
20003c92:	eb06 2607 	add.w	r6, r6, r7, lsl #8
20003c96:	865e      	strh	r6, [r3, #50]	@ 0x32
20003c98:	f812 6c06 	ldrb.w	r6, [r2, #-6]
20003c9c:	f883 6035 	strb.w	r6, [r3, #53]	@ 0x35
20003ca0:	f812 6c02 	ldrb.w	r6, [r2, #-2]
20003ca4:	f883 4037 	strb.w	r4, [r3, #55]	@ 0x37
20003ca8:	f883 6036 	strb.w	r6, [r3, #54]	@ 0x36
20003cac:	f883 4038 	strb.w	r4, [r3, #56]	@ 0x38
20003cb0:	9c01      	ldr	r4, [sp, #4]
20003cb2:	2900      	cmp	r1, #0
20003cb4:	f104 36ff 	add.w	r6, r4, #4294967295
20003cb8:	855e      	strh	r6, [r3, #42]	@ 0x2a
20003cba:	f340 80a6 	ble.w	20003e0a <PWMSndIrq+0x602>
20003cbe:	f10b 3bff 	add.w	fp, fp, #4294967295
20003cc2:	e7ab      	b.n	20003c1c <PWMSndIrq+0x414>
20003cc4:	f893 c037 	ldrb.w	ip, [r3, #55]	@ 0x37
20003cc8:	f1bc 0f00 	cmp.w	ip, #0
20003ccc:	f000 8083 	beq.w	20003dd6 <PWMSndIrq+0x5ce>
20003cd0:	f893 7039 	ldrb.w	r7, [r3, #57]	@ 0x39
20003cd4:	f893 603a 	ldrb.w	r6, [r3, #58]	@ 0x3a
20003cd8:	093f      	lsrs	r7, r7, #4
20003cda:	0936      	lsrs	r6, r6, #4
20003cdc:	fabc fc8c 	clz	ip, ip
20003ce0:	ea4f 1c5c 	mov.w	ip, ip, lsr #5
20003ce4:	4c4c      	ldr	r4, [pc, #304]	@ (20003e18 <PWMSndIrq+0x610>)
20003ce6:	f993 a036 	ldrsb.w	sl, [r3, #54]	@ 0x36
20003cea:	f883 c037 	strb.w	ip, [r3, #55]	@ 0x37
20003cee:	f993 c035 	ldrsb.w	ip, [r3, #53]	@ 0x35
20003cf2:	f934 801a 	ldrsh.w	r8, [r4, sl, lsl #1]
20003cf6:	f934 901c 	ldrsh.w	r9, [r4, ip, lsl #1]
20003cfa:	4c48      	ldr	r4, [pc, #288]	@ (20003e1c <PWMSndIrq+0x614>)
20003cfc:	3901      	subs	r1, #1
20003cfe:	f814 e007 	ldrb.w	lr, [r4, r7]
20003d02:	44f4      	add	ip, lr
20003d04:	fa5f f48c 	uxtb.w	r4, ip
20003d08:	9403      	str	r4, [sp, #12]
20003d0a:	4c44      	ldr	r4, [pc, #272]	@ (20003e1c <PWMSndIrq+0x614>)
20003d0c:	fa4f fc8c 	sxtb.w	ip, ip
20003d10:	f814 e006 	ldrb.w	lr, [r4, r6]
20003d14:	9c03      	ldr	r4, [sp, #12]
20003d16:	44d6      	add	lr, sl
20003d18:	2c58      	cmp	r4, #88	@ 0x58
20003d1a:	fa5f fa8e 	uxtb.w	sl, lr
20003d1e:	fa4f fe8e 	sxtb.w	lr, lr
20003d22:	d906      	bls.n	20003d32 <PWMSndIrq+0x52a>
20003d24:	f1bc 0f00 	cmp.w	ip, #0
20003d28:	bfac      	ite	ge
20003d2a:	f04f 0c58 	movge.w	ip, #88	@ 0x58
20003d2e:	f04f 0c00 	movlt.w	ip, #0
20003d32:	f1ba 0f58 	cmp.w	sl, #88	@ 0x58
20003d36:	f883 c035 	strb.w	ip, [r3, #53]	@ 0x35
20003d3a:	d906      	bls.n	20003d4a <PWMSndIrq+0x542>
20003d3c:	f1be 0f00 	cmp.w	lr, #0
20003d40:	bfac      	ite	ge
20003d42:	f04f 0e58 	movge.w	lr, #88	@ 0x58
20003d46:	f04f 0e00 	movlt.w	lr, #0
20003d4a:	ea4f 0ce9 	mov.w	ip, r9, asr #3
20003d4e:	07fc      	lsls	r4, r7, #31
20003d50:	bf48      	it	mi
20003d52:	eb0c 0ca9 	addmi.w	ip, ip, r9, asr #2
20003d56:	07bc      	lsls	r4, r7, #30
20003d58:	bf44      	itt	mi
20003d5a:	eb0c 0c69 	addmi.w	ip, ip, r9, asr #1
20003d5e:	fa0f fc8c 	sxthmi.w	ip, ip
20003d62:	077c      	lsls	r4, r7, #29
20003d64:	bf44      	itt	mi
20003d66:	44e1      	addmi	r9, ip
20003d68:	fa0f fc89 	sxthmi.w	ip, r9
20003d6c:	073f      	lsls	r7, r7, #28
20003d6e:	bf48      	it	mi
20003d70:	f1cc 0c00 	rsbmi	ip, ip, #0
20003d74:	ea4f 07e8 	mov.w	r7, r8, asr #3
20003d78:	bf48      	it	mi
20003d7a:	fa0f fc8c 	sxthmi.w	ip, ip
20003d7e:	07f4      	lsls	r4, r6, #31
20003d80:	bf48      	it	mi
20003d82:	eb07 07a8 	addmi.w	r7, r7, r8, asr #2
20003d86:	07b4      	lsls	r4, r6, #30
20003d88:	bf44      	itt	mi
20003d8a:	eb07 0768 	addmi.w	r7, r7, r8, asr #1
20003d8e:	b23f      	sxthmi	r7, r7
20003d90:	0774      	lsls	r4, r6, #29
20003d92:	bf44      	itt	mi
20003d94:	44b8      	addmi	r8, r7
20003d96:	fa0f f788 	sxthmi.w	r7, r8
20003d9a:	0734      	lsls	r4, r6, #28
20003d9c:	f9b3 6030 	ldrsh.w	r6, [r3, #48]	@ 0x30
20003da0:	4c1f      	ldr	r4, [pc, #124]	@ (20003e20 <PWMSndIrq+0x618>)
20003da2:	4466      	add	r6, ip
20003da4:	bf44      	itt	mi
20003da6:	427f      	negmi	r7, r7
20003da8:	b23f      	sxthmi	r7, r7
20003daa:	42a6      	cmp	r6, r4
20003dac:	f647 7cff 	movw	ip, #32767	@ 0x7fff
20003db0:	bfb8      	it	lt
20003db2:	4626      	movlt	r6, r4
20003db4:	4566      	cmp	r6, ip
20003db6:	bfa8      	it	ge
20003db8:	4666      	movge	r6, ip
20003dba:	861e      	strh	r6, [r3, #48]	@ 0x30
20003dbc:	f9b3 6032 	ldrsh.w	r6, [r3, #50]	@ 0x32
20003dc0:	f883 e036 	strb.w	lr, [r3, #54]	@ 0x36
20003dc4:	443e      	add	r6, r7
20003dc6:	42a6      	cmp	r6, r4
20003dc8:	bfb8      	it	lt
20003dca:	4626      	movlt	r6, r4
20003dcc:	4566      	cmp	r6, ip
20003dce:	bfa8      	it	ge
20003dd0:	4666      	movge	r6, ip
20003dd2:	865e      	strh	r6, [r3, #50]	@ 0x32
20003dd4:	e76c      	b.n	20003cb0 <PWMSndIrq+0x4a8>
20003dd6:	7817      	ldrb	r7, [r2, #0]
20003dd8:	f893 e038 	ldrb.w	lr, [r3, #56]	@ 0x38
20003ddc:	f883 7039 	strb.w	r7, [r3, #57]	@ 0x39
20003de0:	f10e 0e01 	add.w	lr, lr, #1
20003de4:	7916      	ldrb	r6, [r2, #4]
20003de6:	fa5f fe8e 	uxtb.w	lr, lr
20003dea:	f1be 0f03 	cmp.w	lr, #3
20003dee:	f883 603a 	strb.w	r6, [r3, #58]	@ 0x3a
20003df2:	f007 070f 	and.w	r7, r7, #15
20003df6:	f006 060f 	and.w	r6, r6, #15
20003dfa:	bf99      	ittee	ls
20003dfc:	3201      	addls	r2, #1
20003dfe:	f883 e038 	strbls.w	lr, [r3, #56]	@ 0x38
20003e02:	f883 c038 	strbhi.w	ip, [r3, #56]	@ 0x38
20003e06:	3205      	addhi	r2, #5
20003e08:	e768      	b.n	20003cdc <PWMSndIrq+0x4d4>
20003e0a:	2100      	movs	r1, #0
20003e0c:	e709      	b.n	20003c22 <PWMSndIrq+0x41a>
20003e0e:	443e      	add	r6, r7
20003e10:	eb00 0066 	add.w	r0, r0, r6, asr #1
20003e14:	e674      	b.n	20003b00 <PWMSndIrq+0x2f8>
20003e16:	bf00      	nop
20003e18:	20009950 	.word	0x20009950
20003e1c:	20009a02 	.word	0x20009a02
20003e20:	ffff8000 	.word	0xffff8000
20003e24:	2000aab4 	.word	0x2000aab4

20003e28 <StreamWrite0>:
20003e28:	4610      	mov	r0, r2
20003e2a:	4770      	bx	lr

20003e2c <StreamRead0>:
20003e2c:	2000      	movs	r0, #0
20003e2e:	4770      	bx	lr

20003e30 <StreamWriteBuf>:
20003e30:	b570      	push	{r4, r5, r6, lr}
20003e32:	e9d0 3500 	ldrd	r3, r5, [r0]
20003e36:	42ab      	cmp	r3, r5
20003e38:	bf28      	it	cs
20003e3a:	462b      	movcs	r3, r5
20003e3c:	4614      	mov	r4, r2
20003e3e:	189a      	adds	r2, r3, r2
20003e40:	bf2c      	ite	cs
20003e42:	2601      	movcs	r6, #1
20003e44:	2600      	movcc	r6, #0
20003e46:	42aa      	cmp	r2, r5
20003e48:	d800      	bhi.n	20003e4c <StreamWriteBuf+0x1c>
20003e4a:	b10e      	cbz	r6, 20003e50 <StreamWriteBuf+0x20>
20003e4c:	462a      	mov	r2, r5
20003e4e:	1aec      	subs	r4, r5, r3
20003e50:	6002      	str	r2, [r0, #0]
20003e52:	b12c      	cbz	r4, 20003e60 <StreamWriteBuf+0x30>
20003e54:	6880      	ldr	r0, [r0, #8]
20003e56:	b118      	cbz	r0, 20003e60 <StreamWriteBuf+0x30>
20003e58:	4622      	mov	r2, r4
20003e5a:	4418      	add	r0, r3
20003e5c:	f005 fa74 	bl	20009348 <memcpy>
20003e60:	4620      	mov	r0, r4
20003e62:	bd70      	pop	{r4, r5, r6, pc}

20003e64 <StreamReadBuf>:
20003e64:	b570      	push	{r4, r5, r6, lr}
20003e66:	4605      	mov	r5, r0
20003e68:	e9d5 3600 	ldrd	r3, r6, [r5]
20003e6c:	42b3      	cmp	r3, r6
20003e6e:	bf28      	it	cs
20003e70:	4633      	movcs	r3, r6
20003e72:	4614      	mov	r4, r2
20003e74:	189a      	adds	r2, r3, r2
20003e76:	4608      	mov	r0, r1
20003e78:	bf2c      	ite	cs
20003e7a:	2101      	movcs	r1, #1
20003e7c:	2100      	movcc	r1, #0
20003e7e:	42b2      	cmp	r2, r6
20003e80:	d800      	bhi.n	20003e84 <StreamReadBuf+0x20>
20003e82:	b109      	cbz	r1, 20003e88 <StreamReadBuf+0x24>
20003e84:	4632      	mov	r2, r6
20003e86:	1af4      	subs	r4, r6, r3
20003e88:	602a      	str	r2, [r5, #0]
20003e8a:	b124      	cbz	r4, 20003e96 <StreamReadBuf+0x32>
20003e8c:	68a9      	ldr	r1, [r5, #8]
20003e8e:	4622      	mov	r2, r4
20003e90:	4419      	add	r1, r3
20003e92:	f005 fa59 	bl	20009348 <memcpy>
20003e96:	4620      	mov	r0, r4
20003e98:	bd70      	pop	{r4, r5, r6, pc}
	...

20003e9c <AlarmUpdate>:
20003e9c:	f04f 4350 	mov.w	r3, #3489660928	@ 0xd0000000
20003ea0:	b570      	push	{r4, r5, r6, lr}
20003ea2:	681a      	ldr	r2, [r3, #0]
20003ea4:	4c0b      	ldr	r4, [pc, #44]	@ (20003ed4 <AlarmUpdate+0x38>)
20003ea6:	4b0c      	ldr	r3, [pc, #48]	@ (20003ed8 <AlarmUpdate+0x3c>)
20003ea8:	f854 0032 	ldr.w	r0, [r4, r2, lsl #3]
20003eac:	681e      	ldr	r6, [r3, #0]
20003eae:	6805      	ldr	r5, [r0, #0]
20003eb0:	eb04 04c2 	add.w	r4, r4, r2, lsl #3
20003eb4:	42a0      	cmp	r0, r4
20003eb6:	d100      	bne.n	20003eba <AlarmUpdate+0x1e>
20003eb8:	bd70      	pop	{r4, r5, r6, pc}
20003eba:	6882      	ldr	r2, [r0, #8]
20003ebc:	1ab3      	subs	r3, r6, r2
20003ebe:	2b0f      	cmp	r3, #15
20003ec0:	d804      	bhi.n	20003ecc <AlarmUpdate+0x30>
20003ec2:	68c3      	ldr	r3, [r0, #12]
20003ec4:	4413      	add	r3, r2
20003ec6:	6083      	str	r3, [r0, #8]
20003ec8:	6903      	ldr	r3, [r0, #16]
20003eca:	4798      	blx	r3
20003ecc:	4628      	mov	r0, r5
20003ece:	682d      	ldr	r5, [r5, #0]
20003ed0:	e7f0      	b.n	20003eb4 <AlarmUpdate+0x18>
20003ed2:	bf00      	nop
20003ed4:	2000aaf4 	.word	0x2000aaf4
20003ed8:	20031860 	.word	0x20031860

20003edc <AlarmInit>:
20003edc:	4b03      	ldr	r3, [pc, #12]	@ (20003eec <AlarmInit+0x10>)
20003ede:	f103 0208 	add.w	r2, r3, #8
20003ee2:	e9c3 3300 	strd	r3, r3, [r3]
20003ee6:	e9c3 2202 	strd	r2, r2, [r3, #8]
20003eea:	4770      	bx	lr
20003eec:	2000aaf4 	.word	0x2000aaf4

20003ef0 <ConfigSetDef>:
20003ef0:	2220      	movs	r2, #32
20003ef2:	b510      	push	{r4, lr}
20003ef4:	21ff      	movs	r1, #255	@ 0xff
20003ef6:	4604      	mov	r4, r0
20003ef8:	f005 f9d8 	bl	200092ac <memset>
20003efc:	2364      	movs	r3, #100	@ 0x64
20003efe:	4a06      	ldr	r2, [pc, #24]	@ (20003f18 <ConfigSetDef+0x28>)
20003f00:	70a3      	strb	r3, [r4, #2]
20003f02:	4b06      	ldr	r3, [pc, #24]	@ (20003f1c <ConfigSetDef+0x2c>)
20003f04:	e9c4 2301 	strd	r2, r3, [r4, #4]
20003f08:	4b05      	ldr	r3, [pc, #20]	@ (20003f20 <ConfigSetDef+0x30>)
20003f0a:	60e3      	str	r3, [r4, #12]
20003f0c:	4b05      	ldr	r3, [pc, #20]	@ (20003f24 <ConfigSetDef+0x34>)
20003f0e:	6123      	str	r3, [r4, #16]
20003f10:	4b05      	ldr	r3, [pc, #20]	@ (20003f28 <ConfigSetDef+0x38>)
20003f12:	6163      	str	r3, [r4, #20]
20003f14:	bd10      	pop	{r4, pc}
20003f16:	bf00      	nop
20003f18:	0c1c1068 	.word	0x0c1c1068
20003f1c:	0ce40137 	.word	0x0ce40137
20003f20:	3f34bc6a 	.word	0x3f34bc6a
20003f24:	3ae1932d 	.word	0x3ae1932d
20003f28:	00b71b00 	.word	0x00b71b00

20003f2c <Crc32ABufDMA>:
20003f2c:	b513      	push	{r0, r1, r4, lr}
20003f2e:	460b      	mov	r3, r1
20003f30:	f04f 4150 	mov.w	r1, #3489660928	@ 0xd0000000
20003f34:	680c      	ldr	r4, [r1, #0]
20003f36:	4601      	mov	r1, r0
20003f38:	9200      	str	r2, [sp, #0]
20003f3a:	2000      	movs	r0, #0
20003f3c:	f1c4 020b 	rsb	r2, r4, #11
20003f40:	f7fd f92c 	bl	2000119c <DMA_CRC>
20003f44:	b002      	add	sp, #8
20003f46:	bd10      	pop	{r4, pc}

20003f48 <Crc32ADMA>:
20003f48:	460a      	mov	r2, r1
20003f4a:	4601      	mov	r1, r0
20003f4c:	f04f 30ff 	mov.w	r0, #4294967295
20003f50:	f7ff bfec 	b.w	20003f2c <Crc32ABufDMA>

20003f54 <Crc16ABufFast>:
20003f54:	440a      	add	r2, r1
20003f56:	1a53      	subs	r3, r2, r1
20003f58:	2b00      	cmp	r3, #0
20003f5a:	dc00      	bgt.n	20003f5e <Crc16ABufFast+0xa>
20003f5c:	4770      	bx	lr
20003f5e:	f811 3b01 	ldrb.w	r3, [r1], #1
20003f62:	ba40      	rev16	r0, r0
20003f64:	b280      	uxth	r0, r0
20003f66:	4058      	eors	r0, r3
20003f68:	f3c0 1303 	ubfx	r3, r0, #4, #4
20003f6c:	4043      	eors	r3, r0
20003f6e:	b21b      	sxth	r3, r3
20003f70:	ea83 3303 	eor.w	r3, r3, r3, lsl #12
20003f74:	b21b      	sxth	r3, r3
20003f76:	0158      	lsls	r0, r3, #5
20003f78:	f400 50ff 	and.w	r0, r0, #8160	@ 0x1fe0
20003f7c:	4043      	eors	r3, r0
20003f7e:	b298      	uxth	r0, r3
20003f80:	e7e9      	b.n	20003f56 <Crc16ABufFast+0x2>

20003f82 <Crc16AFast>:
20003f82:	460a      	mov	r2, r1
20003f84:	4601      	mov	r1, r0
20003f86:	f64f 70ff 	movw	r0, #65535	@ 0xffff
20003f8a:	f7ff bfe3 	b.w	20003f54 <Crc16ABufFast>

20003f8e <ConfigGetCRC>:
20003f8e:	211e      	movs	r1, #30
20003f90:	3002      	adds	r0, #2
20003f92:	f7ff bff6 	b.w	20003f82 <Crc16AFast>
	...

20003f98 <ConfigLoad>:
20003f98:	b5f8      	push	{r3, r4, r5, r6, r7, lr}
20003f9a:	4811      	ldr	r0, [pc, #68]	@ (20003fe0 <ConfigLoad+0x48>)
20003f9c:	f7ff ffa8 	bl	20003ef0 <ConfigSetDef>
20003fa0:	267f      	movs	r6, #127	@ 0x7f
20003fa2:	4d10      	ldr	r5, [pc, #64]	@ (20003fe4 <ConfigLoad+0x4c>)
20003fa4:	eb05 1446 	add.w	r4, r5, r6, lsl #5
20003fa8:	6963      	ldr	r3, [r4, #20]
20003faa:	0177      	lsls	r7, r6, #5
20003fac:	3301      	adds	r3, #1
20003fae:	d013      	beq.n	20003fd8 <ConfigLoad+0x40>
20003fb0:	4620      	mov	r0, r4
20003fb2:	f7ff ffec 	bl	20003f8e <ConfigGetCRC>
20003fb6:	5b7b      	ldrh	r3, [r7, r5]
20003fb8:	4283      	cmp	r3, r0
20003fba:	d10d      	bne.n	20003fd8 <ConfigLoad+0x40>
20003fbc:	4f08      	ldr	r7, [pc, #32]	@ (20003fe0 <ConfigLoad+0x48>)
20003fbe:	cc0f      	ldmia	r4!, {r0, r1, r2, r3}
20003fc0:	463d      	mov	r5, r7
20003fc2:	c50f      	stmia	r5!, {r0, r1, r2, r3}
20003fc4:	e894 000f 	ldmia.w	r4, {r0, r1, r2, r3}
20003fc8:	e885 000f 	stmia.w	r5, {r0, r1, r2, r3}
20003fcc:	78fb      	ldrb	r3, [r7, #3]
20003fce:	b90b      	cbnz	r3, 20003fd4 <ConfigLoad+0x3c>
20003fd0:	2301      	movs	r3, #1
20003fd2:	70fb      	strb	r3, [r7, #3]
20003fd4:	4630      	mov	r0, r6
20003fd6:	bdf8      	pop	{r3, r4, r5, r6, r7, pc}
20003fd8:	3e01      	subs	r6, #1
20003fda:	d2e3      	bcs.n	20003fa4 <ConfigLoad+0xc>
20003fdc:	e7fa      	b.n	20003fd4 <ConfigLoad+0x3c>
20003fde:	bf00      	nop
20003fe0:	2000ab1c 	.word	0x2000ab1c
20003fe4:	103ff000 	.word	0x103ff000

20003fe8 <DecUNum>:
20003fe8:	2300      	movs	r3, #0
20003fea:	b5f0      	push	{r4, r5, r6, r7, lr}
20003fec:	460c      	mov	r4, r1
20003fee:	461d      	mov	r5, r3
20003ff0:	f04f 0e0a 	mov.w	lr, #10
20003ff4:	b085      	sub	sp, #20
20003ff6:	f88d 300d 	strb.w	r3, [sp, #13]
20003ffa:	f10d 060d 	add.w	r6, sp, #13
20003ffe:	fbb4 fcfe 	udiv	ip, r4, lr
20004002:	fb0e 471c 	mls	r7, lr, ip, r4
20004006:	2c09      	cmp	r4, #9
20004008:	f107 0730 	add.w	r7, r7, #48	@ 0x30
2000400c:	f806 7c01 	strb.w	r7, [r6, #-1]
20004010:	f106 31ff 	add.w	r1, r6, #4294967295
20004014:	f105 0701 	add.w	r7, r5, #1
20004018:	f103 0301 	add.w	r3, r3, #1
2000401c:	d805      	bhi.n	2000402a <DecUNum+0x42>
2000401e:	1caa      	adds	r2, r5, #2
20004020:	f005 f992 	bl	20009348 <memcpy>
20004024:	4638      	mov	r0, r7
20004026:	b005      	add	sp, #20
20004028:	bdf0      	pop	{r4, r5, r6, r7, pc}
2000402a:	2b03      	cmp	r3, #3
2000402c:	d105      	bne.n	2000403a <DecUNum+0x52>
2000402e:	b122      	cbz	r2, 2000403a <DecUNum+0x52>
20004030:	2300      	movs	r3, #0
20004032:	f801 2c01 	strb.w	r2, [r1, #-1]
20004036:	1caf      	adds	r7, r5, #2
20004038:	1eb1      	subs	r1, r6, #2
2000403a:	4664      	mov	r4, ip
2000403c:	463d      	mov	r5, r7
2000403e:	460e      	mov	r6, r1
20004040:	e7dd      	b.n	20003ffe <DecUNum+0x16>

20004042 <DecNum>:
20004042:	b510      	push	{r4, lr}
20004044:	1e0c      	subs	r4, r1, #0
20004046:	db03      	blt.n	20004050 <DecNum+0xe>
20004048:	e8bd 4010 	ldmia.w	sp!, {r4, lr}
2000404c:	f7ff bfcc 	b.w	20003fe8 <DecUNum>
20004050:	232d      	movs	r3, #45	@ 0x2d
20004052:	4261      	negs	r1, r4
20004054:	f800 3b01 	strb.w	r3, [r0], #1
20004058:	f7ff ffc6 	bl	20003fe8 <DecUNum>
2000405c:	3001      	adds	r0, #1
2000405e:	bd10      	pop	{r4, pc}

20004060 <DecHexDig>:
20004060:	f000 030f 	and.w	r3, r0, #15
20004064:	f103 0030 	add.w	r0, r3, #48	@ 0x30
20004068:	2839      	cmp	r0, #57	@ 0x39
2000406a:	bf88      	it	hi
2000406c:	f103 0037 	addhi.w	r0, r3, #55	@ 0x37
20004070:	4770      	bx	lr
	...

20004074 <SelFontUpdate>:
20004074:	4b07      	ldr	r3, [pc, #28]	@ (20004094 <SelFontUpdate+0x20>)
20004076:	681a      	ldr	r2, [r3, #0]
20004078:	f44f 73a0 	mov.w	r3, #320	@ 0x140
2000407c:	fb93 f3f2 	sdiv	r3, r3, r2
20004080:	4a05      	ldr	r2, [pc, #20]	@ (20004098 <SelFontUpdate+0x24>)
20004082:	7013      	strb	r3, [r2, #0]
20004084:	4b05      	ldr	r3, [pc, #20]	@ (2000409c <SelFontUpdate+0x28>)
20004086:	681a      	ldr	r2, [r3, #0]
20004088:	23f0      	movs	r3, #240	@ 0xf0
2000408a:	fb93 f3f2 	sdiv	r3, r3, r2
2000408e:	4a04      	ldr	r2, [pc, #16]	@ (200040a0 <SelFontUpdate+0x2c>)
20004090:	7013      	strb	r3, [r2, #0]
20004092:	4770      	bx	lr
20004094:	2000aac8 	.word	0x2000aac8
20004098:	2000aac5 	.word	0x2000aac5
2000409c:	2000aacc 	.word	0x2000aacc
200040a0:	2000aac4 	.word	0x2000aac4

200040a4 <SelFont8x16>:
200040a4:	4b05      	ldr	r3, [pc, #20]	@ (200040bc <SelFont8x16+0x18>)
200040a6:	4a06      	ldr	r2, [pc, #24]	@ (200040c0 <SelFont8x16+0x1c>)
200040a8:	601a      	str	r2, [r3, #0]
200040aa:	2210      	movs	r2, #16
200040ac:	4b05      	ldr	r3, [pc, #20]	@ (200040c4 <SelFont8x16+0x20>)
200040ae:	601a      	str	r2, [r3, #0]
200040b0:	2208      	movs	r2, #8
200040b2:	4b05      	ldr	r3, [pc, #20]	@ (200040c8 <SelFont8x16+0x24>)
200040b4:	601a      	str	r2, [r3, #0]
200040b6:	f7ff bfdd 	b.w	20004074 <SelFontUpdate>
200040ba:	bf00      	nop
200040bc:	2000aad0 	.word	0x2000aad0
200040c0:	20009a7c 	.word	0x20009a7c
200040c4:	2000aacc 	.word	0x2000aacc
200040c8:	2000aac8 	.word	0x2000aac8

200040cc <DrawRect>:
200040cc:	e92d 41f0 	stmdb	sp!, {r4, r5, r6, r7, r8, lr}
200040d0:	4606      	mov	r6, r0
200040d2:	460f      	mov	r7, r1
200040d4:	1e14      	subs	r4, r2, #0
200040d6:	bfbc      	itt	lt
200040d8:	1936      	addlt	r6, r6, r4
200040da:	4264      	neglt	r4, r4
200040dc:	2b00      	cmp	r3, #0
200040de:	461d      	mov	r5, r3
200040e0:	bfbc      	itt	lt
200040e2:	18ff      	addlt	r7, r7, r3
200040e4:	425d      	neglt	r5, r3
200040e6:	2e00      	cmp	r6, #0
200040e8:	bfbc      	itt	lt
200040ea:	19a4      	addlt	r4, r4, r6
200040ec:	2600      	movlt	r6, #0
200040ee:	1933      	adds	r3, r6, r4
200040f0:	f5b3 7fa0 	cmp.w	r3, #320	@ 0x140
200040f4:	bfc8      	it	gt
200040f6:	f5c6 74a0 	rsbgt	r4, r6, #320	@ 0x140
200040fa:	2c00      	cmp	r4, #0
200040fc:	f8bd 8018 	ldrh.w	r8, [sp, #24]
20004100:	dd23      	ble.n	2000414a <DrawRect+0x7e>
20004102:	2f00      	cmp	r7, #0
20004104:	bfbc      	itt	lt
20004106:	19ed      	addlt	r5, r5, r7
20004108:	2700      	movlt	r7, #0
2000410a:	197b      	adds	r3, r7, r5
2000410c:	2bf0      	cmp	r3, #240	@ 0xf0
2000410e:	bfc8      	it	gt
20004110:	f1c7 05f0 	rsbgt	r5, r7, #240	@ 0xf0
20004114:	2d00      	cmp	r5, #0
20004116:	dd18      	ble.n	2000414a <DrawRect+0x7e>
20004118:	4622      	mov	r2, r4
2000411a:	462b      	mov	r3, r5
2000411c:	4630      	mov	r0, r6
2000411e:	4639      	mov	r1, r7
20004120:	f003 fd20 	bl	20007b64 <DispDirtyRect>
20004124:	f44f 73a0 	mov.w	r3, #320	@ 0x140
20004128:	fb03 6607 	mla	r6, r3, r7, r6
2000412c:	4b08      	ldr	r3, [pc, #32]	@ (20004150 <DrawRect+0x84>)
2000412e:	f5c4 72a0 	rsb	r2, r4, #320	@ 0x140
20004132:	eb03 0346 	add.w	r3, r3, r6, lsl #1
20004136:	0052      	lsls	r2, r2, #1
20004138:	0064      	lsls	r4, r4, #1
2000413a:	1919      	adds	r1, r3, r4
2000413c:	f823 8b02 	strh.w	r8, [r3], #2
20004140:	428b      	cmp	r3, r1
20004142:	d1fb      	bne.n	2000413c <DrawRect+0x70>
20004144:	3d01      	subs	r5, #1
20004146:	4413      	add	r3, r2
20004148:	d1f7      	bne.n	2000413a <DrawRect+0x6e>
2000414a:	e8bd 81f0 	ldmia.w	sp!, {r4, r5, r6, r7, r8, pc}
2000414e:	bf00      	nop
20004150:	2000be58 	.word	0x2000be58

20004154 <DrawFrameW>:
20004154:	e92d 4ff7 	stmdb	sp!, {r0, r1, r2, r4, r5, r6, r7, r8, r9, sl, fp, lr}
20004158:	1e15      	subs	r5, r2, #0
2000415a:	4607      	mov	r7, r0
2000415c:	4688      	mov	r8, r1
2000415e:	461c      	mov	r4, r3
20004160:	f8bd 9030 	ldrh.w	r9, [sp, #48]	@ 0x30
20004164:	9e0d      	ldr	r6, [sp, #52]	@ 0x34
20004166:	da31      	bge.n	200041cc <DrawFrameW+0x78>
20004168:	2b00      	cmp	r3, #0
2000416a:	442f      	add	r7, r5
2000416c:	f1c5 0500 	rsb	r5, r5, #0
20004170:	da35      	bge.n	200041de <DrawFrameW+0x8a>
20004172:	44a0      	add	r8, r4
20004174:	4264      	negs	r4, r4
20004176:	eba5 0b06 	sub.w	fp, r5, r6
2000417a:	4633      	mov	r3, r6
2000417c:	465a      	mov	r2, fp
2000417e:	4641      	mov	r1, r8
20004180:	4638      	mov	r0, r7
20004182:	f8cd 9000 	str.w	r9, [sp]
20004186:	f7ff ffa1 	bl	200040cc <DrawRect>
2000418a:	eba4 0a06 	sub.w	sl, r4, r6
2000418e:	1978      	adds	r0, r7, r5
20004190:	4653      	mov	r3, sl
20004192:	4632      	mov	r2, r6
20004194:	4641      	mov	r1, r8
20004196:	1b80      	subs	r0, r0, r6
20004198:	f8cd 9000 	str.w	r9, [sp]
2000419c:	f7ff ff96 	bl	200040cc <DrawRect>
200041a0:	eb08 0104 	add.w	r1, r8, r4
200041a4:	4633      	mov	r3, r6
200041a6:	465a      	mov	r2, fp
200041a8:	1b89      	subs	r1, r1, r6
200041aa:	19f0      	adds	r0, r6, r7
200041ac:	f8cd 9000 	str.w	r9, [sp]
200041b0:	f7ff ff8c 	bl	200040cc <DrawRect>
200041b4:	4653      	mov	r3, sl
200041b6:	4632      	mov	r2, r6
200041b8:	4638      	mov	r0, r7
200041ba:	eb06 0108 	add.w	r1, r6, r8
200041be:	f8cd 9030 	str.w	r9, [sp, #48]	@ 0x30
200041c2:	b003      	add	sp, #12
200041c4:	e8bd 4ff0 	ldmia.w	sp!, {r4, r5, r6, r7, r8, r9, sl, fp, lr}
200041c8:	f7ff bf80 	b.w	200040cc <DrawRect>
200041cc:	2b00      	cmp	r3, #0
200041ce:	da04      	bge.n	200041da <DrawFrameW+0x86>
200041d0:	2d00      	cmp	r5, #0
200041d2:	d1ce      	bne.n	20004172 <DrawFrameW+0x1e>
200041d4:	b003      	add	sp, #12
200041d6:	e8bd 8ff0 	ldmia.w	sp!, {r4, r5, r6, r7, r8, r9, sl, fp, pc}
200041da:	2d00      	cmp	r5, #0
200041dc:	d0fa      	beq.n	200041d4 <DrawFrameW+0x80>
200041de:	2c00      	cmp	r4, #0
200041e0:	d0f8      	beq.n	200041d4 <DrawFrameW+0x80>
200041e2:	e7c8      	b.n	20004176 <DrawFrameW+0x22>

200041e4 <DrawFrame>:
200041e4:	b513      	push	{r0, r1, r4, lr}
200041e6:	2401      	movs	r4, #1
200041e8:	9401      	str	r4, [sp, #4]
200041ea:	f8bd 4010 	ldrh.w	r4, [sp, #16]
200041ee:	9400      	str	r4, [sp, #0]
200041f0:	f7ff ffb0 	bl	20004154 <DrawFrameW>
200041f4:	b002      	add	sp, #8
200041f6:	bd10      	pop	{r4, pc}

200041f8 <DrawClearCol>:
200041f8:	b507      	push	{r0, r1, r2, lr}
200041fa:	2100      	movs	r1, #0
200041fc:	9000      	str	r0, [sp, #0]
200041fe:	23f0      	movs	r3, #240	@ 0xf0
20004200:	f44f 72a0 	mov.w	r2, #320	@ 0x140
20004204:	4608      	mov	r0, r1
20004206:	f7ff ff61 	bl	200040cc <DrawRect>
2000420a:	b003      	add	sp, #12
2000420c:	f85d fb04 	ldr.w	pc, [sp], #4

20004210 <DrawClear>:
20004210:	2000      	movs	r0, #0
20004212:	f7ff bff1 	b.w	200041f8 <DrawClearCol>
	...

20004218 <DrawPoint>:
20004218:	f5b0 7fa0 	cmp.w	r0, #320	@ 0x140
2000421c:	b430      	push	{r4, r5}
2000421e:	d20b      	bcs.n	20004238 <DrawPoint+0x20>
20004220:	29ef      	cmp	r1, #239	@ 0xef
20004222:	d809      	bhi.n	20004238 <DrawPoint+0x20>
20004224:	f44f 75a0 	mov.w	r5, #320	@ 0x140
20004228:	fb05 0301 	mla	r3, r5, r1, r0
2000422c:	4c03      	ldr	r4, [pc, #12]	@ (2000423c <DrawPoint+0x24>)
2000422e:	f824 2013 	strh.w	r2, [r4, r3, lsl #1]
20004232:	bc30      	pop	{r4, r5}
20004234:	f003 bcce 	b.w	20007bd4 <DispDirtyPoint>
20004238:	bc30      	pop	{r4, r5}
2000423a:	4770      	bx	lr
2000423c:	2000be58 	.word	0x2000be58

20004240 <DrawChar>:
20004240:	e92d 4ff7 	stmdb	sp!, {r0, r1, r2, r4, r5, r6, r7, r8, r9, sl, fp, lr}
20004244:	4699      	mov	r9, r3
20004246:	4b38      	ldr	r3, [pc, #224]	@ (20004328 <DrawChar+0xe8>)
20004248:	f8df a0e8 	ldr.w	sl, [pc, #232]	@ 20004334 <DrawChar+0xf4>
2000424c:	681d      	ldr	r5, [r3, #0]
2000424e:	ea51 0302 	orrs.w	r3, r1, r2
20004252:	460e      	mov	r6, r1
20004254:	4693      	mov	fp, r2
20004256:	f8da 4000 	ldr.w	r4, [sl]
2000425a:	4405      	add	r5, r0
2000425c:	d45e      	bmi.n	2000431c <DrawChar+0xdc>
2000425e:	4f33      	ldr	r7, [pc, #204]	@ (2000432c <DrawChar+0xec>)
20004260:	683a      	ldr	r2, [r7, #0]
20004262:	1853      	adds	r3, r2, r1
20004264:	f5b3 7fa0 	cmp.w	r3, #320	@ 0x140
20004268:	dc58      	bgt.n	2000431c <DrawChar+0xdc>
2000426a:	eb0b 0304 	add.w	r3, fp, r4
2000426e:	2bf0      	cmp	r3, #240	@ 0xf0
20004270:	dc54      	bgt.n	2000431c <DrawChar+0xdc>
20004272:	4623      	mov	r3, r4
20004274:	4630      	mov	r0, r6
20004276:	4659      	mov	r1, fp
20004278:	f003 fc74 	bl	20007b64 <DispDirtyRect>
2000427c:	f44f 73a0 	mov.w	r3, #320	@ 0x140
20004280:	f06f 0eff 	mvn.w	lr, #255	@ 0xff
20004284:	fb03 630b 	mla	r3, r3, fp, r6
20004288:	4a29      	ldr	r2, [pc, #164]	@ (20004330 <DrawChar+0xf0>)
2000428a:	683c      	ldr	r4, [r7, #0]
2000428c:	eb02 0343 	add.w	r3, r2, r3, lsl #1
20004290:	f8da 2000 	ldr.w	r2, [sl]
20004294:	f5c4 70a0 	rsb	r0, r4, #320	@ 0x140
20004298:	ea24 76e4 	bic.w	r6, r4, r4, asr #31
2000429c:	0040      	lsls	r0, r0, #1
2000429e:	eb05 2502 	add.w	r5, r5, r2, lsl #8
200042a2:	0076      	lsls	r6, r6, #1
200042a4:	2a00      	cmp	r2, #0
200042a6:	dc02      	bgt.n	200042ae <DrawChar+0x6e>
200042a8:	b003      	add	sp, #12
200042aa:	e8bd 8ff0 	ldmia.w	sp!, {r4, r5, r6, r7, r8, r9, sl, fp, pc}
200042ae:	469c      	mov	ip, r3
200042b0:	4627      	mov	r7, r4
200042b2:	fb0e f102 	mul.w	r1, lr, r2
200042b6:	5c69      	ldrb	r1, [r5, r1]
200042b8:	2f00      	cmp	r7, #0
200042ba:	dc03      	bgt.n	200042c4 <DrawChar+0x84>
200042bc:	4433      	add	r3, r6
200042be:	4403      	add	r3, r0
200042c0:	3a01      	subs	r2, #1
200042c2:	e7ef      	b.n	200042a4 <DrawChar+0x64>
200042c4:	f011 0f80 	tst.w	r1, #128	@ 0x80
200042c8:	ea4f 0141 	mov.w	r1, r1, lsl #1
200042cc:	bf18      	it	ne
200042ce:	f8ac 9000 	strhne.w	r9, [ip]
200042d2:	b2c9      	uxtb	r1, r1
200042d4:	f10c 0c02 	add.w	ip, ip, #2
200042d8:	3f01      	subs	r7, #1
200042da:	e7ed      	b.n	200042b8 <DrawChar+0x78>
200042dc:	fb0a f304 	mul.w	r3, sl, r4
200042e0:	f815 8003 	ldrb.w	r8, [r5, r3]
200042e4:	4b11      	ldr	r3, [pc, #68]	@ (2000432c <DrawChar+0xec>)
200042e6:	681f      	ldr	r7, [r3, #0]
200042e8:	19f3      	adds	r3, r6, r7
200042ea:	2f00      	cmp	r7, #0
200042ec:	dc05      	bgt.n	200042fa <DrawChar+0xba>
200042ee:	3c01      	subs	r4, #1
200042f0:	2c00      	cmp	r4, #0
200042f2:	ebab 0104 	sub.w	r1, fp, r4
200042f6:	dcf1      	bgt.n	200042dc <DrawChar+0x9c>
200042f8:	e7d6      	b.n	200042a8 <DrawChar+0x68>
200042fa:	f018 0f80 	tst.w	r8, #128	@ 0x80
200042fe:	d007      	beq.n	20004310 <DrawChar+0xd0>
20004300:	1bd8      	subs	r0, r3, r7
20004302:	464a      	mov	r2, r9
20004304:	9101      	str	r1, [sp, #4]
20004306:	9300      	str	r3, [sp, #0]
20004308:	f7ff ff86 	bl	20004218 <DrawPoint>
2000430c:	e9dd 3100 	ldrd	r3, r1, [sp]
20004310:	ea4f 0848 	mov.w	r8, r8, lsl #1
20004314:	fa5f f888 	uxtb.w	r8, r8
20004318:	3f01      	subs	r7, #1
2000431a:	e7e6      	b.n	200042ea <DrawChar+0xaa>
2000431c:	f06f 0aff 	mvn.w	sl, #255	@ 0xff
20004320:	eb05 2504 	add.w	r5, r5, r4, lsl #8
20004324:	44a3      	add	fp, r4
20004326:	e7e3      	b.n	200042f0 <DrawChar+0xb0>
20004328:	2000aad0 	.word	0x2000aad0
2000432c:	2000aac8 	.word	0x2000aac8
20004330:	2000be58 	.word	0x2000be58
20004334:	2000aacc 	.word	0x2000aacc

20004338 <DrawChar2>:
20004338:	e92d 4ff7 	stmdb	sp!, {r0, r1, r2, r4, r5, r6, r7, r8, r9, sl, fp, lr}
2000433c:	461d      	mov	r5, r3
2000433e:	4b49      	ldr	r3, [pc, #292]	@ (20004464 <DrawChar2+0x12c>)
20004340:	f8df a12c 	ldr.w	sl, [pc, #300]	@ 20004470 <DrawChar2+0x138>
20004344:	681b      	ldr	r3, [r3, #0]
20004346:	460e      	mov	r6, r1
20004348:	eb03 0800 	add.w	r8, r3, r0
2000434c:	ea51 0302 	orrs.w	r3, r1, r2
20004350:	4614      	mov	r4, r2
20004352:	f8da 7000 	ldr.w	r7, [sl]
20004356:	d47f      	bmi.n	20004458 <DrawChar2+0x120>
20004358:	f8df 9110 	ldr.w	r9, [pc, #272]	@ 2000446c <DrawChar2+0x134>
2000435c:	f8d9 3000 	ldr.w	r3, [r9]
20004360:	005a      	lsls	r2, r3, #1
20004362:	eb01 0343 	add.w	r3, r1, r3, lsl #1
20004366:	f5b3 7fa0 	cmp.w	r3, #320	@ 0x140
2000436a:	dc75      	bgt.n	20004458 <DrawChar2+0x120>
2000436c:	eb04 0147 	add.w	r1, r4, r7, lsl #1
20004370:	29f0      	cmp	r1, #240	@ 0xf0
20004372:	ea4f 0347 	mov.w	r3, r7, lsl #1
20004376:	dc6f      	bgt.n	20004458 <DrawChar2+0x120>
20004378:	4621      	mov	r1, r4
2000437a:	4630      	mov	r0, r6
2000437c:	f003 fbf2 	bl	20007b64 <DispDirtyRect>
20004380:	f44f 72a0 	mov.w	r2, #320	@ 0x140
20004384:	f06f 0eff 	mvn.w	lr, #255	@ 0xff
20004388:	fb02 6204 	mla	r2, r2, r4, r6
2000438c:	f8d9 6000 	ldr.w	r6, [r9]
20004390:	4b35      	ldr	r3, [pc, #212]	@ (20004468 <DrawChar2+0x130>)
20004392:	f8da 1000 	ldr.w	r1, [sl]
20004396:	f5c6 74a0 	rsb	r4, r6, #320	@ 0x140
2000439a:	ea26 77e6 	bic.w	r7, r6, r6, asr #31
2000439e:	eb03 0342 	add.w	r3, r3, r2, lsl #1
200043a2:	00a4      	lsls	r4, r4, #2
200043a4:	eb08 2801 	add.w	r8, r8, r1, lsl #8
200043a8:	00bf      	lsls	r7, r7, #2
200043aa:	2900      	cmp	r1, #0
200043ac:	dc02      	bgt.n	200043b4 <DrawChar2+0x7c>
200043ae:	b003      	add	sp, #12
200043b0:	e8bd 8ff0 	ldmia.w	sp!, {r4, r5, r6, r7, r8, r9, sl, fp, pc}
200043b4:	46b4      	mov	ip, r6
200043b6:	fb0e f201 	mul.w	r2, lr, r1
200043ba:	f818 0002 	ldrb.w	r0, [r8, r2]
200043be:	1d1a      	adds	r2, r3, #4
200043c0:	f1bc 0f00 	cmp.w	ip, #0
200043c4:	dc03      	bgt.n	200043ce <DrawChar2+0x96>
200043c6:	443b      	add	r3, r7
200043c8:	4423      	add	r3, r4
200043ca:	3901      	subs	r1, #1
200043cc:	e7ed      	b.n	200043aa <DrawChar2+0x72>
200043ce:	f010 0f80 	tst.w	r0, #128	@ 0x80
200043d2:	ea4f 0040 	mov.w	r0, r0, lsl #1
200043d6:	bf1f      	itttt	ne
200043d8:	f822 5c04 	strhne.w	r5, [r2, #-4]
200043dc:	f822 5c02 	strhne.w	r5, [r2, #-2]
200043e0:	f8a2 527c 	strhne.w	r5, [r2, #636]	@ 0x27c
200043e4:	f8a2 527e 	strhne.w	r5, [r2, #638]	@ 0x27e
200043e8:	b2c0      	uxtb	r0, r0
200043ea:	f10c 3cff 	add.w	ip, ip, #4294967295
200043ee:	3204      	adds	r2, #4
200043f0:	e7e6      	b.n	200043c0 <DrawChar2+0x88>
200043f2:	46b1      	mov	r9, r6
200043f4:	9a00      	ldr	r2, [sp, #0]
200043f6:	01e3      	lsls	r3, r4, #7
200043f8:	f812 8003 	ldrb.w	r8, [r2, r3]
200043fc:	4b1b      	ldr	r3, [pc, #108]	@ (2000446c <DrawChar2+0x134>)
200043fe:	f104 0b01 	add.w	fp, r4, #1
20004402:	681b      	ldr	r3, [r3, #0]
20004404:	2b00      	cmp	r3, #0
20004406:	dc04      	bgt.n	20004412 <DrawChar2+0xda>
20004408:	3402      	adds	r4, #2
2000440a:	3f01      	subs	r7, #1
2000440c:	2f00      	cmp	r7, #0
2000440e:	dcf0      	bgt.n	200043f2 <DrawChar2+0xba>
20004410:	e7cd      	b.n	200043ae <DrawChar2+0x76>
20004412:	f018 0f80 	tst.w	r8, #128	@ 0x80
20004416:	d017      	beq.n	20004448 <DrawChar2+0x110>
20004418:	462a      	mov	r2, r5
2000441a:	4621      	mov	r1, r4
2000441c:	4648      	mov	r0, r9
2000441e:	f109 0a01 	add.w	sl, r9, #1
20004422:	9301      	str	r3, [sp, #4]
20004424:	f7ff fef8 	bl	20004218 <DrawPoint>
20004428:	462a      	mov	r2, r5
2000442a:	4621      	mov	r1, r4
2000442c:	4650      	mov	r0, sl
2000442e:	f7ff fef3 	bl	20004218 <DrawPoint>
20004432:	462a      	mov	r2, r5
20004434:	4659      	mov	r1, fp
20004436:	4648      	mov	r0, r9
20004438:	f7ff feee 	bl	20004218 <DrawPoint>
2000443c:	462a      	mov	r2, r5
2000443e:	4659      	mov	r1, fp
20004440:	4650      	mov	r0, sl
20004442:	f7ff fee9 	bl	20004218 <DrawPoint>
20004446:	9b01      	ldr	r3, [sp, #4]
20004448:	ea4f 0848 	mov.w	r8, r8, lsl #1
2000444c:	f109 0902 	add.w	r9, r9, #2
20004450:	fa5f f888 	uxtb.w	r8, r8
20004454:	3b01      	subs	r3, #1
20004456:	e7d5      	b.n	20004404 <DrawChar2+0xcc>
20004458:	f06f 037f 	mvn.w	r3, #127	@ 0x7f
2000445c:	fb03 8304 	mla	r3, r3, r4, r8
20004460:	9300      	str	r3, [sp, #0]
20004462:	e7d3      	b.n	2000440c <DrawChar2+0xd4>
20004464:	2000aad0 	.word	0x2000aad0
20004468:	2000be58 	.word	0x2000be58
2000446c:	2000aac8 	.word	0x2000aac8
20004470:	2000aacc 	.word	0x2000aacc

20004474 <DrawCharBg>:
20004474:	e92d 4ff0 	stmdb	sp!, {r4, r5, r6, r7, r8, r9, sl, fp, lr}
20004478:	4698      	mov	r8, r3
2000447a:	4b3b      	ldr	r3, [pc, #236]	@ (20004568 <DrawCharBg+0xf4>)
2000447c:	f8df b0f4 	ldr.w	fp, [pc, #244]	@ 20004574 <DrawCharBg+0x100>
20004480:	681f      	ldr	r7, [r3, #0]
20004482:	b085      	sub	sp, #20
20004484:	ea51 0302 	orrs.w	r3, r1, r2
20004488:	460d      	mov	r5, r1
2000448a:	4616      	mov	r6, r2
2000448c:	f8bd 9038 	ldrh.w	r9, [sp, #56]	@ 0x38
20004490:	f8db 4000 	ldr.w	r4, [fp]
20004494:	4407      	add	r7, r0
20004496:	d45f      	bmi.n	20004558 <DrawCharBg+0xe4>
20004498:	f8df a0d4 	ldr.w	sl, [pc, #212]	@ 20004570 <DrawCharBg+0xfc>
2000449c:	f8da 2000 	ldr.w	r2, [sl]
200044a0:	1853      	adds	r3, r2, r1
200044a2:	f5b3 7fa0 	cmp.w	r3, #320	@ 0x140
200044a6:	dc57      	bgt.n	20004558 <DrawCharBg+0xe4>
200044a8:	1933      	adds	r3, r6, r4
200044aa:	2bf0      	cmp	r3, #240	@ 0xf0
200044ac:	dc54      	bgt.n	20004558 <DrawCharBg+0xe4>
200044ae:	4623      	mov	r3, r4
200044b0:	4628      	mov	r0, r5
200044b2:	4631      	mov	r1, r6
200044b4:	f003 fb56 	bl	20007b64 <DispDirtyRect>
200044b8:	f44f 73a0 	mov.w	r3, #320	@ 0x140
200044bc:	f06f 0eff 	mvn.w	lr, #255	@ 0xff
200044c0:	fb03 5306 	mla	r3, r3, r6, r5
200044c4:	4a29      	ldr	r2, [pc, #164]	@ (2000456c <DrawCharBg+0xf8>)
200044c6:	f8da 4000 	ldr.w	r4, [sl]
200044ca:	eb02 0343 	add.w	r3, r2, r3, lsl #1
200044ce:	f8db 2000 	ldr.w	r2, [fp]
200044d2:	f5c4 70a0 	rsb	r0, r4, #320	@ 0x140
200044d6:	ea24 75e4 	bic.w	r5, r4, r4, asr #31
200044da:	0040      	lsls	r0, r0, #1
200044dc:	eb07 2702 	add.w	r7, r7, r2, lsl #8
200044e0:	006d      	lsls	r5, r5, #1
200044e2:	2a00      	cmp	r2, #0
200044e4:	dc02      	bgt.n	200044ec <DrawCharBg+0x78>
200044e6:	b005      	add	sp, #20
200044e8:	e8bd 8ff0 	ldmia.w	sp!, {r4, r5, r6, r7, r8, r9, sl, fp, pc}
200044ec:	469c      	mov	ip, r3
200044ee:	4626      	mov	r6, r4
200044f0:	fb0e f102 	mul.w	r1, lr, r2
200044f4:	5c79      	ldrb	r1, [r7, r1]
200044f6:	2e00      	cmp	r6, #0
200044f8:	dc03      	bgt.n	20004502 <DrawCharBg+0x8e>
200044fa:	442b      	add	r3, r5
200044fc:	4403      	add	r3, r0
200044fe:	3a01      	subs	r2, #1
20004500:	e7ef      	b.n	200044e2 <DrawCharBg+0x6e>
20004502:	f011 0f80 	tst.w	r1, #128	@ 0x80
20004506:	bf0c      	ite	eq
20004508:	46ca      	moveq	sl, r9
2000450a:	46c2      	movne	sl, r8
2000450c:	0049      	lsls	r1, r1, #1
2000450e:	f82c ab02 	strh.w	sl, [ip], #2
20004512:	b2c9      	uxtb	r1, r1
20004514:	3e01      	subs	r6, #1
20004516:	e7ee      	b.n	200044f6 <DrawCharBg+0x82>
20004518:	fb0a f304 	mul.w	r3, sl, r4
2000451c:	9a01      	ldr	r2, [sp, #4]
2000451e:	5cd7      	ldrb	r7, [r2, r3]
20004520:	4b13      	ldr	r3, [pc, #76]	@ (20004570 <DrawCharBg+0xfc>)
20004522:	681e      	ldr	r6, [r3, #0]
20004524:	19ab      	adds	r3, r5, r6
20004526:	2e00      	cmp	r6, #0
20004528:	eba3 0006 	sub.w	r0, r3, r6
2000452c:	dc05      	bgt.n	2000453a <DrawCharBg+0xc6>
2000452e:	3c01      	subs	r4, #1
20004530:	2c00      	cmp	r4, #0
20004532:	ebab 0104 	sub.w	r1, fp, r4
20004536:	dcef      	bgt.n	20004518 <DrawCharBg+0xa4>
20004538:	e7d5      	b.n	200044e6 <DrawCharBg+0x72>
2000453a:	f017 0f80 	tst.w	r7, #128	@ 0x80
2000453e:	bf0c      	ite	eq
20004540:	464a      	moveq	r2, r9
20004542:	4642      	movne	r2, r8
20004544:	007f      	lsls	r7, r7, #1
20004546:	9303      	str	r3, [sp, #12]
20004548:	9102      	str	r1, [sp, #8]
2000454a:	b2ff      	uxtb	r7, r7
2000454c:	f7ff fe64 	bl	20004218 <DrawPoint>
20004550:	e9dd 1302 	ldrd	r1, r3, [sp, #8]
20004554:	3e01      	subs	r6, #1
20004556:	e7e6      	b.n	20004526 <DrawCharBg+0xb2>
20004558:	eb07 2304 	add.w	r3, r7, r4, lsl #8
2000455c:	f06f 0aff 	mvn.w	sl, #255	@ 0xff
20004560:	9301      	str	r3, [sp, #4]
20004562:	eb06 0b04 	add.w	fp, r6, r4
20004566:	e7e3      	b.n	20004530 <DrawCharBg+0xbc>
20004568:	2000aad0 	.word	0x2000aad0
2000456c:	2000be58 	.word	0x2000be58
20004570:	2000aac8 	.word	0x2000aac8
20004574:	2000aacc 	.word	0x2000aacc

20004578 <DrawCharBg2>:
20004578:	e92d 4ff0 	stmdb	sp!, {r4, r5, r6, r7, r8, r9, sl, fp, lr}
2000457c:	b085      	sub	sp, #20
2000457e:	9300      	str	r3, [sp, #0]
20004580:	4b4c      	ldr	r3, [pc, #304]	@ (200046b4 <DrawCharBg2+0x13c>)
20004582:	f8df 913c 	ldr.w	r9, [pc, #316]	@ 200046c0 <DrawCharBg2+0x148>
20004586:	681f      	ldr	r7, [r3, #0]
20004588:	ea51 0302 	orrs.w	r3, r1, r2
2000458c:	460d      	mov	r5, r1
2000458e:	4614      	mov	r4, r2
20004590:	f8bd b038 	ldrh.w	fp, [sp, #56]	@ 0x38
20004594:	f8d9 6000 	ldr.w	r6, [r9]
20004598:	4407      	add	r7, r0
2000459a:	f100 8084 	bmi.w	200046a6 <DrawCharBg2+0x12e>
2000459e:	f8df 811c 	ldr.w	r8, [pc, #284]	@ 200046bc <DrawCharBg2+0x144>
200045a2:	f8d8 3000 	ldr.w	r3, [r8]
200045a6:	005a      	lsls	r2, r3, #1
200045a8:	eb01 0343 	add.w	r3, r1, r3, lsl #1
200045ac:	f5b3 7fa0 	cmp.w	r3, #320	@ 0x140
200045b0:	dc79      	bgt.n	200046a6 <DrawCharBg2+0x12e>
200045b2:	eb04 0146 	add.w	r1, r4, r6, lsl #1
200045b6:	29f0      	cmp	r1, #240	@ 0xf0
200045b8:	ea4f 0346 	mov.w	r3, r6, lsl #1
200045bc:	dc73      	bgt.n	200046a6 <DrawCharBg2+0x12e>
200045be:	4621      	mov	r1, r4
200045c0:	4628      	mov	r0, r5
200045c2:	f003 facf 	bl	20007b64 <DispDirtyRect>
200045c6:	f44f 72a0 	mov.w	r2, #320	@ 0x140
200045ca:	f8d8 6000 	ldr.w	r6, [r8]
200045ce:	f06f 08ff 	mvn.w	r8, #255	@ 0xff
200045d2:	fb02 5204 	mla	r2, r2, r4, r5
200045d6:	4b38      	ldr	r3, [pc, #224]	@ (200046b8 <DrawCharBg2+0x140>)
200045d8:	f8d9 1000 	ldr.w	r1, [r9]
200045dc:	f5c6 75a0 	rsb	r5, r6, #320	@ 0x140
200045e0:	ea26 7ce6 	bic.w	ip, r6, r6, asr #31
200045e4:	eb03 0342 	add.w	r3, r3, r2, lsl #1
200045e8:	00ad      	lsls	r5, r5, #2
200045ea:	eb07 2701 	add.w	r7, r7, r1, lsl #8
200045ee:	ea4f 0c8c 	mov.w	ip, ip, lsl #2
200045f2:	2900      	cmp	r1, #0
200045f4:	dc02      	bgt.n	200045fc <DrawCharBg2+0x84>
200045f6:	b005      	add	sp, #20
200045f8:	e8bd 8ff0 	ldmia.w	sp!, {r4, r5, r6, r7, r8, r9, sl, fp, pc}
200045fc:	46b6      	mov	lr, r6
200045fe:	fb08 f201 	mul.w	r2, r8, r1
20004602:	5cb8      	ldrb	r0, [r7, r2]
20004604:	1d1a      	adds	r2, r3, #4
20004606:	f1be 0f00 	cmp.w	lr, #0
2000460a:	dc03      	bgt.n	20004614 <DrawCharBg2+0x9c>
2000460c:	4463      	add	r3, ip
2000460e:	442b      	add	r3, r5
20004610:	3901      	subs	r1, #1
20004612:	e7ee      	b.n	200045f2 <DrawCharBg2+0x7a>
20004614:	f010 0f80 	tst.w	r0, #128	@ 0x80
20004618:	9c00      	ldr	r4, [sp, #0]
2000461a:	bf08      	it	eq
2000461c:	465c      	moveq	r4, fp
2000461e:	0040      	lsls	r0, r0, #1
20004620:	f822 4c04 	strh.w	r4, [r2, #-4]
20004624:	f822 4c02 	strh.w	r4, [r2, #-2]
20004628:	f8a2 427c 	strh.w	r4, [r2, #636]	@ 0x27c
2000462c:	f8a2 427e 	strh.w	r4, [r2, #638]	@ 0x27e
20004630:	b2c0      	uxtb	r0, r0
20004632:	f10e 3eff 	add.w	lr, lr, #4294967295
20004636:	3204      	adds	r2, #4
20004638:	e7e5      	b.n	20004606 <DrawCharBg2+0x8e>
2000463a:	46a8      	mov	r8, r5
2000463c:	9a02      	ldr	r2, [sp, #8]
2000463e:	01e3      	lsls	r3, r4, #7
20004640:	5cd7      	ldrb	r7, [r2, r3]
20004642:	4b1e      	ldr	r3, [pc, #120]	@ (200046bc <DrawCharBg2+0x144>)
20004644:	f8d3 a000 	ldr.w	sl, [r3]
20004648:	1c63      	adds	r3, r4, #1
2000464a:	9301      	str	r3, [sp, #4]
2000464c:	f1ba 0f00 	cmp.w	sl, #0
20004650:	dc04      	bgt.n	2000465c <DrawCharBg2+0xe4>
20004652:	3402      	adds	r4, #2
20004654:	3e01      	subs	r6, #1
20004656:	2e00      	cmp	r6, #0
20004658:	dcef      	bgt.n	2000463a <DrawCharBg2+0xc2>
2000465a:	e7cc      	b.n	200045f6 <DrawCharBg2+0x7e>
2000465c:	9b00      	ldr	r3, [sp, #0]
2000465e:	f017 0f80 	tst.w	r7, #128	@ 0x80
20004662:	bf14      	ite	ne
20004664:	4699      	movne	r9, r3
20004666:	46d9      	moveq	r9, fp
20004668:	4640      	mov	r0, r8
2000466a:	464a      	mov	r2, r9
2000466c:	4621      	mov	r1, r4
2000466e:	f7ff fdd3 	bl	20004218 <DrawPoint>
20004672:	f108 0301 	add.w	r3, r8, #1
20004676:	4618      	mov	r0, r3
20004678:	464a      	mov	r2, r9
2000467a:	4621      	mov	r1, r4
2000467c:	9303      	str	r3, [sp, #12]
2000467e:	f7ff fdcb 	bl	20004218 <DrawPoint>
20004682:	4640      	mov	r0, r8
20004684:	464a      	mov	r2, r9
20004686:	9901      	ldr	r1, [sp, #4]
20004688:	f7ff fdc6 	bl	20004218 <DrawPoint>
2000468c:	9b03      	ldr	r3, [sp, #12]
2000468e:	464a      	mov	r2, r9
20004690:	4618      	mov	r0, r3
20004692:	9901      	ldr	r1, [sp, #4]
20004694:	007f      	lsls	r7, r7, #1
20004696:	f7ff fdbf 	bl	20004218 <DrawPoint>
2000469a:	f108 0802 	add.w	r8, r8, #2
2000469e:	b2ff      	uxtb	r7, r7
200046a0:	f10a 3aff 	add.w	sl, sl, #4294967295
200046a4:	e7d2      	b.n	2000464c <DrawCharBg2+0xd4>
200046a6:	f06f 037f 	mvn.w	r3, #127	@ 0x7f
200046aa:	fb03 7304 	mla	r3, r3, r4, r7
200046ae:	9302      	str	r3, [sp, #8]
200046b0:	e7d1      	b.n	20004656 <DrawCharBg2+0xde>
200046b2:	bf00      	nop
200046b4:	2000aad0 	.word	0x2000aad0
200046b8:	2000be58 	.word	0x2000be58
200046bc:	2000aac8 	.word	0x2000aac8
200046c0:	2000aacc 	.word	0x2000aacc

200046c4 <DrawText>:
200046c4:	e92d 41f0 	stmdb	sp!, {r4, r5, r6, r7, r8, lr}
200046c8:	4605      	mov	r5, r0
200046ca:	460c      	mov	r4, r1
200046cc:	4616      	mov	r6, r2
200046ce:	461f      	mov	r7, r3
200046d0:	f8df 801c 	ldr.w	r8, [pc, #28]	@ 200046f0 <DrawText+0x2c>
200046d4:	f815 0b01 	ldrb.w	r0, [r5], #1
200046d8:	b140      	cbz	r0, 200046ec <DrawText+0x28>
200046da:	463b      	mov	r3, r7
200046dc:	4621      	mov	r1, r4
200046de:	4632      	mov	r2, r6
200046e0:	f7ff fdae 	bl	20004240 <DrawChar>
200046e4:	f8d8 3000 	ldr.w	r3, [r8]
200046e8:	441c      	add	r4, r3
200046ea:	e7f3      	b.n	200046d4 <DrawText+0x10>
200046ec:	e8bd 81f0 	ldmia.w	sp!, {r4, r5, r6, r7, r8, pc}
200046f0:	2000aac8 	.word	0x2000aac8

200046f4 <DrawText2>:
200046f4:	e92d 41f0 	stmdb	sp!, {r4, r5, r6, r7, r8, lr}
200046f8:	4605      	mov	r5, r0
200046fa:	460c      	mov	r4, r1
200046fc:	4616      	mov	r6, r2
200046fe:	461f      	mov	r7, r3
20004700:	f8df 8020 	ldr.w	r8, [pc, #32]	@ 20004724 <DrawText2+0x30>
20004704:	f815 0b01 	ldrb.w	r0, [r5], #1
20004708:	b148      	cbz	r0, 2000471e <DrawText2+0x2a>
2000470a:	463b      	mov	r3, r7
2000470c:	4621      	mov	r1, r4
2000470e:	4632      	mov	r2, r6
20004710:	f7ff fe12 	bl	20004338 <DrawChar2>
20004714:	f8d8 3000 	ldr.w	r3, [r8]
20004718:	eb04 0443 	add.w	r4, r4, r3, lsl #1
2000471c:	e7f2      	b.n	20004704 <DrawText2+0x10>
2000471e:	e8bd 81f0 	ldmia.w	sp!, {r4, r5, r6, r7, r8, pc}
20004722:	bf00      	nop
20004724:	2000aac8 	.word	0x2000aac8

20004728 <DrawTextBg>:
20004728:	e92d 43f7 	stmdb	sp!, {r0, r1, r2, r4, r5, r6, r7, r8, r9, lr}
2000472c:	4605      	mov	r5, r0
2000472e:	460c      	mov	r4, r1
20004730:	4616      	mov	r6, r2
20004732:	461f      	mov	r7, r3
20004734:	f8bd 9028 	ldrh.w	r9, [sp, #40]	@ 0x28
20004738:	f8df 8024 	ldr.w	r8, [pc, #36]	@ 20004760 <DrawTextBg+0x38>
2000473c:	f815 0b01 	ldrb.w	r0, [r5], #1
20004740:	b150      	cbz	r0, 20004758 <DrawTextBg+0x30>
20004742:	463b      	mov	r3, r7
20004744:	4621      	mov	r1, r4
20004746:	4632      	mov	r2, r6
20004748:	f8cd 9000 	str.w	r9, [sp]
2000474c:	f7ff fe92 	bl	20004474 <DrawCharBg>
20004750:	f8d8 3000 	ldr.w	r3, [r8]
20004754:	441c      	add	r4, r3
20004756:	e7f1      	b.n	2000473c <DrawTextBg+0x14>
20004758:	b003      	add	sp, #12
2000475a:	e8bd 83f0 	ldmia.w	sp!, {r4, r5, r6, r7, r8, r9, pc}
2000475e:	bf00      	nop
20004760:	2000aac8 	.word	0x2000aac8

20004764 <DrawTextBg2>:
20004764:	e92d 43f7 	stmdb	sp!, {r0, r1, r2, r4, r5, r6, r7, r8, r9, lr}
20004768:	4605      	mov	r5, r0
2000476a:	460c      	mov	r4, r1
2000476c:	4616      	mov	r6, r2
2000476e:	461f      	mov	r7, r3
20004770:	f8bd 9028 	ldrh.w	r9, [sp, #40]	@ 0x28
20004774:	f8df 8024 	ldr.w	r8, [pc, #36]	@ 2000479c <DrawTextBg2+0x38>
20004778:	f815 0b01 	ldrb.w	r0, [r5], #1
2000477c:	b158      	cbz	r0, 20004796 <DrawTextBg2+0x32>
2000477e:	463b      	mov	r3, r7
20004780:	4621      	mov	r1, r4
20004782:	4632      	mov	r2, r6
20004784:	f8cd 9000 	str.w	r9, [sp]
20004788:	f7ff fef6 	bl	20004578 <DrawCharBg2>
2000478c:	f8d8 3000 	ldr.w	r3, [r8]
20004790:	eb04 0443 	add.w	r4, r4, r3, lsl #1
20004794:	e7f0      	b.n	20004778 <DrawTextBg2+0x14>
20004796:	b003      	add	sp, #12
20004798:	e8bd 83f0 	ldmia.w	sp!, {r4, r5, r6, r7, r8, r9, pc}
2000479c:	2000aac8 	.word	0x2000aac8

200047a0 <EventRingInit>:
200047a0:	e9c0 1200 	strd	r1, r2, [r0]
200047a4:	2200      	movs	r2, #0
200047a6:	6103      	str	r3, [r0, #16]
200047a8:	6082      	str	r2, [r0, #8]
200047aa:	60c2      	str	r2, [r0, #12]
200047ac:	4770      	bx	lr

200047ae <EventRingClear>:
200047ae:	2300      	movs	r3, #0
200047b0:	6083      	str	r3, [r0, #8]
200047b2:	60c3      	str	r3, [r0, #12]
200047b4:	f3bf 8f5f 	dmb	sy
200047b8:	4770      	bx	lr

200047ba <EventRingWrite>:
200047ba:	b570      	push	{r4, r5, r6, lr}
200047bc:	f3ef 8210 	mrs	r2, PRIMASK
200047c0:	b672      	cpsid	i
200047c2:	6903      	ldr	r3, [r0, #16]
200047c4:	2b00      	cmp	r3, #0
200047c6:	db09      	blt.n	200047dc <EventRingWrite+0x22>
200047c8:	009b      	lsls	r3, r3, #2
200047ca:	f103 4350 	add.w	r3, r3, #3489660928	@ 0xd0000000
200047ce:	f503 7380 	add.w	r3, r3, #256	@ 0x100
200047d2:	681c      	ldr	r4, [r3, #0]
200047d4:	2c00      	cmp	r4, #0
200047d6:	d0fc      	beq.n	200047d2 <EventRingWrite+0x18>
200047d8:	f3bf 8f5f 	dmb	sy
200047dc:	6885      	ldr	r5, [r0, #8]
200047de:	6844      	ldr	r4, [r0, #4]
200047e0:	1c6b      	adds	r3, r5, #1
200047e2:	429c      	cmp	r4, r3
200047e4:	bf98      	it	ls
200047e6:	2300      	movls	r3, #0
200047e8:	f3bf 8f5f 	dmb	sy
200047ec:	68c4      	ldr	r4, [r0, #12]
200047ee:	429c      	cmp	r4, r3
200047f0:	d01e      	beq.n	20004830 <EventRingWrite+0x76>
200047f2:	6804      	ldr	r4, [r0, #0]
200047f4:	eb04 1405 	add.w	r4, r4, r5, lsl #4
200047f8:	f101 0510 	add.w	r5, r1, #16
200047fc:	f851 6b04 	ldr.w	r6, [r1], #4
20004800:	42a9      	cmp	r1, r5
20004802:	f844 6b04 	str.w	r6, [r4], #4
20004806:	d1f9      	bne.n	200047fc <EventRingWrite+0x42>
20004808:	f3bf 8f5f 	dmb	sy
2000480c:	6083      	str	r3, [r0, #8]
2000480e:	f3bf 8f5f 	dmb	sy
20004812:	6903      	ldr	r3, [r0, #16]
20004814:	2b00      	cmp	r3, #0
20004816:	db07      	blt.n	20004828 <EventRingWrite+0x6e>
20004818:	f3bf 8f5f 	dmb	sy
2000481c:	2100      	movs	r1, #0
2000481e:	009b      	lsls	r3, r3, #2
20004820:	f103 4350 	add.w	r3, r3, #3489660928	@ 0xd0000000
20004824:	f8c3 1100 	str.w	r1, [r3, #256]	@ 0x100
20004828:	f382 8810 	msr	PRIMASK, r2
2000482c:	2001      	movs	r0, #1
2000482e:	bd70      	pop	{r4, r5, r6, pc}
20004830:	6903      	ldr	r3, [r0, #16]
20004832:	2b00      	cmp	r3, #0
20004834:	db07      	blt.n	20004846 <EventRingWrite+0x8c>
20004836:	f3bf 8f5f 	dmb	sy
2000483a:	2100      	movs	r1, #0
2000483c:	009b      	lsls	r3, r3, #2
2000483e:	f103 4350 	add.w	r3, r3, #3489660928	@ 0xd0000000
20004842:	f8c3 1100 	str.w	r1, [r3, #256]	@ 0x100
20004846:	f382 8810 	msr	PRIMASK, r2
2000484a:	2000      	movs	r0, #0
2000484c:	e7ef      	b.n	2000482e <EventRingWrite+0x74>

2000484e <EventRingRead>:
2000484e:	b570      	push	{r4, r5, r6, lr}
20004850:	f3ef 8410 	mrs	r4, PRIMASK
20004854:	b672      	cpsid	i
20004856:	6903      	ldr	r3, [r0, #16]
20004858:	2b00      	cmp	r3, #0
2000485a:	db09      	blt.n	20004870 <EventRingRead+0x22>
2000485c:	009b      	lsls	r3, r3, #2
2000485e:	f103 4350 	add.w	r3, r3, #3489660928	@ 0xd0000000
20004862:	f503 7380 	add.w	r3, r3, #256	@ 0x100
20004866:	681a      	ldr	r2, [r3, #0]
20004868:	2a00      	cmp	r2, #0
2000486a:	d0fc      	beq.n	20004866 <EventRingRead+0x18>
2000486c:	f3bf 8f5f 	dmb	sy
20004870:	f3bf 8f5f 	dmb	sy
20004874:	68c3      	ldr	r3, [r0, #12]
20004876:	6882      	ldr	r2, [r0, #8]
20004878:	429a      	cmp	r2, r3
2000487a:	d10e      	bne.n	2000489a <EventRingRead+0x4c>
2000487c:	6903      	ldr	r3, [r0, #16]
2000487e:	2b00      	cmp	r3, #0
20004880:	db07      	blt.n	20004892 <EventRingRead+0x44>
20004882:	f3bf 8f5f 	dmb	sy
20004886:	2200      	movs	r2, #0
20004888:	009b      	lsls	r3, r3, #2
2000488a:	f103 4350 	add.w	r3, r3, #3489660928	@ 0xd0000000
2000488e:	f8c3 2100 	str.w	r2, [r3, #256]	@ 0x100
20004892:	f384 8810 	msr	PRIMASK, r4
20004896:	2000      	movs	r0, #0
20004898:	bd70      	pop	{r4, r5, r6, pc}
2000489a:	6802      	ldr	r2, [r0, #0]
2000489c:	eb02 1203 	add.w	r2, r2, r3, lsl #4
200048a0:	f102 0510 	add.w	r5, r2, #16
200048a4:	f852 6b04 	ldr.w	r6, [r2], #4
200048a8:	42aa      	cmp	r2, r5
200048aa:	f841 6b04 	str.w	r6, [r1], #4
200048ae:	d1f9      	bne.n	200048a4 <EventRingRead+0x56>
200048b0:	6842      	ldr	r2, [r0, #4]
200048b2:	3301      	adds	r3, #1
200048b4:	429a      	cmp	r2, r3
200048b6:	bf98      	it	ls
200048b8:	2300      	movls	r3, #0
200048ba:	f3bf 8f5f 	dmb	sy
200048be:	60c3      	str	r3, [r0, #12]
200048c0:	f3bf 8f5f 	dmb	sy
200048c4:	6903      	ldr	r3, [r0, #16]
200048c6:	2b00      	cmp	r3, #0
200048c8:	db07      	blt.n	200048da <EventRingRead+0x8c>
200048ca:	f3bf 8f5f 	dmb	sy
200048ce:	2200      	movs	r2, #0
200048d0:	009b      	lsls	r3, r3, #2
200048d2:	f103 4350 	add.w	r3, r3, #3489660928	@ 0xd0000000
200048d6:	f8c3 2100 	str.w	r2, [r3, #256]	@ 0x100
200048da:	f384 8810 	msr	PRIMASK, r4
200048de:	2001      	movs	r0, #1
200048e0:	e7da      	b.n	20004898 <EventRingRead+0x4a>
	...

200048e4 <Disk_ClustValid>:
200048e4:	2801      	cmp	r0, #1
200048e6:	d906      	bls.n	200048f6 <Disk_ClustValid+0x12>
200048e8:	4b04      	ldr	r3, [pc, #16]	@ (200048fc <Disk_ClustValid+0x18>)
200048ea:	681b      	ldr	r3, [r3, #0]
200048ec:	4283      	cmp	r3, r0
200048ee:	bf94      	ite	ls
200048f0:	2000      	movls	r0, #0
200048f2:	2001      	movhi	r0, #1
200048f4:	4770      	bx	lr
200048f6:	2000      	movs	r0, #0
200048f8:	4770      	bx	lr
200048fa:	bf00      	nop
200048fc:	2000ade8 	.word	0x2000ade8

20004900 <Disk_CompFATName>:
20004900:	4b09      	ldr	r3, [pc, #36]	@ (20004928 <Disk_CompFATName+0x28>)
20004902:	b510      	push	{r4, lr}
20004904:	f853 3021 	ldr.w	r3, [r3, r1, lsl #2]
20004908:	3801      	subs	r0, #1
2000490a:	1e5a      	subs	r2, r3, #1
2000490c:	3304      	adds	r3, #4
2000490e:	f812 1f01 	ldrb.w	r1, [r2, #1]!
20004912:	b129      	cbz	r1, 20004920 <Disk_CompFATName+0x20>
20004914:	f810 4f01 	ldrb.w	r4, [r0, #1]!
20004918:	428c      	cmp	r4, r1
2000491a:	d103      	bne.n	20004924 <Disk_CompFATName+0x24>
2000491c:	429a      	cmp	r2, r3
2000491e:	d1f6      	bne.n	2000490e <Disk_CompFATName+0xe>
20004920:	2001      	movs	r0, #1
20004922:	bd10      	pop	{r4, pc}
20004924:	2000      	movs	r0, #0
20004926:	e7fc      	b.n	20004922 <Disk_CompFATName+0x22>
20004928:	20009a4c 	.word	0x20009a4c

2000492c <Disk_ClustSect>:
2000492c:	b508      	push	{r3, lr}
2000492e:	4602      	mov	r2, r0
20004930:	f7ff ffd8 	bl	200048e4 <Disk_ClustValid>
20004934:	b130      	cbz	r0, 20004944 <Disk_ClustSect+0x18>
20004936:	4b04      	ldr	r3, [pc, #16]	@ (20004948 <Disk_ClustSect+0x1c>)
20004938:	4904      	ldr	r1, [pc, #16]	@ (2000494c <Disk_ClustSect+0x20>)
2000493a:	781b      	ldrb	r3, [r3, #0]
2000493c:	6808      	ldr	r0, [r1, #0]
2000493e:	3a02      	subs	r2, #2
20004940:	fb02 0003 	mla	r0, r2, r3, r0
20004944:	bd08      	pop	{r3, pc}
20004946:	bf00      	nop
20004948:	200323d7 	.word	0x200323d7
2000494c:	2000ab8c 	.word	0x2000ab8c

20004950 <Disk_LoadStartClust>:
20004950:	4603      	mov	r3, r0
20004952:	4a04      	ldr	r2, [pc, #16]	@ (20004964 <Disk_LoadStartClust+0x14>)
20004954:	8b40      	ldrh	r0, [r0, #26]
20004956:	7812      	ldrb	r2, [r2, #0]
20004958:	2a03      	cmp	r2, #3
2000495a:	bf04      	itt	eq
2000495c:	8a9b      	ldrheq	r3, [r3, #20]
2000495e:	ea40 4003 	orreq.w	r0, r0, r3, lsl #16
20004962:	4770      	bx	lr
20004964:	200323fc 	.word	0x200323fc

20004968 <Disk_SaveStartClust>:
20004968:	4b03      	ldr	r3, [pc, #12]	@ (20004978 <Disk_SaveStartClust+0x10>)
2000496a:	8341      	strh	r1, [r0, #26]
2000496c:	781b      	ldrb	r3, [r3, #0]
2000496e:	2b03      	cmp	r3, #3
20004970:	bf04      	itt	eq
20004972:	0c09      	lsreq	r1, r1, #16
20004974:	8281      	strheq	r1, [r0, #20]
20004976:	4770      	bx	lr
20004978:	200323fc 	.word	0x200323fc

2000497c <Disk_GetFileInfo>:
2000497c:	2200      	movs	r2, #0
2000497e:	b530      	push	{r4, r5, lr}
20004980:	720a      	strb	r2, [r1, #8]
20004982:	754a      	strb	r2, [r1, #21]
20004984:	4603      	mov	r3, r0
20004986:	6a80      	ldr	r0, [r0, #40]	@ 0x28
20004988:	2800      	cmp	r0, #0
2000498a:	d035      	beq.n	200049f8 <Disk_GetFileInfo+0x7c>
2000498c:	4610      	mov	r0, r2
2000498e:	68dc      	ldr	r4, [r3, #12]
20004990:	4613      	mov	r3, r2
20004992:	5c22      	ldrb	r2, [r4, r0]
20004994:	2a20      	cmp	r2, #32
20004996:	bf1e      	ittt	ne
20004998:	1c5d      	addne	r5, r3, #1
2000499a:	185b      	addne	r3, r3, r1
2000499c:	721a      	strbne	r2, [r3, #8]
2000499e:	b2c2      	uxtb	r2, r0
200049a0:	bf18      	it	ne
200049a2:	b2eb      	uxtbne	r3, r5
200049a4:	2a07      	cmp	r2, #7
200049a6:	d106      	bne.n	200049b6 <Disk_GetFileInfo+0x3a>
200049a8:	202e      	movs	r0, #46	@ 0x2e
200049aa:	1c5a      	adds	r2, r3, #1
200049ac:	440b      	add	r3, r1
200049ae:	7218      	strb	r0, [r3, #8]
200049b0:	b2d2      	uxtb	r2, r2
200049b2:	2008      	movs	r0, #8
200049b4:	e7ec      	b.n	20004990 <Disk_GetFileInfo+0x14>
200049b6:	3001      	adds	r0, #1
200049b8:	b2c2      	uxtb	r2, r0
200049ba:	2a0b      	cmp	r2, #11
200049bc:	d1e9      	bne.n	20004992 <Disk_GetFileInfo+0x16>
200049be:	b133      	cbz	r3, 200049ce <Disk_GetFileInfo+0x52>
200049c0:	18ca      	adds	r2, r1, r3
200049c2:	79d2      	ldrb	r2, [r2, #7]
200049c4:	2a2e      	cmp	r2, #46	@ 0x2e
200049c6:	bf04      	itt	eq
200049c8:	f103 33ff 	addeq.w	r3, r3, #4294967295
200049cc:	b2db      	uxtbeq	r3, r3
200049ce:	2000      	movs	r0, #0
200049d0:	18ca      	adds	r2, r1, r3
200049d2:	7210      	strb	r0, [r2, #8]
200049d4:	2001      	movs	r0, #1
200049d6:	754b      	strb	r3, [r1, #21]
200049d8:	69e3      	ldr	r3, [r4, #28]
200049da:	600b      	str	r3, [r1, #0]
200049dc:	7de2      	ldrb	r2, [r4, #23]
200049de:	7da3      	ldrb	r3, [r4, #22]
200049e0:	ea43 2302 	orr.w	r3, r3, r2, lsl #8
200049e4:	808b      	strh	r3, [r1, #4]
200049e6:	7e23      	ldrb	r3, [r4, #24]
200049e8:	7e62      	ldrb	r2, [r4, #25]
200049ea:	ea43 2302 	orr.w	r3, r3, r2, lsl #8
200049ee:	80cb      	strh	r3, [r1, #6]
200049f0:	7ae3      	ldrb	r3, [r4, #11]
200049f2:	f003 033f 	and.w	r3, r3, #63	@ 0x3f
200049f6:	758b      	strb	r3, [r1, #22]
200049f8:	bd30      	pop	{r4, r5, pc}

200049fa <FileUpperCase>:
200049fa:	f1a0 0361 	sub.w	r3, r0, #97	@ 0x61
200049fe:	2b19      	cmp	r3, #25
20004a00:	bf9c      	itt	ls
20004a02:	3820      	subls	r0, #32
20004a04:	b2c0      	uxtbls	r0, r0
20004a06:	4770      	bx	lr

20004a08 <Disk_GetChar>:
20004a08:	4603      	mov	r3, r0
20004a0a:	6802      	ldr	r2, [r0, #0]
20004a0c:	f812 0b01 	ldrb.w	r0, [r2], #1
20004a10:	601a      	str	r2, [r3, #0]
20004a12:	f1a0 0361 	sub.w	r3, r0, #97	@ 0x61
20004a16:	2b19      	cmp	r3, #25
20004a18:	bf9c      	itt	ls
20004a1a:	3820      	subls	r0, #32
20004a1c:	b2c0      	uxtbls	r0, r0
20004a1e:	4770      	bx	lr

20004a20 <Disk_Match>:
20004a20:	b537      	push	{r0, r1, r2, r4, r5, lr}
20004a22:	7803      	ldrb	r3, [r0, #0]
20004a24:	9001      	str	r0, [sp, #4]
20004a26:	2b2e      	cmp	r3, #46	@ 0x2e
20004a28:	d00f      	beq.n	20004a4a <Disk_Match+0x2a>
20004a2a:	2500      	movs	r5, #0
20004a2c:	462c      	mov	r4, r5
20004a2e:	a801      	add	r0, sp, #4
20004a30:	f7ff ffea 	bl	20004a08 <Disk_GetChar>
20004a34:	4602      	mov	r2, r0
20004a36:	5d08      	ldrb	r0, [r1, r4]
20004a38:	b9fa      	cbnz	r2, 20004a7a <Disk_Match+0x5a>
20004a3a:	2820      	cmp	r0, #32
20004a3c:	d01b      	beq.n	20004a76 <Disk_Match+0x56>
20004a3e:	2c08      	cmp	r4, #8
20004a40:	d101      	bne.n	20004a46 <Disk_Match+0x26>
20004a42:	f085 0201 	eor.w	r2, r5, #1
20004a46:	b2d0      	uxtb	r0, r2
20004a48:	e00c      	b.n	20004a64 <Disk_Match+0x44>
20004a4a:	780b      	ldrb	r3, [r1, #0]
20004a4c:	2b2e      	cmp	r3, #46	@ 0x2e
20004a4e:	d1ec      	bne.n	20004a2a <Disk_Match+0xa>
20004a50:	7844      	ldrb	r4, [r0, #1]
20004a52:	2c2e      	cmp	r4, #46	@ 0x2e
20004a54:	d108      	bne.n	20004a68 <Disk_Match+0x48>
20004a56:	7884      	ldrb	r4, [r0, #2]
20004a58:	2c00      	cmp	r4, #0
20004a5a:	d1e6      	bne.n	20004a2a <Disk_Match+0xa>
20004a5c:	784b      	ldrb	r3, [r1, #1]
20004a5e:	2b2e      	cmp	r3, #46	@ 0x2e
20004a60:	d107      	bne.n	20004a72 <Disk_Match+0x52>
20004a62:	2001      	movs	r0, #1
20004a64:	b003      	add	sp, #12
20004a66:	bd30      	pop	{r4, r5, pc}
20004a68:	2c00      	cmp	r4, #0
20004a6a:	d1de      	bne.n	20004a2a <Disk_Match+0xa>
20004a6c:	784b      	ldrb	r3, [r1, #1]
20004a6e:	2b20      	cmp	r3, #32
20004a70:	e7f6      	b.n	20004a60 <Disk_Match+0x40>
20004a72:	4625      	mov	r5, r4
20004a74:	e7db      	b.n	20004a2e <Disk_Match+0xe>
20004a76:	2201      	movs	r2, #1
20004a78:	e7e5      	b.n	20004a46 <Disk_Match+0x26>
20004a7a:	f7ff ffbe 	bl	200049fa <FileUpperCase>
20004a7e:	2a3f      	cmp	r2, #63	@ 0x3f
20004a80:	d001      	beq.n	20004a86 <Disk_Match+0x66>
20004a82:	4282      	cmp	r2, r0
20004a84:	d10b      	bne.n	20004a9e <Disk_Match+0x7e>
20004a86:	2c07      	cmp	r4, #7
20004a88:	d802      	bhi.n	20004a90 <Disk_Match+0x70>
20004a8a:	3401      	adds	r4, #1
20004a8c:	b2e4      	uxtb	r4, r4
20004a8e:	e7ce      	b.n	20004a2e <Disk_Match+0xe>
20004a90:	2d00      	cmp	r5, #0
20004a92:	d0cc      	beq.n	20004a2e <Disk_Match+0xe>
20004a94:	3401      	adds	r4, #1
20004a96:	b2e4      	uxtb	r4, r4
20004a98:	2c0b      	cmp	r4, #11
20004a9a:	d1c8      	bne.n	20004a2e <Disk_Match+0xe>
20004a9c:	e7e1      	b.n	20004a62 <Disk_Match+0x42>
20004a9e:	2a2e      	cmp	r2, #46	@ 0x2e
20004aa0:	d005      	beq.n	20004aae <Disk_Match+0x8e>
20004aa2:	2a2a      	cmp	r2, #42	@ 0x2a
20004aa4:	d106      	bne.n	20004ab4 <Disk_Match+0x94>
20004aa6:	2d00      	cmp	r5, #0
20004aa8:	d1db      	bne.n	20004a62 <Disk_Match+0x42>
20004aaa:	2408      	movs	r4, #8
20004aac:	e7bf      	b.n	20004a2e <Disk_Match+0xe>
20004aae:	2408      	movs	r4, #8
20004ab0:	2501      	movs	r5, #1
20004ab2:	e7bc      	b.n	20004a2e <Disk_Match+0xe>
20004ab4:	2000      	movs	r0, #0
20004ab6:	e7d5      	b.n	20004a64 <Disk_Match+0x44>

20004ab8 <Disk_CheckChar>:
20004ab8:	287a      	cmp	r0, #122	@ 0x7a
20004aba:	d81d      	bhi.n	20004af8 <Disk_CheckChar+0x40>
20004abc:	2860      	cmp	r0, #96	@ 0x60
20004abe:	d81d      	bhi.n	20004afc <Disk_CheckChar+0x44>
20004ac0:	283c      	cmp	r0, #60	@ 0x3c
20004ac2:	d80f      	bhi.n	20004ae4 <Disk_CheckChar+0x2c>
20004ac4:	2829      	cmp	r0, #41	@ 0x29
20004ac6:	d803      	bhi.n	20004ad0 <Disk_CheckChar+0x18>
20004ac8:	281f      	cmp	r0, #31
20004aca:	bf98      	it	ls
20004acc:	2000      	movls	r0, #0
20004ace:	4770      	bx	lr
20004ad0:	f1a0 022a 	sub.w	r2, r0, #42	@ 0x2a
20004ad4:	4b0b      	ldr	r3, [pc, #44]	@ (20004b04 <Disk_CheckChar+0x4c>)
20004ad6:	b2d2      	uxtb	r2, r2
20004ad8:	40d3      	lsrs	r3, r2
20004ada:	f013 0f01 	tst.w	r3, #1
20004ade:	bf18      	it	ne
20004ae0:	2000      	movne	r0, #0
20004ae2:	4770      	bx	lr
20004ae4:	283f      	cmp	r0, #63	@ 0x3f
20004ae6:	d803      	bhi.n	20004af0 <Disk_CheckChar+0x38>
20004ae8:	283d      	cmp	r0, #61	@ 0x3d
20004aea:	bf18      	it	ne
20004aec:	2000      	movne	r0, #0
20004aee:	4770      	bx	lr
20004af0:	285c      	cmp	r0, #92	@ 0x5c
20004af2:	bf08      	it	eq
20004af4:	2000      	moveq	r0, #0
20004af6:	4770      	bx	lr
20004af8:	287c      	cmp	r0, #124	@ 0x7c
20004afa:	e7fa      	b.n	20004af2 <Disk_CheckChar+0x3a>
20004afc:	3820      	subs	r0, #32
20004afe:	b2c0      	uxtb	r0, r0
20004b00:	4770      	bx	lr
20004b02:	bf00      	nop
20004b04:	00050021 	.word	0x00050021

20004b08 <Disk_ExtractName>:
20004b08:	b5f8      	push	{r3, r4, r5, r6, r7, lr}
20004b0a:	f04f 3320 	mov.w	r3, #538976288	@ 0x20202020
20004b0e:	4605      	mov	r5, r0
20004b10:	6043      	str	r3, [r0, #4]
20004b12:	6003      	str	r3, [r0, #0]
20004b14:	f8c0 3007 	str.w	r3, [r0, #7]
20004b18:	680b      	ldr	r3, [r1, #0]
20004b1a:	781a      	ldrb	r2, [r3, #0]
20004b1c:	461c      	mov	r4, r3
20004b1e:	2a22      	cmp	r2, #34	@ 0x22
20004b20:	f103 0301 	add.w	r3, r3, #1
20004b24:	d0f9      	beq.n	20004b1a <Disk_ExtractName+0x12>
20004b26:	2a2e      	cmp	r2, #46	@ 0x2e
20004b28:	d014      	beq.n	20004b54 <Disk_ExtractName+0x4c>
20004b2a:	2700      	movs	r7, #0
20004b2c:	463e      	mov	r6, r7
20004b2e:	4622      	mov	r2, r4
20004b30:	f814 0b01 	ldrb.w	r0, [r4], #1
20004b34:	281f      	cmp	r0, #31
20004b36:	d90a      	bls.n	20004b4e <Disk_ExtractName+0x46>
20004b38:	282f      	cmp	r0, #47	@ 0x2f
20004b3a:	d001      	beq.n	20004b40 <Disk_ExtractName+0x38>
20004b3c:	285c      	cmp	r0, #92	@ 0x5c
20004b3e:	d120      	bne.n	20004b82 <Disk_ExtractName+0x7a>
20004b40:	4622      	mov	r2, r4
20004b42:	f814 3b01 	ldrb.w	r3, [r4], #1
20004b46:	2b2f      	cmp	r3, #47	@ 0x2f
20004b48:	d0fa      	beq.n	20004b40 <Disk_ExtractName+0x38>
20004b4a:	2b5c      	cmp	r3, #92	@ 0x5c
20004b4c:	d0f8      	beq.n	20004b40 <Disk_ExtractName+0x38>
20004b4e:	2001      	movs	r0, #1
20004b50:	600a      	str	r2, [r1, #0]
20004b52:	e015      	b.n	20004b80 <Disk_ExtractName+0x78>
20004b54:	2000      	movs	r0, #0
20004b56:	4622      	mov	r2, r4
20004b58:	f814 3b01 	ldrb.w	r3, [r4], #1
20004b5c:	2b1f      	cmp	r3, #31
20004b5e:	d9f6      	bls.n	20004b4e <Disk_ExtractName+0x46>
20004b60:	2b22      	cmp	r3, #34	@ 0x22
20004b62:	4622      	mov	r2, r4
20004b64:	d0f7      	beq.n	20004b56 <Disk_ExtractName+0x4e>
20004b66:	2b2e      	cmp	r3, #46	@ 0x2e
20004b68:	d105      	bne.n	20004b76 <Disk_ExtractName+0x6e>
20004b6a:	2802      	cmp	r0, #2
20004b6c:	d007      	beq.n	20004b7e <Disk_ExtractName+0x76>
20004b6e:	1c42      	adds	r2, r0, #1
20004b70:	542b      	strb	r3, [r5, r0]
20004b72:	b2d0      	uxtb	r0, r2
20004b74:	e7ef      	b.n	20004b56 <Disk_ExtractName+0x4e>
20004b76:	2b2f      	cmp	r3, #47	@ 0x2f
20004b78:	d0e9      	beq.n	20004b4e <Disk_ExtractName+0x46>
20004b7a:	2b5c      	cmp	r3, #92	@ 0x5c
20004b7c:	d0e7      	beq.n	20004b4e <Disk_ExtractName+0x46>
20004b7e:	2000      	movs	r0, #0
20004b80:	bdf8      	pop	{r3, r4, r5, r6, r7, pc}
20004b82:	282e      	cmp	r0, #46	@ 0x2e
20004b84:	d104      	bne.n	20004b90 <Disk_ExtractName+0x88>
20004b86:	2f00      	cmp	r7, #0
20004b88:	d1f9      	bne.n	20004b7e <Disk_ExtractName+0x76>
20004b8a:	2701      	movs	r7, #1
20004b8c:	2608      	movs	r6, #8
20004b8e:	e7ce      	b.n	20004b2e <Disk_ExtractName+0x26>
20004b90:	2822      	cmp	r0, #34	@ 0x22
20004b92:	d0cc      	beq.n	20004b2e <Disk_ExtractName+0x26>
20004b94:	f7ff ff90 	bl	20004ab8 <Disk_CheckChar>
20004b98:	2800      	cmp	r0, #0
20004b9a:	d0f0      	beq.n	20004b7e <Disk_ExtractName+0x76>
20004b9c:	2e07      	cmp	r6, #7
20004b9e:	d903      	bls.n	20004ba8 <Disk_ExtractName+0xa0>
20004ba0:	2f00      	cmp	r7, #0
20004ba2:	d0c4      	beq.n	20004b2e <Disk_ExtractName+0x26>
20004ba4:	2e0a      	cmp	r6, #10
20004ba6:	d8c2      	bhi.n	20004b2e <Disk_ExtractName+0x26>
20004ba8:	1c73      	adds	r3, r6, #1
20004baa:	55a8      	strb	r0, [r5, r6]
20004bac:	b2de      	uxtb	r6, r3
20004bae:	e7be      	b.n	20004b2e <Disk_ExtractName+0x26>

20004bb0 <DiskUnmount>:
20004bb0:	f04f 32ff 	mov.w	r2, #4294967295
20004bb4:	4b16      	ldr	r3, [pc, #88]	@ (20004c10 <DiskUnmount+0x60>)
20004bb6:	2002      	movs	r0, #2
20004bb8:	601a      	str	r2, [r3, #0]
20004bba:	2300      	movs	r3, #0
20004bbc:	4915      	ldr	r1, [pc, #84]	@ (20004c14 <DiskUnmount+0x64>)
20004bbe:	700b      	strb	r3, [r1, #0]
20004bc0:	4915      	ldr	r1, [pc, #84]	@ (20004c18 <DiskUnmount+0x68>)
20004bc2:	700b      	strb	r3, [r1, #0]
20004bc4:	4915      	ldr	r1, [pc, #84]	@ (20004c1c <DiskUnmount+0x6c>)
20004bc6:	7008      	strb	r0, [r1, #0]
20004bc8:	4915      	ldr	r1, [pc, #84]	@ (20004c20 <DiskUnmount+0x70>)
20004bca:	700b      	strb	r3, [r1, #0]
20004bcc:	4915      	ldr	r1, [pc, #84]	@ (20004c24 <DiskUnmount+0x74>)
20004bce:	700b      	strb	r3, [r1, #0]
20004bd0:	4915      	ldr	r1, [pc, #84]	@ (20004c28 <DiskUnmount+0x78>)
20004bd2:	800b      	strh	r3, [r1, #0]
20004bd4:	4915      	ldr	r1, [pc, #84]	@ (20004c2c <DiskUnmount+0x7c>)
20004bd6:	600b      	str	r3, [r1, #0]
20004bd8:	4915      	ldr	r1, [pc, #84]	@ (20004c30 <DiskUnmount+0x80>)
20004bda:	600b      	str	r3, [r1, #0]
20004bdc:	4915      	ldr	r1, [pc, #84]	@ (20004c34 <DiskUnmount+0x84>)
20004bde:	600a      	str	r2, [r1, #0]
20004be0:	4915      	ldr	r1, [pc, #84]	@ (20004c38 <DiskUnmount+0x88>)
20004be2:	600a      	str	r2, [r1, #0]
20004be4:	4a15      	ldr	r2, [pc, #84]	@ (20004c3c <DiskUnmount+0x8c>)
20004be6:	6013      	str	r3, [r2, #0]
20004be8:	4a15      	ldr	r2, [pc, #84]	@ (20004c40 <DiskUnmount+0x90>)
20004bea:	6013      	str	r3, [r2, #0]
20004bec:	4a15      	ldr	r2, [pc, #84]	@ (20004c44 <DiskUnmount+0x94>)
20004bee:	6013      	str	r3, [r2, #0]
20004bf0:	4a15      	ldr	r2, [pc, #84]	@ (20004c48 <DiskUnmount+0x98>)
20004bf2:	6013      	str	r3, [r2, #0]
20004bf4:	4a15      	ldr	r2, [pc, #84]	@ (20004c4c <DiskUnmount+0x9c>)
20004bf6:	6013      	str	r3, [r2, #0]
20004bf8:	4a15      	ldr	r2, [pc, #84]	@ (20004c50 <DiskUnmount+0xa0>)
20004bfa:	6013      	str	r3, [r2, #0]
20004bfc:	4a15      	ldr	r2, [pc, #84]	@ (20004c54 <DiskUnmount+0xa4>)
20004bfe:	6013      	str	r3, [r2, #0]
20004c00:	4a15      	ldr	r2, [pc, #84]	@ (20004c58 <DiskUnmount+0xa8>)
20004c02:	6013      	str	r3, [r2, #0]
20004c04:	4a15      	ldr	r2, [pc, #84]	@ (20004c5c <DiskUnmount+0xac>)
20004c06:	6013      	str	r3, [r2, #0]
20004c08:	4a15      	ldr	r2, [pc, #84]	@ (20004c60 <DiskUnmount+0xb0>)
20004c0a:	61d3      	str	r3, [r2, #28]
20004c0c:	6293      	str	r3, [r2, #40]	@ 0x28
20004c0e:	4770      	bx	lr
20004c10:	2000aac0 	.word	0x2000aac0
20004c14:	200323fb 	.word	0x200323fb
20004c18:	200323fc 	.word	0x200323fc
20004c1c:	2000aabc 	.word	0x2000aabc
20004c20:	200323fd 	.word	0x200323fd
20004c24:	200323d7 	.word	0x200323d7
20004c28:	2003229c 	.word	0x2003229c
20004c2c:	2000adc8 	.word	0x2000adc8
20004c30:	2000ab18 	.word	0x2000ab18
20004c34:	2000ab10 	.word	0x2000ab10
20004c38:	2000ab0c 	.word	0x2000ab0c
20004c3c:	2000ab14 	.word	0x2000ab14
20004c40:	2000ade8 	.word	0x2000ade8
20004c44:	2000adec 	.word	0x2000adec
20004c48:	2000abc0 	.word	0x2000abc0
20004c4c:	2000ade4 	.word	0x2000ade4
20004c50:	2000ab90 	.word	0x2000ab90
20004c54:	2000ab8c 	.word	0x2000ab8c
20004c58:	2000ab3c 	.word	0x2000ab3c
20004c5c:	2000adc4 	.word	0x2000adc4
20004c60:	2000ab94 	.word	0x2000ab94

20004c64 <CheckApp>:
20004c64:	b570      	push	{r4, r5, r6, lr}
20004c66:	4c12      	ldr	r4, [pc, #72]	@ (20004cb0 <CheckApp+0x4c>)
20004c68:	460b      	mov	r3, r1
20004c6a:	4615      	mov	r5, r2
20004c6c:	6921      	ldr	r1, [r4, #16]
20004c6e:	4a11      	ldr	r2, [pc, #68]	@ (20004cb4 <CheckApp+0x50>)
20004c70:	4291      	cmp	r1, r2
20004c72:	d11b      	bne.n	20004cac <CheckApp+0x48>
20004c74:	6a61      	ldr	r1, [r4, #36]	@ 0x24
20004c76:	f102 3220 	add.w	r2, r2, #538976288	@ 0x20202020
20004c7a:	4291      	cmp	r1, r2
20004c7c:	d116      	bne.n	20004cac <CheckApp+0x48>
20004c7e:	6961      	ldr	r1, [r4, #20]
20004c80:	4a0d      	ldr	r2, [pc, #52]	@ (20004cb8 <CheckApp+0x54>)
20004c82:	1f0e      	subs	r6, r1, #4
20004c84:	4296      	cmp	r6, r2
20004c86:	d811      	bhi.n	20004cac <CheckApp+0x48>
20004c88:	b100      	cbz	r0, 20004c8c <CheckApp+0x28>
20004c8a:	6001      	str	r1, [r0, #0]
20004c8c:	b123      	cbz	r3, 20004c98 <CheckApp+0x34>
20004c8e:	f501 3280 	add.w	r2, r1, #65536	@ 0x10000
20004c92:	f502 728e 	add.w	r2, r2, #284	@ 0x11c
20004c96:	601a      	str	r2, [r3, #0]
20004c98:	4808      	ldr	r0, [pc, #32]	@ (20004cbc <CheckApp+0x58>)
20004c9a:	f7ff f955 	bl	20003f48 <Crc32ADMA>
20004c9e:	b105      	cbz	r5, 20004ca2 <CheckApp+0x3e>
20004ca0:	6028      	str	r0, [r5, #0]
20004ca2:	69a3      	ldr	r3, [r4, #24]
20004ca4:	1a1b      	subs	r3, r3, r0
20004ca6:	4258      	negs	r0, r3
20004ca8:	4158      	adcs	r0, r3
20004caa:	bd70      	pop	{r4, r5, r6, pc}
20004cac:	2000      	movs	r0, #0
20004cae:	e7fc      	b.n	20004caa <CheckApp+0x46>
20004cb0:	10010100 	.word	0x10010100
20004cb4:	44415050 	.word	0x44415050
20004cb8:	00ff7ffc 	.word	0x00ff7ffc
20004cbc:	1001011c 	.word	0x1001011c

20004cc0 <MemInit>:
20004cc0:	4b15      	ldr	r3, [pc, #84]	@ (20004d18 <MemInit+0x58>)
20004cc2:	4a16      	ldr	r2, [pc, #88]	@ (20004d1c <MemInit+0x5c>)
20004cc4:	4916      	ldr	r1, [pc, #88]	@ (20004d20 <MemInit+0x60>)
20004cc6:	1ad2      	subs	r2, r2, r3
20004cc8:	f1a2 0018 	sub.w	r0, r2, #24
20004ccc:	b530      	push	{r4, r5, lr}
20004cce:	6008      	str	r0, [r1, #0]
20004cd0:	2000      	movs	r0, #0
20004cd2:	4914      	ldr	r1, [pc, #80]	@ (20004d24 <MemInit+0x64>)
20004cd4:	7018      	strb	r0, [r3, #0]
20004cd6:	6008      	str	r0, [r1, #0]
20004cd8:	4913      	ldr	r1, [pc, #76]	@ (20004d28 <MemInit+0x68>)
20004cda:	f06f 0407 	mvn.w	r4, #7
20004cde:	6008      	str	r0, [r1, #0]
20004ce0:	7058      	strb	r0, [r3, #1]
20004ce2:	7098      	strb	r0, [r3, #2]
20004ce4:	70d8      	strb	r0, [r3, #3]
20004ce6:	f04f 30ff 	mov.w	r0, #4294967295
20004cea:	3a10      	subs	r2, #16
20004cec:	7158      	strb	r0, [r3, #5]
20004cee:	7198      	strb	r0, [r3, #6]
20004cf0:	71d8      	strb	r0, [r3, #7]
20004cf2:	e9c3 3202 	strd	r3, r2, [r3, #8]
20004cf6:	711c      	strb	r4, [r3, #4]
20004cf8:	f103 0108 	add.w	r1, r3, #8
20004cfc:	f103 0010 	add.w	r0, r3, #16
20004d00:	4b0a      	ldr	r3, [pc, #40]	@ (20004d2c <MemInit+0x6c>)
20004d02:	188d      	adds	r5, r1, r2
20004d04:	6058      	str	r0, [r3, #4]
20004d06:	6018      	str	r0, [r3, #0]
20004d08:	2001      	movs	r0, #1
20004d0a:	e9c1 3302 	strd	r3, r3, [r1, #8]
20004d0e:	6098      	str	r0, [r3, #8]
20004d10:	5089      	str	r1, [r1, r2]
20004d12:	606c      	str	r4, [r5, #4]
20004d14:	bd30      	pop	{r4, r5, pc}
20004d16:	bf00      	nop
20004d18:	20032b50 	.word	0x20032b50
20004d1c:	20080000 	.word	0x20080000
20004d20:	2003166c 	.word	0x2003166c
20004d24:	20031674 	.word	0x20031674
20004d28:	20031670 	.word	0x20031670
20004d2c:	20031660 	.word	0x20031660

20004d30 <PmemInit>:
20004d30:	b5f8      	push	{r3, r4, r5, r6, r7, lr}
20004d32:	4b1f      	ldr	r3, [pc, #124]	@ (20004db0 <PmemInit+0x80>)
20004d34:	2200      	movs	r2, #0
20004d36:	461e      	mov	r6, r3
20004d38:	3201      	adds	r2, #1
20004d3a:	2a0f      	cmp	r2, #15
20004d3c:	e9c3 3300 	strd	r3, r3, [r3]
20004d40:	f103 0308 	add.w	r3, r3, #8
20004d44:	d1f8      	bne.n	20004d38 <PmemInit+0x8>
20004d46:	4b1b      	ldr	r3, [pc, #108]	@ (20004db4 <PmemInit+0x84>)
20004d48:	681b      	ldr	r3, [r3, #0]
20004d4a:	b1fb      	cbz	r3, 20004d8c <PmemInit+0x5c>
20004d4c:	f643 74ff 	movw	r4, #16383	@ 0x3fff
20004d50:	2500      	movs	r5, #0
20004d52:	0b9f      	lsrs	r7, r3, #14
20004d54:	4a18      	ldr	r2, [pc, #96]	@ (20004db8 <PmemInit+0x88>)
20004d56:	eb04 0487 	add.w	r4, r4, r7, lsl #2
20004d5a:	6017      	str	r7, [r2, #0]
20004d5c:	f36f 040d 	bfc	r4, #0, #14
20004d60:	4a16      	ldr	r2, [pc, #88]	@ (20004dbc <PmemInit+0x8c>)
20004d62:	1b1b      	subs	r3, r3, r4
20004d64:	6013      	str	r3, [r2, #0]
20004d66:	4a16      	ldr	r2, [pc, #88]	@ (20004dc0 <PmemInit+0x90>)
20004d68:	13a4      	asrs	r4, r4, #14
20004d6a:	6013      	str	r3, [r2, #0]
20004d6c:	4b15      	ldr	r3, [pc, #84]	@ (20004dc4 <PmemInit+0x94>)
20004d6e:	4629      	mov	r1, r5
20004d70:	601c      	str	r4, [r3, #0]
20004d72:	4b15      	ldr	r3, [pc, #84]	@ (20004dc8 <PmemInit+0x98>)
20004d74:	00ba      	lsls	r2, r7, #2
20004d76:	f04f 5088 	mov.w	r0, #285212672	@ 0x11000000
20004d7a:	601d      	str	r5, [r3, #0]
20004d7c:	f004 fa96 	bl	200092ac <memset>
20004d80:	4629      	mov	r1, r5
20004d82:	2202      	movs	r2, #2
20004d84:	42a1      	cmp	r1, r4
20004d86:	d102      	bne.n	20004d8e <PmemInit+0x5e>
20004d88:	42bc      	cmp	r4, r7
20004d8a:	db06      	blt.n	20004d9a <PmemInit+0x6a>
20004d8c:	bdf8      	pop	{r3, r4, r5, r6, r7, pc}
20004d8e:	008b      	lsls	r3, r1, #2
20004d90:	f103 5388 	add.w	r3, r3, #285212672	@ 0x11000000
20004d94:	805a      	strh	r2, [r3, #2]
20004d96:	3101      	adds	r1, #1
20004d98:	e7f4      	b.n	20004d84 <PmemInit+0x54>
20004d9a:	6872      	ldr	r2, [r6, #4]
20004d9c:	03a3      	lsls	r3, r4, #14
20004d9e:	f103 5388 	add.w	r3, r3, #285212672	@ 0x11000000
20004da2:	6013      	str	r3, [r2, #0]
20004da4:	3401      	adds	r4, #1
20004da6:	e9c3 6200 	strd	r6, r2, [r3]
20004daa:	6073      	str	r3, [r6, #4]
20004dac:	e7ec      	b.n	20004d88 <PmemInit+0x58>
20004dae:	bf00      	nop
20004db0:	20031680 	.word	0x20031680
20004db4:	20031678 	.word	0x20031678
20004db8:	20031704 	.word	0x20031704
20004dbc:	20031700 	.word	0x20031700
20004dc0:	200316fc 	.word	0x200316fc
20004dc4:	20031708 	.word	0x20031708
20004dc8:	200316f8 	.word	0x200316f8

20004dcc <PWMSndInit>:
20004dcc:	e92d 41f0 	stmdb	sp!, {r4, r5, r6, r7, r8, lr}
20004dd0:	4b3c      	ldr	r3, [pc, #240]	@ (20004ec4 <PWMSndInit+0xf8>)
20004dd2:	781b      	ldrb	r3, [r3, #0]
20004dd4:	2b00      	cmp	r3, #0
20004dd6:	d173      	bne.n	20004ec0 <PWMSndInit+0xf4>
20004dd8:	4f3b      	ldr	r7, [pc, #236]	@ (20004ec8 <PWMSndInit+0xfc>)
20004dda:	4d3c      	ldr	r5, [pc, #240]	@ (20004ecc <PWMSndInit+0x100>)
20004ddc:	683b      	ldr	r3, [r7, #0]
20004dde:	4c3c      	ldr	r4, [pc, #240]	@ (20004ed0 <PWMSndInit+0x104>)
20004de0:	f003 0201 	and.w	r2, r3, #1
20004de4:	f3c3 0047 	ubfx	r0, r3, #1, #8
20004de8:	2b1f      	cmp	r3, #31
20004dea:	6022      	str	r2, [r4, #0]
20004dec:	682a      	ldr	r2, [r5, #0]
20004dee:	bfc8      	it	gt
20004df0:	f000 0003 	andgt.w	r0, r0, #3
20004df4:	4e37      	ldr	r6, [pc, #220]	@ (20004ed4 <PWMSndInit+0x108>)
20004df6:	f8df 8100 	ldr.w	r8, [pc, #256]	@ 20004ef8 <PWMSndInit+0x12c>
20004dfa:	bfd4      	ite	le
20004dfc:	f000 0007 	andle.w	r0, r0, #7
20004e00:	3008      	addgt	r0, #8
20004e02:	f002 0201 	and.w	r2, r2, #1
20004e06:	f8c8 0000 	str.w	r0, [r8]
20004e0a:	6032      	str	r2, [r6, #0]
20004e0c:	f7fc fcd6 	bl	200017bc <PWM_Reset>
20004e10:	6828      	ldr	r0, [r5, #0]
20004e12:	2800      	cmp	r0, #0
20004e14:	db02      	blt.n	20004e1c <PWMSndInit+0x50>
20004e16:	2104      	movs	r1, #4
20004e18:	f7fc fb82 	bl	20001520 <GPIO_Fnc>
20004e1c:	2104      	movs	r1, #4
20004e1e:	6838      	ldr	r0, [r7, #0]
20004e20:	f7fc fb7e 	bl	20001520 <GPIO_Fnc>
20004e24:	2200      	movs	r2, #0
20004e26:	4b2c      	ldr	r3, [pc, #176]	@ (20004ed8 <PWMSndInit+0x10c>)
20004e28:	605a      	str	r2, [r3, #4]
20004e2a:	641a      	str	r2, [r3, #64]	@ 0x40
20004e2c:	67da      	str	r2, [r3, #124]	@ 0x7c
20004e2e:	f8c3 20b8 	str.w	r2, [r3, #184]	@ 0xb8
20004e32:	f04f 23e0 	mov.w	r3, #3758153728	@ 0xe000e000
20004e36:	4a29      	ldr	r2, [pc, #164]	@ (20004edc <PWMSndInit+0x110>)
20004e38:	f8d3 3d08 	ldr.w	r3, [r3, #3336]	@ 0xd08
20004e3c:	661a      	str	r2, [r3, #96]	@ 0x60
20004e3e:	f3bf 8f5f 	dmb	sy
20004e42:	f44f 7280 	mov.w	r2, #256	@ 0x100
20004e46:	4b26      	ldr	r3, [pc, #152]	@ (20004ee0 <PWMSndInit+0x114>)
20004e48:	f8c3 2180 	str.w	r2, [r3, #384]	@ 0x180
20004e4c:	601a      	str	r2, [r3, #0]
20004e4e:	2314      	movs	r3, #20
20004e50:	2010      	movs	r0, #16
20004e52:	f8d8 1000 	ldr.w	r1, [r8]
20004e56:	4a23      	ldr	r2, [pc, #140]	@ (20004ee4 <PWMSndInit+0x118>)
20004e58:	434b      	muls	r3, r1
20004e5a:	5098      	str	r0, [r3, r2]
20004e5c:	f240 70ff 	movw	r0, #2047	@ 0x7ff
20004e60:	320c      	adds	r2, #12
20004e62:	5098      	str	r0, [r3, r2]
20004e64:	4f20      	ldr	r7, [pc, #128]	@ (20004ee8 <PWMSndInit+0x11c>)
20004e66:	682a      	ldr	r2, [r5, #0]
20004e68:	19d8      	adds	r0, r3, r7
20004e6a:	2a00      	cmp	r2, #0
20004e6c:	f440 5080 	orr.w	r0, r0, #4096	@ 0x1000
20004e70:	db0e      	blt.n	20004e90 <PWMSndInit+0xc4>
20004e72:	f240 32ff 	movw	r2, #1023	@ 0x3ff
20004e76:	6835      	ldr	r5, [r6, #0]
20004e78:	f64f 76ff 	movw	r6, #65535	@ 0xffff
20004e7c:	f853 c007 	ldr.w	ip, [r3, r7]
20004e80:	012d      	lsls	r5, r5, #4
20004e82:	40aa      	lsls	r2, r5
20004e84:	ea82 020c 	eor.w	r2, r2, ip
20004e88:	fa06 f505 	lsl.w	r5, r6, r5
20004e8c:	402a      	ands	r2, r5
20004e8e:	6002      	str	r2, [r0, #0]
20004e90:	59dd      	ldr	r5, [r3, r7]
20004e92:	f240 33ff 	movw	r3, #1023	@ 0x3ff
20004e96:	6822      	ldr	r2, [r4, #0]
20004e98:	f64f 74ff 	movw	r4, #65535	@ 0xffff
20004e9c:	0112      	lsls	r2, r2, #4
20004e9e:	4093      	lsls	r3, r2
20004ea0:	406b      	eors	r3, r5
20004ea2:	fa04 f202 	lsl.w	r2, r4, r2
20004ea6:	4013      	ands	r3, r2
20004ea8:	2200      	movs	r2, #0
20004eaa:	6003      	str	r3, [r0, #0]
20004eac:	4b0f      	ldr	r3, [pc, #60]	@ (20004eec <PWMSndInit+0x120>)
20004eae:	601a      	str	r2, [r3, #0]
20004eb0:	2301      	movs	r3, #1
20004eb2:	4a0f      	ldr	r2, [pc, #60]	@ (20004ef0 <PWMSndInit+0x124>)
20004eb4:	fa03 f101 	lsl.w	r1, r3, r1
20004eb8:	f8c2 10f8 	str.w	r1, [r2, #248]	@ 0xf8
20004ebc:	4a0d      	ldr	r2, [pc, #52]	@ (20004ef4 <PWMSndInit+0x128>)
20004ebe:	7013      	strb	r3, [r2, #0]
20004ec0:	e8bd 81f0 	ldmia.w	sp!, {r4, r5, r6, r7, r8, pc}
20004ec4:	20032419 	.word	0x20032419
20004ec8:	2000aab8 	.word	0x2000aab8
20004ecc:	2000aab4 	.word	0x2000aab4
20004ed0:	2000aab0 	.word	0x2000aab0
20004ed4:	2000aaac 	.word	0x2000aaac
20004ed8:	20031714 	.word	0x20031714
20004edc:	20003809 	.word	0x20003809
20004ee0:	e000e100 	.word	0xe000e100
20004ee4:	400a8004 	.word	0x400a8004
20004ee8:	400a800c 	.word	0x400a800c
20004eec:	20031804 	.word	0x20031804
20004ef0:	400aa000 	.word	0x400aa000
20004ef4:	2003243e 	.word	0x2003243e
20004ef8:	2000aaa8 	.word	0x2000aaa8

20004efc <PWMSndTerm>:
20004efc:	b508      	push	{r3, lr}
20004efe:	4b14      	ldr	r3, [pc, #80]	@ (20004f50 <PWMSndTerm+0x54>)
20004f00:	781a      	ldrb	r2, [r3, #0]
20004f02:	b322      	cbz	r2, 20004f4e <PWMSndTerm+0x52>
20004f04:	2200      	movs	r2, #0
20004f06:	701a      	strb	r2, [r3, #0]
20004f08:	4b12      	ldr	r3, [pc, #72]	@ (20004f54 <PWMSndTerm+0x58>)
20004f0a:	2201      	movs	r2, #1
20004f0c:	6818      	ldr	r0, [r3, #0]
20004f0e:	2314      	movs	r3, #20
20004f10:	4343      	muls	r3, r0
20004f12:	f103 4380 	add.w	r3, r3, #1073741824	@ 0x40000000
20004f16:	f503 2328 	add.w	r3, r3, #688128	@ 0xa8000
20004f1a:	f443 5340 	orr.w	r3, r3, #12288	@ 0x3000
20004f1e:	601a      	str	r2, [r3, #0]
20004f20:	fa02 f300 	lsl.w	r3, r2, r0
20004f24:	4a0c      	ldr	r2, [pc, #48]	@ (20004f58 <PWMSndTerm+0x5c>)
20004f26:	f8c2 30f8 	str.w	r3, [r2, #248]	@ 0xf8
20004f2a:	f5a2 5240 	sub.w	r2, r2, #12288	@ 0x3000
20004f2e:	f8c2 30f4 	str.w	r3, [r2, #244]	@ 0xf4
20004f32:	f7fc fc43 	bl	200017bc <PWM_Reset>
20004f36:	4b09      	ldr	r3, [pc, #36]	@ (20004f5c <PWMSndTerm+0x60>)
20004f38:	6818      	ldr	r0, [r3, #0]
20004f3a:	f7fc fb4b 	bl	200015d4 <GPIO_Reset>
20004f3e:	4b08      	ldr	r3, [pc, #32]	@ (20004f60 <PWMSndTerm+0x64>)
20004f40:	6818      	ldr	r0, [r3, #0]
20004f42:	2800      	cmp	r0, #0
20004f44:	db03      	blt.n	20004f4e <PWMSndTerm+0x52>
20004f46:	e8bd 4008 	ldmia.w	sp!, {r3, lr}
20004f4a:	f7fc bb43 	b.w	200015d4 <GPIO_Reset>
20004f4e:	bd08      	pop	{r3, pc}
20004f50:	2003243e 	.word	0x2003243e
20004f54:	2000aaa8 	.word	0x2000aaa8
20004f58:	400ab000 	.word	0x400ab000
20004f5c:	2000aab8 	.word	0x2000aab8
20004f60:	2000aab4 	.word	0x2000aab4

20004f64 <RandShift>:
20004f64:	b5f0      	push	{r4, r5, r6, r7, lr}
20004f66:	f3ef 8710 	mrs	r7, PRIMASK
20004f6a:	b672      	cpsid	i
20004f6c:	f04f 4350 	mov.w	r3, #3489660928	@ 0xd0000000
20004f70:	4a0a      	ldr	r2, [pc, #40]	@ (20004f9c <RandShift+0x38>)
20004f72:	6819      	ldr	r1, [r3, #0]
20004f74:	4c0a      	ldr	r4, [pc, #40]	@ (20004fa0 <RandShift+0x3c>)
20004f76:	f852 3031 	ldr.w	r3, [r2, r1, lsl #3]
20004f7a:	eb02 05c1 	add.w	r5, r2, r1, lsl #3
20004f7e:	fba3 3004 	umull	r3, r0, r3, r4
20004f82:	686e      	ldr	r6, [r5, #4]
20004f84:	fb04 0006 	mla	r0, r4, r6, r0
20004f88:	4c06      	ldr	r4, [pc, #24]	@ (20004fa4 <RandShift+0x40>)
20004f8a:	191b      	adds	r3, r3, r4
20004f8c:	f140 0000 	adc.w	r0, r0, #0
20004f90:	f842 3031 	str.w	r3, [r2, r1, lsl #3]
20004f94:	6068      	str	r0, [r5, #4]
20004f96:	f387 8810 	msr	PRIMASK, r7
20004f9a:	bdf0      	pop	{r4, r5, r6, r7, pc}
20004f9c:	2000aa98 	.word	0x2000aa98
20004fa0:	000343fd 	.word	0x000343fd
20004fa4:	00269ec3 	.word	0x00269ec3

20004fa8 <RandInit>:
20004fa8:	b5f8      	push	{r3, r4, r5, r6, r7, lr}
20004faa:	f7fc fd03 	bl	200019b4 <RoscRand>
20004fae:	f3ef 8510 	mrs	r5, PRIMASK
20004fb2:	b672      	cpsid	i
20004fb4:	f04f 4250 	mov.w	r2, #3489660928	@ 0xd0000000
20004fb8:	6813      	ldr	r3, [r2, #0]
20004fba:	4911      	ldr	r1, [pc, #68]	@ (20005000 <RandInit+0x58>)
20004fbc:	6814      	ldr	r4, [r2, #0]
20004fbe:	f083 0301 	eor.w	r3, r3, #1
20004fc2:	f851 7034 	ldr.w	r7, [r1, r4, lsl #3]
20004fc6:	eb01 0cc4 	add.w	ip, r1, r4, lsl #3
20004fca:	eb01 02c3 	add.w	r2, r1, r3, lsl #3
20004fce:	f851 3033 	ldr.w	r3, [r1, r3, lsl #3]
20004fd2:	f8dc 6004 	ldr.w	r6, [ip, #4]
20004fd6:	6852      	ldr	r2, [r2, #4]
20004fd8:	19db      	adds	r3, r3, r7
20004fda:	eb42 0206 	adc.w	r2, r2, r6
20004fde:	181b      	adds	r3, r3, r0
20004fe0:	f142 0200 	adc.w	r2, r2, #0
20004fe4:	f841 3034 	str.w	r3, [r1, r4, lsl #3]
20004fe8:	f8cc 2004 	str.w	r2, [ip, #4]
20004fec:	f7ff ffba 	bl	20004f64 <RandShift>
20004ff0:	f7ff ffb8 	bl	20004f64 <RandShift>
20004ff4:	f7ff ffb6 	bl	20004f64 <RandShift>
20004ff8:	f385 8810 	msr	PRIMASK, r5
20004ffc:	bdf8      	pop	{r3, r4, r5, r6, r7, pc}
20004ffe:	bf00      	nop
20005000:	2000aa98 	.word	0x2000aa98

20005004 <RingWriteUpdate>:
20005004:	6943      	ldr	r3, [r0, #20]
20005006:	b103      	cbz	r3, 2000500a <RingWriteUpdate+0x6>
20005008:	4718      	bx	r3
2000500a:	4770      	bx	lr

2000500c <RingReadUpdate>:
2000500c:	6983      	ldr	r3, [r0, #24]
2000500e:	b103      	cbz	r3, 20005012 <RingReadUpdate+0x6>
20005010:	4718      	bx	r3
20005012:	4770      	bx	lr

20005014 <RingWriteData>:
20005014:	b5f8      	push	{r3, r4, r5, r6, r7, lr}
20005016:	f3bf 8f5f 	dmb	sy
2000501a:	6884      	ldr	r4, [r0, #8]
2000501c:	68c3      	ldr	r3, [r0, #12]
2000501e:	429c      	cmp	r4, r3
20005020:	bf24      	itt	cs
20005022:	6845      	ldrcs	r5, [r0, #4]
20005024:	195b      	addcs	r3, r3, r5
20005026:	1b1b      	subs	r3, r3, r4
20005028:	2b01      	cmp	r3, #1
2000502a:	d104      	bne.n	20005036 <RingWriteData+0x22>
2000502c:	f7ff ffea 	bl	20005004 <RingWriteUpdate>
20005030:	2400      	movs	r4, #0
20005032:	4620      	mov	r0, r4
20005034:	bdf8      	pop	{r3, r4, r5, r6, r7, pc}
20005036:	f3ef 8510 	mrs	r5, PRIMASK
2000503a:	b672      	cpsid	i
2000503c:	6903      	ldr	r3, [r0, #16]
2000503e:	2b00      	cmp	r3, #0
20005040:	db09      	blt.n	20005056 <RingWriteData+0x42>
20005042:	009b      	lsls	r3, r3, #2
20005044:	f103 4350 	add.w	r3, r3, #3489660928	@ 0xd0000000
20005048:	f503 7380 	add.w	r3, r3, #256	@ 0x100
2000504c:	681c      	ldr	r4, [r3, #0]
2000504e:	2c00      	cmp	r4, #0
20005050:	d0fc      	beq.n	2000504c <RingWriteData+0x38>
20005052:	f3bf 8f5f 	dmb	sy
20005056:	f3bf 8f5f 	dmb	sy
2000505a:	6883      	ldr	r3, [r0, #8]
2000505c:	68c4      	ldr	r4, [r0, #12]
2000505e:	42a3      	cmp	r3, r4
20005060:	bf24      	itt	cs
20005062:	6846      	ldrcs	r6, [r0, #4]
20005064:	19a4      	addcs	r4, r4, r6
20005066:	1ae4      	subs	r4, r4, r3
20005068:	3c01      	subs	r4, #1
2000506a:	4294      	cmp	r4, r2
2000506c:	bf28      	it	cs
2000506e:	4614      	movcs	r4, r2
20005070:	b194      	cbz	r4, 20005098 <RingWriteData+0x84>
20005072:	190e      	adds	r6, r1, r4
20005074:	f811 cb01 	ldrb.w	ip, [r1], #1
20005078:	6807      	ldr	r7, [r0, #0]
2000507a:	1c5a      	adds	r2, r3, #1
2000507c:	f807 c003 	strb.w	ip, [r7, r3]
20005080:	6843      	ldr	r3, [r0, #4]
20005082:	4293      	cmp	r3, r2
20005084:	bf8c      	ite	hi
20005086:	4613      	movhi	r3, r2
20005088:	1ad3      	subls	r3, r2, r3
2000508a:	428e      	cmp	r6, r1
2000508c:	d1f2      	bne.n	20005074 <RingWriteData+0x60>
2000508e:	f3bf 8f5f 	dmb	sy
20005092:	6083      	str	r3, [r0, #8]
20005094:	f3bf 8f5f 	dmb	sy
20005098:	6903      	ldr	r3, [r0, #16]
2000509a:	2b00      	cmp	r3, #0
2000509c:	db07      	blt.n	200050ae <RingWriteData+0x9a>
2000509e:	f3bf 8f5f 	dmb	sy
200050a2:	2200      	movs	r2, #0
200050a4:	009b      	lsls	r3, r3, #2
200050a6:	f103 4350 	add.w	r3, r3, #3489660928	@ 0xd0000000
200050aa:	f8c3 2100 	str.w	r2, [r3, #256]	@ 0x100
200050ae:	f385 8810 	msr	PRIMASK, r5
200050b2:	f7ff ffa7 	bl	20005004 <RingWriteUpdate>
200050b6:	e7bc      	b.n	20005032 <RingWriteData+0x1e>

200050b8 <RingReadData>:
200050b8:	e92d 41f0 	stmdb	sp!, {r4, r5, r6, r7, r8, lr}
200050bc:	4604      	mov	r4, r0
200050be:	460e      	mov	r6, r1
200050c0:	4690      	mov	r8, r2
200050c2:	f7ff ffa3 	bl	2000500c <RingReadUpdate>
200050c6:	f3bf 8f5f 	dmb	sy
200050ca:	68a3      	ldr	r3, [r4, #8]
200050cc:	68e2      	ldr	r2, [r4, #12]
200050ce:	6861      	ldr	r1, [r4, #4]
200050d0:	4293      	cmp	r3, r2
200050d2:	bf38      	it	cc
200050d4:	185b      	addcc	r3, r3, r1
200050d6:	4293      	cmp	r3, r2
200050d8:	d03c      	beq.n	20005154 <RingReadData+0x9c>
200050da:	f3ef 8710 	mrs	r7, PRIMASK
200050de:	b672      	cpsid	i
200050e0:	6923      	ldr	r3, [r4, #16]
200050e2:	2b00      	cmp	r3, #0
200050e4:	db09      	blt.n	200050fa <RingReadData+0x42>
200050e6:	009b      	lsls	r3, r3, #2
200050e8:	f103 4350 	add.w	r3, r3, #3489660928	@ 0xd0000000
200050ec:	f503 7380 	add.w	r3, r3, #256	@ 0x100
200050f0:	681a      	ldr	r2, [r3, #0]
200050f2:	2a00      	cmp	r2, #0
200050f4:	d0fc      	beq.n	200050f0 <RingReadData+0x38>
200050f6:	f3bf 8f5f 	dmb	sy
200050fa:	f3bf 8f5f 	dmb	sy
200050fe:	68a0      	ldr	r0, [r4, #8]
20005100:	68e5      	ldr	r5, [r4, #12]
20005102:	42a8      	cmp	r0, r5
20005104:	bf38      	it	cc
20005106:	1840      	addcc	r0, r0, r1
20005108:	1b40      	subs	r0, r0, r5
2000510a:	4540      	cmp	r0, r8
2000510c:	bf28      	it	cs
2000510e:	4640      	movcs	r0, r8
20005110:	b188      	cbz	r0, 20005136 <RingReadData+0x7e>
20005112:	eb06 0c00 	add.w	ip, r6, r0
20005116:	6822      	ldr	r2, [r4, #0]
20005118:	1c6b      	adds	r3, r5, #1
2000511a:	5d52      	ldrb	r2, [r2, r5]
2000511c:	4299      	cmp	r1, r3
2000511e:	f806 2b01 	strb.w	r2, [r6], #1
20005122:	bf8c      	ite	hi
20005124:	461d      	movhi	r5, r3
20005126:	1a5d      	subls	r5, r3, r1
20005128:	4566      	cmp	r6, ip
2000512a:	d1f4      	bne.n	20005116 <RingReadData+0x5e>
2000512c:	f3bf 8f5f 	dmb	sy
20005130:	60e5      	str	r5, [r4, #12]
20005132:	f3bf 8f5f 	dmb	sy
20005136:	6923      	ldr	r3, [r4, #16]
20005138:	2b00      	cmp	r3, #0
2000513a:	db07      	blt.n	2000514c <RingReadData+0x94>
2000513c:	f3bf 8f5f 	dmb	sy
20005140:	2200      	movs	r2, #0
20005142:	009b      	lsls	r3, r3, #2
20005144:	f103 4350 	add.w	r3, r3, #3489660928	@ 0xd0000000
20005148:	f8c3 2100 	str.w	r2, [r3, #256]	@ 0x100
2000514c:	f387 8810 	msr	PRIMASK, r7
20005150:	e8bd 81f0 	ldmia.w	sp!, {r4, r5, r6, r7, r8, pc}
20005154:	2000      	movs	r0, #0
20005156:	e7fb      	b.n	20005150 <RingReadData+0x98>

20005158 <SDByte>:
20005158:	4b05      	ldr	r3, [pc, #20]	@ (20005170 <SDByte+0x18>)
2000515a:	68da      	ldr	r2, [r3, #12]
2000515c:	0791      	lsls	r1, r2, #30
2000515e:	d5fc      	bpl.n	2000515a <SDByte+0x2>
20005160:	6098      	str	r0, [r3, #8]
20005162:	68da      	ldr	r2, [r3, #12]
20005164:	0752      	lsls	r2, r2, #29
20005166:	d5fc      	bpl.n	20005162 <SDByte+0xa>
20005168:	6898      	ldr	r0, [r3, #8]
2000516a:	b2c0      	uxtb	r0, r0
2000516c:	4770      	bx	lr
2000516e:	bf00      	nop
20005170:	40088000 	.word	0x40088000

20005174 <SDUnsel>:
20005174:	b508      	push	{r3, lr}
20005176:	230d      	movs	r3, #13
20005178:	eec0 3010 			@ <UNDEFINED> instruction: 0xeec03010
2000517c:	20ff      	movs	r0, #255	@ 0xff
2000517e:	f7ff ffeb 	bl	20005158 <SDByte>
20005182:	20ff      	movs	r0, #255	@ 0xff
20005184:	f7ff ffe8 	bl	20005158 <SDByte>
20005188:	e8bd 4008 	ldmia.w	sp!, {r3, lr}
2000518c:	20ff      	movs	r0, #255	@ 0xff
2000518e:	f7ff bfe3 	b.w	20005158 <SDByte>

20005192 <SDSendCmd>:
20005192:	0602      	lsls	r2, r0, #24
20005194:	b538      	push	{r3, r4, r5, lr}
20005196:	4604      	mov	r4, r0
20005198:	460d      	mov	r5, r1
2000519a:	d507      	bpl.n	200051ac <SDSendCmd+0x1a>
2000519c:	2100      	movs	r1, #0
2000519e:	2037      	movs	r0, #55	@ 0x37
200051a0:	f7ff fff7 	bl	20005192 <SDSendCmd>
200051a4:	2801      	cmp	r0, #1
200051a6:	d82d      	bhi.n	20005204 <SDSendCmd+0x72>
200051a8:	f004 047f 	and.w	r4, r4, #127	@ 0x7f
200051ac:	20ff      	movs	r0, #255	@ 0xff
200051ae:	f7ff ffd3 	bl	20005158 <SDByte>
200051b2:	20ff      	movs	r0, #255	@ 0xff
200051b4:	f7ff ffd0 	bl	20005158 <SDByte>
200051b8:	20ff      	movs	r0, #255	@ 0xff
200051ba:	f7ff ffcd 	bl	20005158 <SDByte>
200051be:	f044 0040 	orr.w	r0, r4, #64	@ 0x40
200051c2:	f7ff ffc9 	bl	20005158 <SDByte>
200051c6:	0e28      	lsrs	r0, r5, #24
200051c8:	f7ff ffc6 	bl	20005158 <SDByte>
200051cc:	f3c5 4007 	ubfx	r0, r5, #16, #8
200051d0:	f7ff ffc2 	bl	20005158 <SDByte>
200051d4:	f3c5 2007 	ubfx	r0, r5, #8, #8
200051d8:	f7ff ffbe 	bl	20005158 <SDByte>
200051dc:	b2e8      	uxtb	r0, r5
200051de:	f7ff ffbb 	bl	20005158 <SDByte>
200051e2:	b184      	cbz	r4, 20005206 <SDSendCmd+0x74>
200051e4:	2c08      	cmp	r4, #8
200051e6:	bf0c      	ite	eq
200051e8:	2087      	moveq	r0, #135	@ 0x87
200051ea:	20ff      	movne	r0, #255	@ 0xff
200051ec:	f7ff ffb4 	bl	20005158 <SDByte>
200051f0:	240a      	movs	r4, #10
200051f2:	20ff      	movs	r0, #255	@ 0xff
200051f4:	f7ff ffb0 	bl	20005158 <SDByte>
200051f8:	0603      	lsls	r3, r0, #24
200051fa:	d503      	bpl.n	20005204 <SDSendCmd+0x72>
200051fc:	3c01      	subs	r4, #1
200051fe:	f014 04ff 	ands.w	r4, r4, #255	@ 0xff
20005202:	d1f6      	bne.n	200051f2 <SDSendCmd+0x60>
20005204:	bd38      	pop	{r3, r4, r5, pc}
20005206:	2095      	movs	r0, #149	@ 0x95
20005208:	e7f0      	b.n	200051ec <SDSendCmd+0x5a>
	...

2000520c <SDConnect>:
2000520c:	2300      	movs	r3, #0
2000520e:	b570      	push	{r4, r5, r6, lr}
20005210:	4c49      	ldr	r4, [pc, #292]	@ (20005338 <SDConnect+0x12c>)
20005212:	494a      	ldr	r1, [pc, #296]	@ (2000533c <SDConnect+0x130>)
20005214:	484a      	ldr	r0, [pc, #296]	@ (20005340 <SDConnect+0x134>)
20005216:	7023      	strb	r3, [r4, #0]
20005218:	f7fc fc1e 	bl	20001a58 <SPI_Baudrate_hw>
2000521c:	4b48      	ldr	r3, [pc, #288]	@ (20005340 <SDConnect+0x134>)
2000521e:	68da      	ldr	r2, [r3, #12]
20005220:	0750      	lsls	r0, r2, #29
20005222:	d41d      	bmi.n	20005260 <SDConnect+0x54>
20005224:	f7ff ffa6 	bl	20005174 <SDUnsel>
20005228:	2514      	movs	r5, #20
2000522a:	20ff      	movs	r0, #255	@ 0xff
2000522c:	3d01      	subs	r5, #1
2000522e:	f7ff ff93 	bl	20005158 <SDByte>
20005232:	f015 05ff 	ands.w	r5, r5, #255	@ 0xff
20005236:	d1f8      	bne.n	2000522a <SDConnect+0x1e>
20005238:	230d      	movs	r3, #13
2000523a:	eee0 3010 			@ <UNDEFINED> instruction: 0xeee03010
2000523e:	20ff      	movs	r0, #255	@ 0xff
20005240:	f7ff ff8a 	bl	20005158 <SDByte>
20005244:	2664      	movs	r6, #100	@ 0x64
20005246:	2100      	movs	r1, #0
20005248:	4608      	mov	r0, r1
2000524a:	f7ff ffa2 	bl	20005192 <SDSendCmd>
2000524e:	2801      	cmp	r0, #1
20005250:	d041      	beq.n	200052d6 <SDConnect+0xca>
20005252:	3e01      	subs	r6, #1
20005254:	f016 06ff 	ands.w	r6, r6, #255	@ 0xff
20005258:	d1f5      	bne.n	20005246 <SDConnect+0x3a>
2000525a:	f7ff ff8b 	bl	20005174 <SDUnsel>
2000525e:	e038      	b.n	200052d2 <SDConnect+0xc6>
20005260:	689a      	ldr	r2, [r3, #8]
20005262:	e7dc      	b.n	2000521e <SDConnect+0x12>
20005264:	7823      	ldrb	r3, [r4, #0]
20005266:	2b01      	cmp	r3, #1
20005268:	d150      	bne.n	2000530c <SDConnect+0x100>
2000526a:	2100      	movs	r1, #0
2000526c:	20a9      	movs	r0, #169	@ 0xa9
2000526e:	f7ff ff90 	bl	20005192 <SDSendCmd>
20005272:	0741      	lsls	r1, r0, #29
20005274:	d44a      	bmi.n	2000530c <SDConnect+0x100>
20005276:	2302      	movs	r3, #2
20005278:	e047      	b.n	2000530a <SDConnect+0xfe>
2000527a:	2b02      	cmp	r3, #2
2000527c:	f04f 0100 	mov.w	r1, #0
20005280:	d04a      	beq.n	20005318 <SDConnect+0x10c>
20005282:	2001      	movs	r0, #1
20005284:	e049      	b.n	2000531a <SDConnect+0x10e>
20005286:	7823      	ldrb	r3, [r4, #0]
20005288:	2b03      	cmp	r3, #3
2000528a:	d116      	bne.n	200052ba <SDConnect+0xae>
2000528c:	203a      	movs	r0, #58	@ 0x3a
2000528e:	f7ff ff80 	bl	20005192 <SDSendCmd>
20005292:	2801      	cmp	r0, #1
20005294:	d811      	bhi.n	200052ba <SDConnect+0xae>
20005296:	20ff      	movs	r0, #255	@ 0xff
20005298:	f7ff ff5e 	bl	20005158 <SDByte>
2000529c:	0642      	lsls	r2, r0, #25
2000529e:	bf48      	it	mi
200052a0:	2304      	movmi	r3, #4
200052a2:	f04f 00ff 	mov.w	r0, #255	@ 0xff
200052a6:	bf48      	it	mi
200052a8:	7023      	strbmi	r3, [r4, #0]
200052aa:	f7ff ff55 	bl	20005158 <SDByte>
200052ae:	20ff      	movs	r0, #255	@ 0xff
200052b0:	f7ff ff52 	bl	20005158 <SDByte>
200052b4:	20ff      	movs	r0, #255	@ 0xff
200052b6:	f7ff ff4f 	bl	20005158 <SDByte>
200052ba:	f44f 7100 	mov.w	r1, #512	@ 0x200
200052be:	2010      	movs	r0, #16
200052c0:	f7ff ff67 	bl	20005192 <SDSendCmd>
200052c4:	f7ff ff56 	bl	20005174 <SDUnsel>
200052c8:	491e      	ldr	r1, [pc, #120]	@ (20005344 <SDConnect+0x138>)
200052ca:	481d      	ldr	r0, [pc, #116]	@ (20005340 <SDConnect+0x134>)
200052cc:	f7fc fbc4 	bl	20001a58 <SPI_Baudrate_hw>
200052d0:	2501      	movs	r5, #1
200052d2:	4628      	mov	r0, r5
200052d4:	bd70      	pop	{r4, r5, r6, pc}
200052d6:	7020      	strb	r0, [r4, #0]
200052d8:	f44f 71d5 	mov.w	r1, #426	@ 0x1aa
200052dc:	2008      	movs	r0, #8
200052de:	f7ff ff58 	bl	20005192 <SDSendCmd>
200052e2:	0743      	lsls	r3, r0, #29
200052e4:	d4be      	bmi.n	20005264 <SDConnect+0x58>
200052e6:	20ff      	movs	r0, #255	@ 0xff
200052e8:	f7ff ff36 	bl	20005158 <SDByte>
200052ec:	20ff      	movs	r0, #255	@ 0xff
200052ee:	f7ff ff33 	bl	20005158 <SDByte>
200052f2:	20ff      	movs	r0, #255	@ 0xff
200052f4:	f7ff ff30 	bl	20005158 <SDByte>
200052f8:	4606      	mov	r6, r0
200052fa:	20ff      	movs	r0, #255	@ 0xff
200052fc:	f7ff ff2c 	bl	20005158 <SDByte>
20005300:	2e01      	cmp	r6, #1
20005302:	d1af      	bne.n	20005264 <SDConnect+0x58>
20005304:	28aa      	cmp	r0, #170	@ 0xaa
20005306:	d1ad      	bne.n	20005264 <SDConnect+0x58>
20005308:	2303      	movs	r3, #3
2000530a:	7023      	strb	r3, [r4, #0]
2000530c:	261e      	movs	r6, #30
2000530e:	7823      	ldrb	r3, [r4, #0]
20005310:	2b03      	cmp	r3, #3
20005312:	d1b2      	bne.n	2000527a <SDConnect+0x6e>
20005314:	f04f 4180 	mov.w	r1, #1073741824	@ 0x40000000
20005318:	20a9      	movs	r0, #169	@ 0xa9
2000531a:	f7ff ff3a 	bl	20005192 <SDSendCmd>
2000531e:	f010 0101 	ands.w	r1, r0, #1
20005322:	d0b0      	beq.n	20005286 <SDConnect+0x7a>
20005324:	200a      	movs	r0, #10
20005326:	3e01      	subs	r6, #1
20005328:	f7fc fcdc 	bl	20001ce4 <WaitMs>
2000532c:	f016 06ff 	ands.w	r6, r6, #255	@ 0xff
20005330:	d1ed      	bne.n	2000530e <SDConnect+0x102>
20005332:	7026      	strb	r6, [r4, #0]
20005334:	e791      	b.n	2000525a <SDConnect+0x4e>
20005336:	bf00      	nop
20005338:	20032531 	.word	0x20032531
2000533c:	0003d090 	.word	0x0003d090
20005340:	40088000 	.word	0x40088000
20005344:	000f4240 	.word	0x000f4240

20005348 <SDReadBlock>:
20005348:	b570      	push	{r4, r5, r6, lr}
2000534a:	4606      	mov	r6, r0
2000534c:	460d      	mov	r5, r1
2000534e:	f64e 2460 	movw	r4, #60000	@ 0xea60
20005352:	20ff      	movs	r0, #255	@ 0xff
20005354:	f7ff ff00 	bl	20005158 <SDByte>
20005358:	28ff      	cmp	r0, #255	@ 0xff
2000535a:	d103      	bne.n	20005364 <SDReadBlock+0x1c>
2000535c:	3c01      	subs	r4, #1
2000535e:	d1f8      	bne.n	20005352 <SDReadBlock+0xa>
20005360:	2000      	movs	r0, #0
20005362:	e00c      	b.n	2000537e <SDReadBlock+0x36>
20005364:	28fe      	cmp	r0, #254	@ 0xfe
20005366:	d1fb      	bne.n	20005360 <SDReadBlock+0x18>
20005368:	2400      	movs	r4, #0
2000536a:	42a5      	cmp	r5, r4
2000536c:	f04f 00ff 	mov.w	r0, #255	@ 0xff
20005370:	dc06      	bgt.n	20005380 <SDReadBlock+0x38>
20005372:	f7ff fef1 	bl	20005158 <SDByte>
20005376:	20ff      	movs	r0, #255	@ 0xff
20005378:	f7ff feee 	bl	20005158 <SDByte>
2000537c:	2001      	movs	r0, #1
2000537e:	bd70      	pop	{r4, r5, r6, pc}
20005380:	f7ff feea 	bl	20005158 <SDByte>
20005384:	5530      	strb	r0, [r6, r4]
20005386:	3401      	adds	r4, #1
20005388:	e7ef      	b.n	2000536a <SDReadBlock+0x22>
	...

2000538c <SDOpen>:
2000538c:	b508      	push	{r3, lr}
2000538e:	490a      	ldr	r1, [pc, #40]	@ (200053b8 <SDOpen+0x2c>)
20005390:	480a      	ldr	r0, [pc, #40]	@ (200053bc <SDOpen+0x30>)
20005392:	f7fc fb61 	bl	20001a58 <SPI_Baudrate_hw>
20005396:	230d      	movs	r3, #13
20005398:	eee0 3010 			@ <UNDEFINED> instruction: 0xeee03010
2000539c:	20ff      	movs	r0, #255	@ 0xff
2000539e:	f7ff fedb 	bl	20005158 <SDByte>
200053a2:	20ff      	movs	r0, #255	@ 0xff
200053a4:	f7ff fed8 	bl	20005158 <SDByte>
200053a8:	20ff      	movs	r0, #255	@ 0xff
200053aa:	f7ff fed5 	bl	20005158 <SDByte>
200053ae:	e8bd 4008 	ldmia.w	sp!, {r3, lr}
200053b2:	20ff      	movs	r0, #255	@ 0xff
200053b4:	f7ff bed0 	b.w	20005158 <SDByte>
200053b8:	000f4240 	.word	0x000f4240
200053bc:	40088000 	.word	0x40088000

200053c0 <SDClose>:
200053c0:	b508      	push	{r3, lr}
200053c2:	f7ff fed7 	bl	20005174 <SDUnsel>
200053c6:	20ff      	movs	r0, #255	@ 0xff
200053c8:	f7ff fec6 	bl	20005158 <SDByte>
200053cc:	20ff      	movs	r0, #255	@ 0xff
200053ce:	f7ff fec3 	bl	20005158 <SDByte>
200053d2:	20ff      	movs	r0, #255	@ 0xff
200053d4:	f7ff fec0 	bl	20005158 <SDByte>
200053d8:	e8bd 4008 	ldmia.w	sp!, {r3, lr}
200053dc:	20ff      	movs	r0, #255	@ 0xff
200053de:	f7ff bebb 	b.w	20005158 <SDByte>
	...

200053e4 <SDReadSect>:
200053e4:	b570      	push	{r4, r5, r6, lr}
200053e6:	4e11      	ldr	r6, [pc, #68]	@ (2000542c <SDReadSect+0x48>)
200053e8:	4604      	mov	r4, r0
200053ea:	7833      	ldrb	r3, [r6, #0]
200053ec:	460d      	mov	r5, r1
200053ee:	b183      	cbz	r3, 20005412 <SDReadSect+0x2e>
200053f0:	f7ff ffcc 	bl	2000538c <SDOpen>
200053f4:	490e      	ldr	r1, [pc, #56]	@ (20005430 <SDReadSect+0x4c>)
200053f6:	480f      	ldr	r0, [pc, #60]	@ (20005434 <SDReadSect+0x50>)
200053f8:	f7fc fb2e 	bl	20001a58 <SPI_Baudrate_hw>
200053fc:	7833      	ldrb	r3, [r6, #0]
200053fe:	2011      	movs	r0, #17
20005400:	2b04      	cmp	r3, #4
20005402:	bf18      	it	ne
20005404:	0264      	lslne	r4, r4, #9
20005406:	4621      	mov	r1, r4
20005408:	f7ff fec3 	bl	20005192 <SDSendCmd>
2000540c:	b120      	cbz	r0, 20005418 <SDReadSect+0x34>
2000540e:	f7ff feb1 	bl	20005174 <SDUnsel>
20005412:	2400      	movs	r4, #0
20005414:	4620      	mov	r0, r4
20005416:	bd70      	pop	{r4, r5, r6, pc}
20005418:	f44f 7100 	mov.w	r1, #512	@ 0x200
2000541c:	4628      	mov	r0, r5
2000541e:	f7ff ff93 	bl	20005348 <SDReadBlock>
20005422:	4604      	mov	r4, r0
20005424:	f7ff ffcc 	bl	200053c0 <SDClose>
20005428:	e7f4      	b.n	20005414 <SDReadSect+0x30>
2000542a:	bf00      	nop
2000542c:	20032531 	.word	0x20032531
20005430:	003d0900 	.word	0x003d0900
20005434:	40088000 	.word	0x40088000

20005438 <SDWriteSect>:
20005438:	b570      	push	{r4, r5, r6, lr}
2000543a:	4e22      	ldr	r6, [pc, #136]	@ (200054c4 <SDWriteSect+0x8c>)
2000543c:	4605      	mov	r5, r0
2000543e:	7833      	ldrb	r3, [r6, #0]
20005440:	460c      	mov	r4, r1
20005442:	b183      	cbz	r3, 20005466 <SDWriteSect+0x2e>
20005444:	f7ff ffa2 	bl	2000538c <SDOpen>
20005448:	491f      	ldr	r1, [pc, #124]	@ (200054c8 <SDWriteSect+0x90>)
2000544a:	4820      	ldr	r0, [pc, #128]	@ (200054cc <SDWriteSect+0x94>)
2000544c:	f7fc fb04 	bl	20001a58 <SPI_Baudrate_hw>
20005450:	7833      	ldrb	r3, [r6, #0]
20005452:	2018      	movs	r0, #24
20005454:	2b04      	cmp	r3, #4
20005456:	bf18      	it	ne
20005458:	026d      	lslne	r5, r5, #9
2000545a:	4629      	mov	r1, r5
2000545c:	f7ff fe99 	bl	20005192 <SDSendCmd>
20005460:	b118      	cbz	r0, 2000546a <SDWriteSect+0x32>
20005462:	f7ff fe87 	bl	20005174 <SDUnsel>
20005466:	2000      	movs	r0, #0
20005468:	bd70      	pop	{r4, r5, r6, pc}
2000546a:	f64e 2560 	movw	r5, #60000	@ 0xea60
2000546e:	20ff      	movs	r0, #255	@ 0xff
20005470:	f7ff fe72 	bl	20005158 <SDByte>
20005474:	28ff      	cmp	r0, #255	@ 0xff
20005476:	d002      	beq.n	2000547e <SDWriteSect+0x46>
20005478:	3d01      	subs	r5, #1
2000547a:	d1f8      	bne.n	2000546e <SDWriteSect+0x36>
2000547c:	e7f1      	b.n	20005462 <SDWriteSect+0x2a>
2000547e:	20fe      	movs	r0, #254	@ 0xfe
20005480:	f7ff fe6a 	bl	20005158 <SDByte>
20005484:	1e65      	subs	r5, r4, #1
20005486:	f204 14ff 	addw	r4, r4, #511	@ 0x1ff
2000548a:	f815 0f01 	ldrb.w	r0, [r5, #1]!
2000548e:	f7ff fe63 	bl	20005158 <SDByte>
20005492:	42a5      	cmp	r5, r4
20005494:	d1f9      	bne.n	2000548a <SDWriteSect+0x52>
20005496:	20ff      	movs	r0, #255	@ 0xff
20005498:	f7ff fe5e 	bl	20005158 <SDByte>
2000549c:	20ff      	movs	r0, #255	@ 0xff
2000549e:	f7ff fe5b 	bl	20005158 <SDByte>
200054a2:	f64e 2460 	movw	r4, #60000	@ 0xea60
200054a6:	20ff      	movs	r0, #255	@ 0xff
200054a8:	f7ff fe56 	bl	20005158 <SDByte>
200054ac:	28ff      	cmp	r0, #255	@ 0xff
200054ae:	d001      	beq.n	200054b4 <SDWriteSect+0x7c>
200054b0:	3c01      	subs	r4, #1
200054b2:	d1f8      	bne.n	200054a6 <SDWriteSect+0x6e>
200054b4:	20ff      	movs	r0, #255	@ 0xff
200054b6:	f7ff fe4f 	bl	20005158 <SDByte>
200054ba:	f7ff ff81 	bl	200053c0 <SDClose>
200054be:	2001      	movs	r0, #1
200054c0:	e7d2      	b.n	20005468 <SDWriteSect+0x30>
200054c2:	bf00      	nop
200054c4:	20032531 	.word	0x20032531
200054c8:	000f4240 	.word	0x000f4240
200054cc:	40088000 	.word	0x40088000

200054d0 <Disk_FlushBuf>:
200054d0:	b510      	push	{r4, lr}
200054d2:	4b11      	ldr	r3, [pc, #68]	@ (20005518 <Disk_FlushBuf+0x48>)
200054d4:	781a      	ldrb	r2, [r3, #0]
200054d6:	b90a      	cbnz	r2, 200054dc <Disk_FlushBuf+0xc>
200054d8:	2001      	movs	r0, #1
200054da:	bd10      	pop	{r4, pc}
200054dc:	2200      	movs	r2, #0
200054de:	4c0f      	ldr	r4, [pc, #60]	@ (2000551c <Disk_FlushBuf+0x4c>)
200054e0:	490f      	ldr	r1, [pc, #60]	@ (20005520 <Disk_FlushBuf+0x50>)
200054e2:	6820      	ldr	r0, [r4, #0]
200054e4:	701a      	strb	r2, [r3, #0]
200054e6:	f7ff ffa7 	bl	20005438 <SDWriteSect>
200054ea:	2800      	cmp	r0, #0
200054ec:	d0f5      	beq.n	200054da <Disk_FlushBuf+0xa>
200054ee:	4b0d      	ldr	r3, [pc, #52]	@ (20005524 <Disk_FlushBuf+0x54>)
200054f0:	781b      	ldrb	r3, [r3, #0]
200054f2:	2b00      	cmp	r3, #0
200054f4:	d0f0      	beq.n	200054d8 <Disk_FlushBuf+0x8>
200054f6:	4b0c      	ldr	r3, [pc, #48]	@ (20005528 <Disk_FlushBuf+0x58>)
200054f8:	6820      	ldr	r0, [r4, #0]
200054fa:	681a      	ldr	r2, [r3, #0]
200054fc:	4b0b      	ldr	r3, [pc, #44]	@ (2000552c <Disk_FlushBuf+0x5c>)
200054fe:	681b      	ldr	r3, [r3, #0]
20005500:	1ac3      	subs	r3, r0, r3
20005502:	4293      	cmp	r3, r2
20005504:	d2e8      	bcs.n	200054d8 <Disk_FlushBuf+0x8>
20005506:	4b0a      	ldr	r3, [pc, #40]	@ (20005530 <Disk_FlushBuf+0x60>)
20005508:	781b      	ldrb	r3, [r3, #0]
2000550a:	2b02      	cmp	r3, #2
2000550c:	d1e4      	bne.n	200054d8 <Disk_FlushBuf+0x8>
2000550e:	4904      	ldr	r1, [pc, #16]	@ (20005520 <Disk_FlushBuf+0x50>)
20005510:	4410      	add	r0, r2
20005512:	f7ff ff91 	bl	20005438 <SDWriteSect>
20005516:	e7df      	b.n	200054d8 <Disk_FlushBuf+0x8>
20005518:	200323fb 	.word	0x200323fb
2000551c:	2000aac0 	.word	0x2000aac0
20005520:	2000abc4 	.word	0x2000abc4
20005524:	200323fc 	.word	0x200323fc
20005528:	2000adec 	.word	0x2000adec
2000552c:	2000ade4 	.word	0x2000ade4
20005530:	200323fd 	.word	0x200323fd

20005534 <Disk_MoveBuf>:
20005534:	b538      	push	{r3, r4, r5, lr}
20005536:	4d0b      	ldr	r5, [pc, #44]	@ (20005564 <Disk_MoveBuf+0x30>)
20005538:	4604      	mov	r4, r0
2000553a:	682b      	ldr	r3, [r5, #0]
2000553c:	4283      	cmp	r3, r0
2000553e:	d101      	bne.n	20005544 <Disk_MoveBuf+0x10>
20005540:	2001      	movs	r0, #1
20005542:	bd38      	pop	{r3, r4, r5, pc}
20005544:	f7ff ffc4 	bl	200054d0 <Disk_FlushBuf>
20005548:	b138      	cbz	r0, 2000555a <Disk_MoveBuf+0x26>
2000554a:	4620      	mov	r0, r4
2000554c:	4906      	ldr	r1, [pc, #24]	@ (20005568 <Disk_MoveBuf+0x34>)
2000554e:	f7ff ff49 	bl	200053e4 <SDReadSect>
20005552:	b920      	cbnz	r0, 2000555e <Disk_MoveBuf+0x2a>
20005554:	f04f 33ff 	mov.w	r3, #4294967295
20005558:	602b      	str	r3, [r5, #0]
2000555a:	2000      	movs	r0, #0
2000555c:	e7f1      	b.n	20005542 <Disk_MoveBuf+0xe>
2000555e:	602c      	str	r4, [r5, #0]
20005560:	e7ee      	b.n	20005540 <Disk_MoveBuf+0xc>
20005562:	bf00      	nop
20005564:	2000aac0 	.word	0x2000aac0
20005568:	2000abc4 	.word	0x2000abc4

2000556c <Disk_ReadFat>:
2000556c:	e92d 41f0 	stmdb	sp!, {r4, r5, r6, r7, r8, lr}
20005570:	4604      	mov	r4, r0
20005572:	f7ff f9b7 	bl	200048e4 <Disk_ClustValid>
20005576:	b138      	cbz	r0, 20005588 <Disk_ReadFat+0x1c>
20005578:	4b27      	ldr	r3, [pc, #156]	@ (20005618 <Disk_ReadFat+0xac>)
2000557a:	781b      	ldrb	r3, [r3, #0]
2000557c:	2b02      	cmp	r3, #2
2000557e:	d02b      	beq.n	200055d8 <Disk_ReadFat+0x6c>
20005580:	2b03      	cmp	r3, #3
20005582:	d038      	beq.n	200055f6 <Disk_ReadFat+0x8a>
20005584:	2b01      	cmp	r3, #1
20005586:	d003      	beq.n	20005590 <Disk_ReadFat+0x24>
20005588:	f04f 30ff 	mov.w	r0, #4294967295
2000558c:	e8bd 81f0 	ldmia.w	sp!, {r4, r5, r6, r7, r8, pc}
20005590:	f8df 808c 	ldr.w	r8, [pc, #140]	@ 20005620 <Disk_ReadFat+0xb4>
20005594:	eb04 0654 	add.w	r6, r4, r4, lsr #1
20005598:	f8d8 0000 	ldr.w	r0, [r8]
2000559c:	eb00 2056 	add.w	r0, r0, r6, lsr #9
200055a0:	f7ff ffc8 	bl	20005534 <Disk_MoveBuf>
200055a4:	2800      	cmp	r0, #0
200055a6:	d0ef      	beq.n	20005588 <Disk_ReadFat+0x1c>
200055a8:	f8d8 0000 	ldr.w	r0, [r8]
200055ac:	f3c6 0308 	ubfx	r3, r6, #0, #9
200055b0:	4f1a      	ldr	r7, [pc, #104]	@ (2000561c <Disk_ReadFat+0xb0>)
200055b2:	3601      	adds	r6, #1
200055b4:	eb00 2056 	add.w	r0, r0, r6, lsr #9
200055b8:	5cfd      	ldrb	r5, [r7, r3]
200055ba:	f7ff ffbb 	bl	20005534 <Disk_MoveBuf>
200055be:	2800      	cmp	r0, #0
200055c0:	d0e2      	beq.n	20005588 <Disk_ReadFat+0x1c>
200055c2:	f3c6 0608 	ubfx	r6, r6, #0, #9
200055c6:	5dbb      	ldrb	r3, [r7, r6]
200055c8:	ea45 2003 	orr.w	r0, r5, r3, lsl #8
200055cc:	07e3      	lsls	r3, r4, #31
200055ce:	bf4c      	ite	mi
200055d0:	0900      	lsrmi	r0, r0, #4
200055d2:	f3c0 000b 	ubfxpl	r0, r0, #0, #12
200055d6:	e7d9      	b.n	2000558c <Disk_ReadFat+0x20>
200055d8:	4b11      	ldr	r3, [pc, #68]	@ (20005620 <Disk_ReadFat+0xb4>)
200055da:	f3c4 2016 	ubfx	r0, r4, #8, #23
200055de:	681b      	ldr	r3, [r3, #0]
200055e0:	0065      	lsls	r5, r4, #1
200055e2:	4418      	add	r0, r3
200055e4:	f7ff ffa6 	bl	20005534 <Disk_MoveBuf>
200055e8:	2800      	cmp	r0, #0
200055ea:	d0cd      	beq.n	20005588 <Disk_ReadFat+0x1c>
200055ec:	4b0b      	ldr	r3, [pc, #44]	@ (2000561c <Disk_ReadFat+0xb0>)
200055ee:	f3c5 0508 	ubfx	r5, r5, #0, #9
200055f2:	5b58      	ldrh	r0, [r3, r5]
200055f4:	e7ca      	b.n	2000558c <Disk_ReadFat+0x20>
200055f6:	4b0a      	ldr	r3, [pc, #40]	@ (20005620 <Disk_ReadFat+0xb4>)
200055f8:	00a5      	lsls	r5, r4, #2
200055fa:	6818      	ldr	r0, [r3, #0]
200055fc:	f3c4 14d6 	ubfx	r4, r4, #7, #23
20005600:	4420      	add	r0, r4
20005602:	f7ff ff97 	bl	20005534 <Disk_MoveBuf>
20005606:	2800      	cmp	r0, #0
20005608:	d0be      	beq.n	20005588 <Disk_ReadFat+0x1c>
2000560a:	4b04      	ldr	r3, [pc, #16]	@ (2000561c <Disk_ReadFat+0xb0>)
2000560c:	f3c5 0508 	ubfx	r5, r5, #0, #9
20005610:	5958      	ldr	r0, [r3, r5]
20005612:	f020 4070 	bic.w	r0, r0, #4026531840	@ 0xf0000000
20005616:	e7b9      	b.n	2000558c <Disk_ReadFat+0x20>
20005618:	200323fc 	.word	0x200323fc
2000561c:	2000abc4 	.word	0x2000abc4
20005620:	2000ade4 	.word	0x2000ade4

20005624 <Disk_DirInx>:
20005624:	b5f8      	push	{r3, r4, r5, r6, r7, lr}
20005626:	2300      	movs	r3, #0
20005628:	6283      	str	r3, [r0, #40]	@ 0x28
2000562a:	06cb      	lsls	r3, r1, #27
2000562c:	4605      	mov	r5, r0
2000562e:	460c      	mov	r4, r1
20005630:	d001      	beq.n	20005636 <Disk_DirInx+0x12>
20005632:	2000      	movs	r0, #0
20005634:	bdf8      	pop	{r3, r4, r5, r6, r7, pc}
20005636:	69c6      	ldr	r6, [r0, #28]
20005638:	6201      	str	r1, [r0, #32]
2000563a:	b14e      	cbz	r6, 20005650 <Disk_DirInx+0x2c>
2000563c:	4f18      	ldr	r7, [pc, #96]	@ (200056a0 <Disk_DirInx+0x7c>)
2000563e:	683b      	ldr	r3, [r7, #0]
20005640:	4630      	mov	r0, r6
20005642:	42a3      	cmp	r3, r4
20005644:	d921      	bls.n	2000568a <Disk_DirInx+0x66>
20005646:	f7ff f971 	bl	2000492c <Disk_ClustSect>
2000564a:	e010      	b.n	2000566e <Disk_DirInx+0x4a>
2000564c:	461e      	mov	r6, r3
2000564e:	e7f5      	b.n	2000563c <Disk_DirInx+0x18>
20005650:	4b14      	ldr	r3, [pc, #80]	@ (200056a4 <Disk_DirInx+0x80>)
20005652:	781b      	ldrb	r3, [r3, #0]
20005654:	2b03      	cmp	r3, #3
20005656:	d103      	bne.n	20005660 <Disk_DirInx+0x3c>
20005658:	4b13      	ldr	r3, [pc, #76]	@ (200056a8 <Disk_DirInx+0x84>)
2000565a:	681b      	ldr	r3, [r3, #0]
2000565c:	2b00      	cmp	r3, #0
2000565e:	d1f5      	bne.n	2000564c <Disk_DirInx+0x28>
20005660:	4b12      	ldr	r3, [pc, #72]	@ (200056ac <Disk_DirInx+0x88>)
20005662:	881b      	ldrh	r3, [r3, #0]
20005664:	ebb4 1f43 	cmp.w	r4, r3, lsl #5
20005668:	d2e3      	bcs.n	20005632 <Disk_DirInx+0xe>
2000566a:	4b0f      	ldr	r3, [pc, #60]	@ (200056a8 <Disk_DirInx+0x84>)
2000566c:	6818      	ldr	r0, [r3, #0]
2000566e:	62a8      	str	r0, [r5, #40]	@ 0x28
20005670:	2800      	cmp	r0, #0
20005672:	d0de      	beq.n	20005632 <Disk_DirInx+0xe>
20005674:	4b0e      	ldr	r3, [pc, #56]	@ (200056b0 <Disk_DirInx+0x8c>)
20005676:	eb00 2054 	add.w	r0, r0, r4, lsr #9
2000567a:	f3c4 0408 	ubfx	r4, r4, #0, #9
2000567e:	441c      	add	r4, r3
20005680:	62a8      	str	r0, [r5, #40]	@ 0x28
20005682:	626e      	str	r6, [r5, #36]	@ 0x24
20005684:	2001      	movs	r0, #1
20005686:	60ec      	str	r4, [r5, #12]
20005688:	e7d4      	b.n	20005634 <Disk_DirInx+0x10>
2000568a:	f7ff ff6f 	bl	2000556c <Disk_ReadFat>
2000568e:	4606      	mov	r6, r0
20005690:	f7ff f928 	bl	200048e4 <Disk_ClustValid>
20005694:	2800      	cmp	r0, #0
20005696:	d0cc      	beq.n	20005632 <Disk_DirInx+0xe>
20005698:	683b      	ldr	r3, [r7, #0]
2000569a:	1ae4      	subs	r4, r4, r3
2000569c:	e7cf      	b.n	2000563e <Disk_DirInx+0x1a>
2000569e:	bf00      	nop
200056a0:	2000ab18 	.word	0x2000ab18
200056a4:	200323fc 	.word	0x200323fc
200056a8:	2000ab90 	.word	0x2000ab90
200056ac:	2003229c 	.word	0x2003229c
200056b0:	2000abc4 	.word	0x2000abc4

200056b4 <FileSeek>:
200056b4:	b570      	push	{r4, r5, r6, lr}
200056b6:	460c      	mov	r4, r1
200056b8:	4605      	mov	r5, r0
200056ba:	b908      	cbnz	r0, 200056c0 <FileSeek+0xc>
200056bc:	2000      	movs	r0, #0
200056be:	bd70      	pop	{r4, r5, r6, pc}
200056c0:	7803      	ldrb	r3, [r0, #0]
200056c2:	2b00      	cmp	r3, #0
200056c4:	d0fa      	beq.n	200056bc <FileSeek+0x8>
200056c6:	6983      	ldr	r3, [r0, #24]
200056c8:	4299      	cmp	r1, r3
200056ca:	bf28      	it	cs
200056cc:	461c      	movcs	r4, r3
200056ce:	6a03      	ldr	r3, [r0, #32]
200056d0:	42a3      	cmp	r3, r4
200056d2:	d010      	beq.n	200056f6 <FileSeek+0x42>
200056d4:	2300      	movs	r3, #0
200056d6:	6204      	str	r4, [r0, #32]
200056d8:	6283      	str	r3, [r0, #40]	@ 0x28
200056da:	b164      	cbz	r4, 200056f6 <FileSeek+0x42>
200056dc:	69c2      	ldr	r2, [r0, #28]
200056de:	4e0c      	ldr	r6, [pc, #48]	@ (20005710 <FileSeek+0x5c>)
200056e0:	3c01      	subs	r4, #1
200056e2:	6833      	ldr	r3, [r6, #0]
200056e4:	42a3      	cmp	r3, r4
200056e6:	d908      	bls.n	200056fa <FileSeek+0x46>
200056e8:	4610      	mov	r0, r2
200056ea:	626a      	str	r2, [r5, #36]	@ 0x24
200056ec:	f7ff f91e 	bl	2000492c <Disk_ClustSect>
200056f0:	eb00 2054 	add.w	r0, r0, r4, lsr #9
200056f4:	62a8      	str	r0, [r5, #40]	@ 0x28
200056f6:	2001      	movs	r0, #1
200056f8:	e7e1      	b.n	200056be <FileSeek+0xa>
200056fa:	4610      	mov	r0, r2
200056fc:	f7ff ff36 	bl	2000556c <Disk_ReadFat>
20005700:	4602      	mov	r2, r0
20005702:	f7ff f8ef 	bl	200048e4 <Disk_ClustValid>
20005706:	2800      	cmp	r0, #0
20005708:	d0d8      	beq.n	200056bc <FileSeek+0x8>
2000570a:	6833      	ldr	r3, [r6, #0]
2000570c:	1ae4      	subs	r4, r4, r3
2000570e:	e7e8      	b.n	200056e2 <FileSeek+0x2e>
20005710:	2000ab18 	.word	0x2000ab18

20005714 <Disk_WriteFat>:
20005714:	e92d 43f8 	stmdb	sp!, {r3, r4, r5, r6, r7, r8, r9, lr}
20005718:	4604      	mov	r4, r0
2000571a:	f7ff f8e3 	bl	200048e4 <Disk_ClustValid>
2000571e:	460d      	mov	r5, r1
20005720:	4607      	mov	r7, r0
20005722:	b138      	cbz	r0, 20005734 <Disk_WriteFat+0x20>
20005724:	4b36      	ldr	r3, [pc, #216]	@ (20005800 <Disk_WriteFat+0xec>)
20005726:	781b      	ldrb	r3, [r3, #0]
20005728:	2b02      	cmp	r3, #2
2000572a:	d046      	beq.n	200057ba <Disk_WriteFat+0xa6>
2000572c:	2b03      	cmp	r3, #3
2000572e:	d054      	beq.n	200057da <Disk_WriteFat+0xc6>
20005730:	2b01      	cmp	r3, #1
20005732:	d003      	beq.n	2000573c <Disk_WriteFat+0x28>
20005734:	2700      	movs	r7, #0
20005736:	4638      	mov	r0, r7
20005738:	e8bd 83f8 	ldmia.w	sp!, {r3, r4, r5, r6, r7, r8, r9, pc}
2000573c:	f8df 90c8 	ldr.w	r9, [pc, #200]	@ 20005808 <Disk_WriteFat+0xf4>
20005740:	eb04 0654 	add.w	r6, r4, r4, lsr #1
20005744:	f8d9 0000 	ldr.w	r0, [r9]
20005748:	eb00 2056 	add.w	r0, r0, r6, lsr #9
2000574c:	f7ff fef2 	bl	20005534 <Disk_MoveBuf>
20005750:	2800      	cmp	r0, #0
20005752:	d0ef      	beq.n	20005734 <Disk_WriteFat+0x20>
20005754:	f8df 80b4 	ldr.w	r8, [pc, #180]	@ 2000580c <Disk_WriteFat+0xf8>
20005758:	f014 0401 	ands.w	r4, r4, #1
2000575c:	f3c6 0108 	ubfx	r1, r6, #0, #9
20005760:	bf18      	it	ne
20005762:	f818 2001 	ldrbne.w	r2, [r8, r1]
20005766:	b2eb      	uxtb	r3, r5
20005768:	bf1c      	itt	ne
2000576a:	f002 020f 	andne.w	r2, r2, #15
2000576e:	ea42 1303 	orrne.w	r3, r2, r3, lsl #4
20005772:	f04f 0201 	mov.w	r2, #1
20005776:	bf18      	it	ne
20005778:	b2db      	uxtbne	r3, r3
2000577a:	f8d9 0000 	ldr.w	r0, [r9]
2000577e:	f808 3001 	strb.w	r3, [r8, r1]
20005782:	4416      	add	r6, r2
20005784:	4b1f      	ldr	r3, [pc, #124]	@ (20005804 <Disk_WriteFat+0xf0>)
20005786:	eb00 2056 	add.w	r0, r0, r6, lsr #9
2000578a:	701a      	strb	r2, [r3, #0]
2000578c:	f7ff fed2 	bl	20005534 <Disk_MoveBuf>
20005790:	2800      	cmp	r0, #0
20005792:	d0cf      	beq.n	20005734 <Disk_WriteFat+0x20>
20005794:	4b1b      	ldr	r3, [pc, #108]	@ (20005804 <Disk_WriteFat+0xf0>)
20005796:	f3c6 0608 	ubfx	r6, r6, #0, #9
2000579a:	b134      	cbz	r4, 200057aa <Disk_WriteFat+0x96>
2000579c:	f3c5 1507 	ubfx	r5, r5, #4, #8
200057a0:	f808 5006 	strb.w	r5, [r8, r6]
200057a4:	2201      	movs	r2, #1
200057a6:	701a      	strb	r2, [r3, #0]
200057a8:	e7c5      	b.n	20005736 <Disk_WriteFat+0x22>
200057aa:	f818 2006 	ldrb.w	r2, [r8, r6]
200057ae:	f3c5 2503 	ubfx	r5, r5, #8, #4
200057b2:	f022 020f 	bic.w	r2, r2, #15
200057b6:	4315      	orrs	r5, r2
200057b8:	e7f2      	b.n	200057a0 <Disk_WriteFat+0x8c>
200057ba:	4b13      	ldr	r3, [pc, #76]	@ (20005808 <Disk_WriteFat+0xf4>)
200057bc:	f3c4 2016 	ubfx	r0, r4, #8, #23
200057c0:	681b      	ldr	r3, [r3, #0]
200057c2:	0066      	lsls	r6, r4, #1
200057c4:	4418      	add	r0, r3
200057c6:	f7ff feb5 	bl	20005534 <Disk_MoveBuf>
200057ca:	2800      	cmp	r0, #0
200057cc:	d0b2      	beq.n	20005734 <Disk_WriteFat+0x20>
200057ce:	4b0f      	ldr	r3, [pc, #60]	@ (2000580c <Disk_WriteFat+0xf8>)
200057d0:	f3c6 0608 	ubfx	r6, r6, #0, #9
200057d4:	539d      	strh	r5, [r3, r6]
200057d6:	4b0b      	ldr	r3, [pc, #44]	@ (20005804 <Disk_WriteFat+0xf0>)
200057d8:	e7e4      	b.n	200057a4 <Disk_WriteFat+0x90>
200057da:	4b0b      	ldr	r3, [pc, #44]	@ (20005808 <Disk_WriteFat+0xf4>)
200057dc:	00a6      	lsls	r6, r4, #2
200057de:	6818      	ldr	r0, [r3, #0]
200057e0:	f3c4 14d6 	ubfx	r4, r4, #7, #23
200057e4:	4420      	add	r0, r4
200057e6:	f7ff fea5 	bl	20005534 <Disk_MoveBuf>
200057ea:	2800      	cmp	r0, #0
200057ec:	d0a2      	beq.n	20005734 <Disk_WriteFat+0x20>
200057ee:	4907      	ldr	r1, [pc, #28]	@ (2000580c <Disk_WriteFat+0xf8>)
200057f0:	f3c6 0308 	ubfx	r3, r6, #0, #9
200057f4:	58ca      	ldr	r2, [r1, r3]
200057f6:	f365 021b 	bfi	r2, r5, #0, #28
200057fa:	50ca      	str	r2, [r1, r3]
200057fc:	e7eb      	b.n	200057d6 <Disk_WriteFat+0xc2>
200057fe:	bf00      	nop
20005800:	200323fc 	.word	0x200323fc
20005804:	200323fb 	.word	0x200323fb
20005808:	2000ade4 	.word	0x2000ade4
2000580c:	2000abc4 	.word	0x2000abc4

20005810 <Disk_CreateFat>:
20005810:	e92d 43f8 	stmdb	sp!, {r3, r4, r5, r6, r7, r8, r9, lr}
20005814:	4606      	mov	r6, r0
20005816:	b970      	cbnz	r0, 20005836 <Disk_CreateFat+0x26>
20005818:	4b37      	ldr	r3, [pc, #220]	@ (200058f8 <Disk_CreateFat+0xe8>)
2000581a:	681d      	ldr	r5, [r3, #0]
2000581c:	b1e5      	cbz	r5, 20005858 <Disk_CreateFat+0x48>
2000581e:	4b37      	ldr	r3, [pc, #220]	@ (200058fc <Disk_CreateFat+0xec>)
20005820:	681b      	ldr	r3, [r3, #0]
20005822:	42ab      	cmp	r3, r5
20005824:	bf98      	it	ls
20005826:	2501      	movls	r5, #1
20005828:	f8df 80dc 	ldr.w	r8, [pc, #220]	@ 20005908 <Disk_CreateFat+0xf8>
2000582c:	f8d8 3000 	ldr.w	r3, [r8]
20005830:	b9a3      	cbnz	r3, 2000585c <Disk_CreateFat+0x4c>
20005832:	2400      	movs	r4, #0
20005834:	e007      	b.n	20005846 <Disk_CreateFat+0x36>
20005836:	f7ff fe99 	bl	2000556c <Disk_ReadFat>
2000583a:	1e83      	subs	r3, r0, #2
2000583c:	3304      	adds	r3, #4
2000583e:	4604      	mov	r4, r0
20005840:	d904      	bls.n	2000584c <Disk_CreateFat+0x3c>
20005842:	f04f 34ff 	mov.w	r4, #4294967295
20005846:	4620      	mov	r0, r4
20005848:	e8bd 83f8 	ldmia.w	sp!, {r3, r4, r5, r6, r7, r8, r9, pc}
2000584c:	4b2b      	ldr	r3, [pc, #172]	@ (200058fc <Disk_CreateFat+0xec>)
2000584e:	681b      	ldr	r3, [r3, #0]
20005850:	4283      	cmp	r3, r0
20005852:	d8f8      	bhi.n	20005846 <Disk_CreateFat+0x36>
20005854:	4635      	mov	r5, r6
20005856:	e7e7      	b.n	20005828 <Disk_CreateFat+0x18>
20005858:	2501      	movs	r5, #1
2000585a:	e7e5      	b.n	20005828 <Disk_CreateFat+0x18>
2000585c:	42b5      	cmp	r5, r6
2000585e:	f8df 909c 	ldr.w	r9, [pc, #156]	@ 200058fc <Disk_CreateFat+0xec>
20005862:	d111      	bne.n	20005888 <Disk_CreateFat+0x78>
20005864:	f8d9 3000 	ldr.w	r3, [r9]
20005868:	1c6c      	adds	r4, r5, #1
2000586a:	42a3      	cmp	r3, r4
2000586c:	bf98      	it	ls
2000586e:	2402      	movls	r4, #2
20005870:	4620      	mov	r0, r4
20005872:	f7ff fe7b 	bl	2000556c <Disk_ReadFat>
20005876:	1c43      	adds	r3, r0, #1
20005878:	d0e3      	beq.n	20005842 <Disk_CreateFat+0x32>
2000587a:	b1c0      	cbz	r0, 200058ae <Disk_CreateFat+0x9e>
2000587c:	4b1e      	ldr	r3, [pc, #120]	@ (200058f8 <Disk_CreateFat+0xe8>)
2000587e:	681f      	ldr	r7, [r3, #0]
20005880:	4638      	mov	r0, r7
20005882:	f7ff f82f 	bl	200048e4 <Disk_ClustValid>
20005886:	b900      	cbnz	r0, 2000588a <Disk_CreateFat+0x7a>
20005888:	462f      	mov	r7, r5
2000588a:	463c      	mov	r4, r7
2000588c:	f8d9 3000 	ldr.w	r3, [r9]
20005890:	3401      	adds	r4, #1
20005892:	42a3      	cmp	r3, r4
20005894:	d802      	bhi.n	2000589c <Disk_CreateFat+0x8c>
20005896:	2f01      	cmp	r7, #1
20005898:	d9cb      	bls.n	20005832 <Disk_CreateFat+0x22>
2000589a:	2402      	movs	r4, #2
2000589c:	4620      	mov	r0, r4
2000589e:	f7ff fe65 	bl	2000556c <Disk_ReadFat>
200058a2:	b130      	cbz	r0, 200058b2 <Disk_CreateFat+0xa2>
200058a4:	3001      	adds	r0, #1
200058a6:	d0cc      	beq.n	20005842 <Disk_CreateFat+0x32>
200058a8:	42bc      	cmp	r4, r7
200058aa:	d1ef      	bne.n	2000588c <Disk_CreateFat+0x7c>
200058ac:	e7c1      	b.n	20005832 <Disk_CreateFat+0x22>
200058ae:	2c00      	cmp	r4, #0
200058b0:	d0ea      	beq.n	20005888 <Disk_CreateFat+0x78>
200058b2:	f04f 31ff 	mov.w	r1, #4294967295
200058b6:	4620      	mov	r0, r4
200058b8:	f7ff ff2c 	bl	20005714 <Disk_WriteFat>
200058bc:	2800      	cmp	r0, #0
200058be:	d0c0      	beq.n	20005842 <Disk_CreateFat+0x32>
200058c0:	b96e      	cbnz	r6, 200058de <Disk_CreateFat+0xce>
200058c2:	4b0d      	ldr	r3, [pc, #52]	@ (200058f8 <Disk_CreateFat+0xe8>)
200058c4:	4a0e      	ldr	r2, [pc, #56]	@ (20005900 <Disk_CreateFat+0xf0>)
200058c6:	601c      	str	r4, [r3, #0]
200058c8:	6812      	ldr	r2, [r2, #0]
200058ca:	f8d8 3000 	ldr.w	r3, [r8]
200058ce:	4293      	cmp	r3, r2
200058d0:	d90c      	bls.n	200058ec <Disk_CreateFat+0xdc>
200058d2:	4a0c      	ldr	r2, [pc, #48]	@ (20005904 <Disk_CreateFat+0xf4>)
200058d4:	7813      	ldrb	r3, [r2, #0]
200058d6:	f043 0301 	orr.w	r3, r3, #1
200058da:	7013      	strb	r3, [r2, #0]
200058dc:	e7b3      	b.n	20005846 <Disk_CreateFat+0x36>
200058de:	4621      	mov	r1, r4
200058e0:	4630      	mov	r0, r6
200058e2:	f7ff ff17 	bl	20005714 <Disk_WriteFat>
200058e6:	2800      	cmp	r0, #0
200058e8:	d1eb      	bne.n	200058c2 <Disk_CreateFat+0xb2>
200058ea:	e7aa      	b.n	20005842 <Disk_CreateFat+0x32>
200058ec:	2b00      	cmp	r3, #0
200058ee:	d0f0      	beq.n	200058d2 <Disk_CreateFat+0xc2>
200058f0:	3b01      	subs	r3, #1
200058f2:	f8c8 3000 	str.w	r3, [r8]
200058f6:	e7ec      	b.n	200058d2 <Disk_CreateFat+0xc2>
200058f8:	2000ab10 	.word	0x2000ab10
200058fc:	2000ade8 	.word	0x2000ade8
20005900:	2000ab14 	.word	0x2000ab14
20005904:	2000aabc 	.word	0x2000aabc
20005908:	2000ab0c 	.word	0x2000ab0c

2000590c <Disk_CheckFS>:
2000590c:	b5f8      	push	{r3, r4, r5, r6, r7, lr}
2000590e:	f7ff fe11 	bl	20005534 <Disk_MoveBuf>
20005912:	4605      	mov	r5, r0
20005914:	2800      	cmp	r0, #0
20005916:	d047      	beq.n	200059a8 <Disk_CheckFS+0x9c>
20005918:	f64a 2355 	movw	r3, #43605	@ 0xaa55
2000591c:	4c25      	ldr	r4, [pc, #148]	@ (200059b4 <Disk_CheckFS+0xa8>)
2000591e:	f8b4 21fe 	ldrh.w	r2, [r4, #510]	@ 0x1fe
20005922:	429a      	cmp	r2, r3
20005924:	d140      	bne.n	200059a8 <Disk_CheckFS+0x9c>
20005926:	2104      	movs	r1, #4
20005928:	f104 0036 	add.w	r0, r4, #54	@ 0x36
2000592c:	f7fe ffe8 	bl	20004900 <Disk_CompFATName>
20005930:	b928      	cbnz	r0, 2000593e <Disk_CheckFS+0x32>
20005932:	2103      	movs	r1, #3
20005934:	f104 0052 	add.w	r0, r4, #82	@ 0x52
20005938:	f7fe ffe2 	bl	20004900 <Disk_CompFATName>
2000593c:	b398      	cbz	r0, 200059a6 <Disk_CheckFS+0x9a>
2000593e:	f8b4 300b 	ldrh.w	r3, [r4, #11]
20005942:	f5b3 7f00 	cmp.w	r3, #512	@ 0x200
20005946:	d131      	bne.n	200059ac <Disk_CheckFS+0xa0>
20005948:	8ae1      	ldrh	r1, [r4, #22]
2000594a:	b909      	cbnz	r1, 20005950 <Disk_CheckFS+0x44>
2000594c:	6a61      	ldr	r1, [r4, #36]	@ 0x24
2000594e:	b369      	cbz	r1, 200059ac <Disk_CheckFS+0xa0>
20005950:	7c26      	ldrb	r6, [r4, #16]
20005952:	1e73      	subs	r3, r6, #1
20005954:	2b01      	cmp	r3, #1
20005956:	d829      	bhi.n	200059ac <Disk_CheckFS+0xa0>
20005958:	7b60      	ldrb	r0, [r4, #13]
2000595a:	b320      	cbz	r0, 200059a6 <Disk_CheckFS+0x9a>
2000595c:	1e43      	subs	r3, r0, #1
2000595e:	4003      	ands	r3, r0
20005960:	d124      	bne.n	200059ac <Disk_CheckFS+0xa0>
20005962:	f8b4 7011 	ldrh.w	r7, [r4, #17]
20005966:	073b      	lsls	r3, r7, #28
20005968:	d120      	bne.n	200059ac <Disk_CheckFS+0xa0>
2000596a:	f8b4 3013 	ldrh.w	r3, [r4, #19]
2000596e:	b903      	cbnz	r3, 20005972 <Disk_CheckFS+0x66>
20005970:	6a23      	ldr	r3, [r4, #32]
20005972:	89e2      	ldrh	r2, [r4, #14]
20005974:	b1d2      	cbz	r2, 200059ac <Disk_CheckFS+0xa0>
20005976:	eb02 1217 	add.w	r2, r2, r7, lsr #4
2000597a:	fb01 2206 	mla	r2, r1, r6, r2
2000597e:	429a      	cmp	r2, r3
20005980:	d814      	bhi.n	200059ac <Disk_CheckFS+0xa0>
20005982:	1a9b      	subs	r3, r3, r2
20005984:	4283      	cmp	r3, r0
20005986:	d311      	bcc.n	200059ac <Disk_CheckFS+0xa0>
20005988:	fbb3 f3f0 	udiv	r3, r3, r0
2000598c:	4a0a      	ldr	r2, [pc, #40]	@ (200059b8 <Disk_CheckFS+0xac>)
2000598e:	4293      	cmp	r3, r2
20005990:	d80c      	bhi.n	200059ac <Disk_CheckFS+0xa0>
20005992:	f64f 72f8 	movw	r2, #65528	@ 0xfff8
20005996:	4293      	cmp	r3, r2
20005998:	d80a      	bhi.n	200059b0 <Disk_CheckFS+0xa4>
2000599a:	f640 72f5 	movw	r2, #4085	@ 0xff5
2000599e:	4293      	cmp	r3, r2
200059a0:	bf94      	ite	ls
200059a2:	4628      	movls	r0, r5
200059a4:	2002      	movhi	r0, #2
200059a6:	bdf8      	pop	{r3, r4, r5, r6, r7, pc}
200059a8:	2004      	movs	r0, #4
200059aa:	e7fc      	b.n	200059a6 <Disk_CheckFS+0x9a>
200059ac:	2000      	movs	r0, #0
200059ae:	e7fa      	b.n	200059a6 <Disk_CheckFS+0x9a>
200059b0:	2003      	movs	r0, #3
200059b2:	e7f8      	b.n	200059a6 <Disk_CheckFS+0x9a>
200059b4:	2000abc4 	.word	0x2000abc4
200059b8:	0ffffff5 	.word	0x0ffffff5

200059bc <DiskMount>:
200059bc:	e92d 43f0 	stmdb	sp!, {r4, r5, r6, r7, r8, r9, lr}
200059c0:	b085      	sub	sp, #20
200059c2:	f7ff f8f5 	bl	20004bb0 <DiskUnmount>
200059c6:	f7ff fc21 	bl	2000520c <SDConnect>
200059ca:	4605      	mov	r5, r0
200059cc:	b920      	cbnz	r0, 200059d8 <DiskMount+0x1c>
200059ce:	2500      	movs	r5, #0
200059d0:	4628      	mov	r0, r5
200059d2:	b005      	add	sp, #20
200059d4:	e8bd 83f0 	ldmia.w	sp!, {r4, r5, r6, r7, r8, r9, pc}
200059d8:	2000      	movs	r0, #0
200059da:	f7ff ff97 	bl	2000590c <Disk_CheckFS>
200059de:	2804      	cmp	r0, #4
200059e0:	4606      	mov	r6, r0
200059e2:	d0f4      	beq.n	200059ce <DiskMount+0x12>
200059e4:	4c66      	ldr	r4, [pc, #408]	@ (20005b80 <DiskMount+0x1c4>)
200059e6:	2800      	cmp	r0, #0
200059e8:	f040 80b4 	bne.w	20005b54 <DiskMount+0x198>
200059ec:	4621      	mov	r1, r4
200059ee:	46e9      	mov	r9, sp
200059f0:	4668      	mov	r0, sp
200059f2:	4632      	mov	r2, r6
200059f4:	f891 31c2 	ldrb.w	r3, [r1, #450]	@ 0x1c2
200059f8:	b12b      	cbz	r3, 20005a06 <DiskMount+0x4a>
200059fa:	f102 031c 	add.w	r3, r2, #28
200059fe:	eb04 1303 	add.w	r3, r4, r3, lsl #4
20005a02:	f8d3 3006 	ldr.w	r3, [r3, #6]
20005a06:	3201      	adds	r2, #1
20005a08:	2a04      	cmp	r2, #4
20005a0a:	f840 3b04 	str.w	r3, [r0], #4
20005a0e:	f101 0110 	add.w	r1, r1, #16
20005a12:	d1ef      	bne.n	200059f4 <DiskMount+0x38>
20005a14:	f04f 0800 	mov.w	r8, #0
20005a18:	f859 7b04 	ldr.w	r7, [r9], #4
20005a1c:	b13f      	cbz	r7, 20005a2e <DiskMount+0x72>
20005a1e:	4638      	mov	r0, r7
20005a20:	f7ff ff74 	bl	2000590c <Disk_CheckFS>
20005a24:	1e43      	subs	r3, r0, #1
20005a26:	b2db      	uxtb	r3, r3
20005a28:	2b02      	cmp	r3, #2
20005a2a:	4606      	mov	r6, r0
20005a2c:	d90a      	bls.n	20005a44 <DiskMount+0x88>
20005a2e:	f108 0801 	add.w	r8, r8, #1
20005a32:	fa5f f888 	uxtb.w	r8, r8
20005a36:	f1b8 0f04 	cmp.w	r8, #4
20005a3a:	d1ed      	bne.n	20005a18 <DiskMount+0x5c>
20005a3c:	1e73      	subs	r3, r6, #1
20005a3e:	b2db      	uxtb	r3, r3
20005a40:	2b02      	cmp	r3, #2
20005a42:	d8c4      	bhi.n	200059ce <DiskMount+0x12>
20005a44:	8ae1      	ldrh	r1, [r4, #22]
20005a46:	b901      	cbnz	r1, 20005a4a <DiskMount+0x8e>
20005a48:	6a61      	ldr	r1, [r4, #36]	@ 0x24
20005a4a:	4b4e      	ldr	r3, [pc, #312]	@ (20005b84 <DiskMount+0x1c8>)
20005a4c:	f894 c010 	ldrb.w	ip, [r4, #16]
20005a50:	6019      	str	r1, [r3, #0]
20005a52:	4b4d      	ldr	r3, [pc, #308]	@ (20005b88 <DiskMount+0x1cc>)
20005a54:	f894 800d 	ldrb.w	r8, [r4, #13]
20005a58:	f883 c000 	strb.w	ip, [r3]
20005a5c:	4b4b      	ldr	r3, [pc, #300]	@ (20005b8c <DiskMount+0x1d0>)
20005a5e:	ea4f 2248 	mov.w	r2, r8, lsl #9
20005a62:	f883 8000 	strb.w	r8, [r3]
20005a66:	4b4a      	ldr	r3, [pc, #296]	@ (20005b90 <DiskMount+0x1d4>)
20005a68:	fb01 fc0c 	mul.w	ip, r1, ip
20005a6c:	601a      	str	r2, [r3, #0]
20005a6e:	f8b4 3011 	ldrh.w	r3, [r4, #17]
20005a72:	4a48      	ldr	r2, [pc, #288]	@ (20005b94 <DiskMount+0x1d8>)
20005a74:	fa1f fe83 	uxth.w	lr, r3
20005a78:	8013      	strh	r3, [r2, #0]
20005a7a:	f8b4 3013 	ldrh.w	r3, [r4, #19]
20005a7e:	b903      	cbnz	r3, 20005a82 <DiskMount+0xc6>
20005a80:	6a23      	ldr	r3, [r4, #32]
20005a82:	4a45      	ldr	r2, [pc, #276]	@ (20005b98 <DiskMount+0x1dc>)
20005a84:	2e03      	cmp	r6, #3
20005a86:	6013      	str	r3, [r2, #0]
20005a88:	89e2      	ldrh	r2, [r4, #14]
20005a8a:	eb02 101e 	add.w	r0, r2, lr, lsr #4
20005a8e:	4460      	add	r0, ip
20005a90:	eba3 0300 	sub.w	r3, r3, r0
20005a94:	fbb3 f3f8 	udiv	r3, r3, r8
20005a98:	f8df 811c 	ldr.w	r8, [pc, #284]	@ 20005bb8 <DiskMount+0x1fc>
20005a9c:	443a      	add	r2, r7
20005a9e:	f8c8 3000 	str.w	r3, [r8]
20005aa2:	f8df 8118 	ldr.w	r8, [pc, #280]	@ 20005bbc <DiskMount+0x200>
20005aa6:	f103 0302 	add.w	r3, r3, #2
20005aaa:	f8c8 3000 	str.w	r3, [r8]
20005aae:	f8df 8110 	ldr.w	r8, [pc, #272]	@ 20005bc0 <DiskMount+0x204>
20005ab2:	4438      	add	r0, r7
20005ab4:	f8c8 7000 	str.w	r7, [r8]
20005ab8:	f8df 8108 	ldr.w	r8, [pc, #264]	@ 20005bc4 <DiskMount+0x208>
20005abc:	f8c8 2000 	str.w	r2, [r8]
20005ac0:	f8df 8104 	ldr.w	r8, [pc, #260]	@ 20005bc8 <DiskMount+0x20c>
20005ac4:	f8c8 0000 	str.w	r0, [r8]
20005ac8:	d146      	bne.n	20005b58 <DiskMount+0x19c>
20005aca:	f1be 0f00 	cmp.w	lr, #0
20005ace:	f47f af7e 	bne.w	200059ce <DiskMount+0x12>
20005ad2:	4a32      	ldr	r2, [pc, #200]	@ (20005b9c <DiskMount+0x1e0>)
20005ad4:	6ae0      	ldr	r0, [r4, #44]	@ 0x2c
20005ad6:	009b      	lsls	r3, r3, #2
20005ad8:	6010      	str	r0, [r2, #0]
20005ada:	f8d4 2043 	ldr.w	r2, [r4, #67]	@ 0x43
20005ade:	4830      	ldr	r0, [pc, #192]	@ (20005ba0 <DiskMount+0x1e4>)
20005ae0:	f203 13ff 	addw	r3, r3, #511	@ 0x1ff
20005ae4:	ebb1 2f53 	cmp.w	r1, r3, lsr #9
20005ae8:	6002      	str	r2, [r0, #0]
20005aea:	f4ff af70 	bcc.w	200059ce <DiskMount+0x12>
20005aee:	f04f 31ff 	mov.w	r1, #4294967295
20005af2:	2002      	movs	r0, #2
20005af4:	4a2b      	ldr	r2, [pc, #172]	@ (20005ba4 <DiskMount+0x1e8>)
20005af6:	4b2c      	ldr	r3, [pc, #176]	@ (20005ba8 <DiskMount+0x1ec>)
20005af8:	6011      	str	r1, [r2, #0]
20005afa:	6019      	str	r1, [r3, #0]
20005afc:	492b      	ldr	r1, [pc, #172]	@ (20005bac <DiskMount+0x1f0>)
20005afe:	2e03      	cmp	r6, #3
20005b00:	7008      	strb	r0, [r1, #0]
20005b02:	d124      	bne.n	20005b4e <DiskMount+0x192>
20005b04:	8e20      	ldrh	r0, [r4, #48]	@ 0x30
20005b06:	2801      	cmp	r0, #1
20005b08:	d121      	bne.n	20005b4e <DiskMount+0x192>
20005b0a:	1c78      	adds	r0, r7, #1
20005b0c:	f7ff fd12 	bl	20005534 <Disk_MoveBuf>
20005b10:	b1e8      	cbz	r0, 20005b4e <DiskMount+0x192>
20005b12:	2000      	movs	r0, #0
20005b14:	4925      	ldr	r1, [pc, #148]	@ (20005bac <DiskMount+0x1f0>)
20005b16:	4a23      	ldr	r2, [pc, #140]	@ (20005ba4 <DiskMount+0x1e8>)
20005b18:	7008      	strb	r0, [r1, #0]
20005b1a:	6820      	ldr	r0, [r4, #0]
20005b1c:	4924      	ldr	r1, [pc, #144]	@ (20005bb0 <DiskMount+0x1f4>)
20005b1e:	4b22      	ldr	r3, [pc, #136]	@ (20005ba8 <DiskMount+0x1ec>)
20005b20:	4288      	cmp	r0, r1
20005b22:	d114      	bne.n	20005b4e <DiskMount+0x192>
20005b24:	f101 51ff 	add.w	r1, r1, #534773760	@ 0x1fe00000
20005b28:	f8d4 01e4 	ldr.w	r0, [r4, #484]	@ 0x1e4
20005b2c:	f501 5100 	add.w	r1, r1, #8192	@ 0x2000
20005b30:	3120      	adds	r1, #32
20005b32:	4288      	cmp	r0, r1
20005b34:	d10b      	bne.n	20005b4e <DiskMount+0x192>
20005b36:	f64a 2155 	movw	r1, #43605	@ 0xaa55
20005b3a:	f8b4 01fe 	ldrh.w	r0, [r4, #510]	@ 0x1fe
20005b3e:	4288      	cmp	r0, r1
20005b40:	bf01      	itttt	eq
20005b42:	f8d4 11e8 	ldreq.w	r1, [r4, #488]	@ 0x1e8
20005b46:	6011      	streq	r1, [r2, #0]
20005b48:	f8d4 21ec 	ldreq.w	r2, [r4, #492]	@ 0x1ec
20005b4c:	601a      	streq	r2, [r3, #0]
20005b4e:	4b19      	ldr	r3, [pc, #100]	@ (20005bb4 <DiskMount+0x1f8>)
20005b50:	701e      	strb	r6, [r3, #0]
20005b52:	e73d      	b.n	200059d0 <DiskMount+0x14>
20005b54:	2700      	movs	r7, #0
20005b56:	e775      	b.n	20005a44 <DiskMount+0x88>
20005b58:	f1be 0f00 	cmp.w	lr, #0
20005b5c:	f43f af37 	beq.w	200059ce <DiskMount+0x12>
20005b60:	480e      	ldr	r0, [pc, #56]	@ (20005b9c <DiskMount+0x1e0>)
20005b62:	4462      	add	r2, ip
20005b64:	2e01      	cmp	r6, #1
20005b66:	6002      	str	r2, [r0, #0]
20005b68:	ea4f 0243 	mov.w	r2, r3, lsl #1
20005b6c:	bf05      	ittet	eq
20005b6e:	18d2      	addeq	r2, r2, r3
20005b70:	f003 0301 	andeq.w	r3, r3, #1
20005b74:	4613      	movne	r3, r2
20005b76:	eb03 0352 	addeq.w	r3, r3, r2, lsr #1
20005b7a:	f8d4 2027 	ldr.w	r2, [r4, #39]	@ 0x27
20005b7e:	e7ae      	b.n	20005ade <DiskMount+0x122>
20005b80:	2000abc4 	.word	0x2000abc4
20005b84:	2000adec 	.word	0x2000adec
20005b88:	200323fd 	.word	0x200323fd
20005b8c:	200323d7 	.word	0x200323d7
20005b90:	2000ab18 	.word	0x2000ab18
20005b94:	2003229c 	.word	0x2003229c
20005b98:	2000adc8 	.word	0x2000adc8
20005b9c:	2000ab90 	.word	0x2000ab90
20005ba0:	2000adc4 	.word	0x2000adc4
20005ba4:	2000ab0c 	.word	0x2000ab0c
20005ba8:	2000ab10 	.word	0x2000ab10
20005bac:	2000aabc 	.word	0x2000aabc
20005bb0:	41615252 	.word	0x41615252
20005bb4:	200323fc 	.word	0x200323fc
20005bb8:	2000ab14 	.word	0x2000ab14
20005bbc:	2000ade8 	.word	0x2000ade8
20005bc0:	2000abc0 	.word	0x2000abc0
20005bc4:	2000ade4 	.word	0x2000ade4
20005bc8:	2000ab8c 	.word	0x2000ab8c

20005bcc <FileRead>:
20005bcc:	e92d 4ff8 	stmdb	sp!, {r3, r4, r5, r6, r7, r8, r9, sl, fp, lr}
20005bd0:	4689      	mov	r9, r1
20005bd2:	4604      	mov	r4, r0
20005bd4:	2800      	cmp	r0, #0
20005bd6:	d064      	beq.n	20005ca2 <FileRead+0xd6>
20005bd8:	7806      	ldrb	r6, [r0, #0]
20005bda:	b16e      	cbz	r6, 20005bf8 <FileRead+0x2c>
20005bdc:	6983      	ldr	r3, [r0, #24]
20005bde:	6a01      	ldr	r1, [r0, #32]
20005be0:	2600      	movs	r6, #0
20005be2:	eba3 0801 	sub.w	r8, r3, r1
20005be6:	4590      	cmp	r8, r2
20005be8:	bf28      	it	cs
20005bea:	4690      	movcs	r8, r2
20005bec:	f8df a0b8 	ldr.w	sl, [pc, #184]	@ 20005ca8 <FileRead+0xdc>
20005bf0:	f8df b0b8 	ldr.w	fp, [pc, #184]	@ 20005cac <FileRead+0xe0>
20005bf4:	45b0      	cmp	r8, r6
20005bf6:	d802      	bhi.n	20005bfe <FileRead+0x32>
20005bf8:	4630      	mov	r0, r6
20005bfa:	e8bd 8ff8 	ldmia.w	sp!, {r3, r4, r5, r6, r7, r8, r9, sl, fp, pc}
20005bfe:	6a22      	ldr	r2, [r4, #32]
20005c00:	f3c2 0308 	ubfx	r3, r2, #0, #9
20005c04:	2b00      	cmp	r3, #0
20005c06:	d137      	bne.n	20005c78 <FileRead+0xac>
20005c08:	f89b 5000 	ldrb.w	r5, [fp]
20005c0c:	3d01      	subs	r5, #1
20005c0e:	ea15 2552 	ands.w	r5, r5, r2, lsr #9
20005c12:	d107      	bne.n	20005c24 <FileRead+0x58>
20005c14:	bb02      	cbnz	r2, 20005c58 <FileRead+0x8c>
20005c16:	69e2      	ldr	r2, [r4, #28]
20005c18:	4610      	mov	r0, r2
20005c1a:	f7fe fe63 	bl	200048e4 <Disk_ClustValid>
20005c1e:	2800      	cmp	r0, #0
20005c20:	d0ea      	beq.n	20005bf8 <FileRead+0x2c>
20005c22:	6262      	str	r2, [r4, #36]	@ 0x24
20005c24:	6a60      	ldr	r0, [r4, #36]	@ 0x24
20005c26:	f7fe fe81 	bl	2000492c <Disk_ClustSect>
20005c2a:	2800      	cmp	r0, #0
20005c2c:	d0e4      	beq.n	20005bf8 <FileRead+0x2c>
20005c2e:	182f      	adds	r7, r5, r0
20005c30:	eba8 0506 	sub.w	r5, r8, r6
20005c34:	f5b5 7f00 	cmp.w	r5, #512	@ 0x200
20005c38:	d313      	bcc.n	20005c62 <FileRead+0x96>
20005c3a:	4649      	mov	r1, r9
20005c3c:	4638      	mov	r0, r7
20005c3e:	f7ff fbd1 	bl	200053e4 <SDReadSect>
20005c42:	2800      	cmp	r0, #0
20005c44:	d0d8      	beq.n	20005bf8 <FileRead+0x2c>
20005c46:	f44f 7500 	mov.w	r5, #512	@ 0x200
20005c4a:	62a7      	str	r7, [r4, #40]	@ 0x28
20005c4c:	6a23      	ldr	r3, [r4, #32]
20005c4e:	442e      	add	r6, r5
20005c50:	442b      	add	r3, r5
20005c52:	44a9      	add	r9, r5
20005c54:	6223      	str	r3, [r4, #32]
20005c56:	e7cd      	b.n	20005bf4 <FileRead+0x28>
20005c58:	6a60      	ldr	r0, [r4, #36]	@ 0x24
20005c5a:	f7ff fc87 	bl	2000556c <Disk_ReadFat>
20005c5e:	4602      	mov	r2, r0
20005c60:	e7da      	b.n	20005c18 <FileRead+0x4c>
20005c62:	4638      	mov	r0, r7
20005c64:	f7ff fc66 	bl	20005534 <Disk_MoveBuf>
20005c68:	2800      	cmp	r0, #0
20005c6a:	d0c5      	beq.n	20005bf8 <FileRead+0x2c>
20005c6c:	462a      	mov	r2, r5
20005c6e:	4651      	mov	r1, sl
20005c70:	4648      	mov	r0, r9
20005c72:	f003 fb69 	bl	20009348 <memcpy>
20005c76:	e7e8      	b.n	20005c4a <FileRead+0x7e>
20005c78:	eba8 0506 	sub.w	r5, r8, r6
20005c7c:	f5c3 7300 	rsb	r3, r3, #512	@ 0x200
20005c80:	429d      	cmp	r5, r3
20005c82:	6aa0      	ldr	r0, [r4, #40]	@ 0x28
20005c84:	bf28      	it	cs
20005c86:	461d      	movcs	r5, r3
20005c88:	f7ff fc54 	bl	20005534 <Disk_MoveBuf>
20005c8c:	2800      	cmp	r0, #0
20005c8e:	d0b3      	beq.n	20005bf8 <FileRead+0x2c>
20005c90:	6a21      	ldr	r1, [r4, #32]
20005c92:	462a      	mov	r2, r5
20005c94:	f3c1 0108 	ubfx	r1, r1, #0, #9
20005c98:	4648      	mov	r0, r9
20005c9a:	4451      	add	r1, sl
20005c9c:	f003 fb54 	bl	20009348 <memcpy>
20005ca0:	e7d4      	b.n	20005c4c <FileRead+0x80>
20005ca2:	4606      	mov	r6, r0
20005ca4:	e7a8      	b.n	20005bf8 <FileRead+0x2c>
20005ca6:	bf00      	nop
20005ca8:	2000abc4 	.word	0x2000abc4
20005cac:	200323d7 	.word	0x200323d7

20005cb0 <Disk_SyncFS>:
20005cb0:	b538      	push	{r3, r4, r5, lr}
20005cb2:	f7ff fc0d 	bl	200054d0 <Disk_FlushBuf>
20005cb6:	4604      	mov	r4, r0
20005cb8:	b368      	cbz	r0, 20005d16 <Disk_SyncFS+0x66>
20005cba:	4b18      	ldr	r3, [pc, #96]	@ (20005d1c <Disk_SyncFS+0x6c>)
20005cbc:	781b      	ldrb	r3, [r3, #0]
20005cbe:	2b03      	cmp	r3, #3
20005cc0:	d129      	bne.n	20005d16 <Disk_SyncFS+0x66>
20005cc2:	4d17      	ldr	r5, [pc, #92]	@ (20005d20 <Disk_SyncFS+0x70>)
20005cc4:	782b      	ldrb	r3, [r5, #0]
20005cc6:	2b01      	cmp	r3, #1
20005cc8:	d125      	bne.n	20005d16 <Disk_SyncFS+0x66>
20005cca:	f44f 7200 	mov.w	r2, #512	@ 0x200
20005cce:	2100      	movs	r1, #0
20005cd0:	4814      	ldr	r0, [pc, #80]	@ (20005d24 <Disk_SyncFS+0x74>)
20005cd2:	f003 faeb 	bl	200092ac <memset>
20005cd6:	4a13      	ldr	r2, [pc, #76]	@ (20005d24 <Disk_SyncFS+0x74>)
20005cd8:	4b13      	ldr	r3, [pc, #76]	@ (20005d28 <Disk_SyncFS+0x78>)
20005cda:	4611      	mov	r1, r2
20005cdc:	6013      	str	r3, [r2, #0]
20005cde:	f103 53ff 	add.w	r3, r3, #534773760	@ 0x1fe00000
20005ce2:	f503 5300 	add.w	r3, r3, #8192	@ 0x2000
20005ce6:	3320      	adds	r3, #32
20005ce8:	f8c2 31e4 	str.w	r3, [r2, #484]	@ 0x1e4
20005cec:	4b0f      	ldr	r3, [pc, #60]	@ (20005d2c <Disk_SyncFS+0x7c>)
20005cee:	681b      	ldr	r3, [r3, #0]
20005cf0:	f8c2 31e8 	str.w	r3, [r2, #488]	@ 0x1e8
20005cf4:	4b0e      	ldr	r3, [pc, #56]	@ (20005d30 <Disk_SyncFS+0x80>)
20005cf6:	681b      	ldr	r3, [r3, #0]
20005cf8:	f8c2 31ec 	str.w	r3, [r2, #492]	@ 0x1ec
20005cfc:	f64a 2355 	movw	r3, #43605	@ 0xaa55
20005d00:	f8a2 31fe 	strh.w	r3, [r2, #510]	@ 0x1fe
20005d04:	4b0b      	ldr	r3, [pc, #44]	@ (20005d34 <Disk_SyncFS+0x84>)
20005d06:	6818      	ldr	r0, [r3, #0]
20005d08:	4b0b      	ldr	r3, [pc, #44]	@ (20005d38 <Disk_SyncFS+0x88>)
20005d0a:	3001      	adds	r0, #1
20005d0c:	6018      	str	r0, [r3, #0]
20005d0e:	f7ff fb93 	bl	20005438 <SDWriteSect>
20005d12:	2300      	movs	r3, #0
20005d14:	702b      	strb	r3, [r5, #0]
20005d16:	4620      	mov	r0, r4
20005d18:	bd38      	pop	{r3, r4, r5, pc}
20005d1a:	bf00      	nop
20005d1c:	200323fc 	.word	0x200323fc
20005d20:	2000aabc 	.word	0x2000aabc
20005d24:	2000abc4 	.word	0x2000abc4
20005d28:	41615252 	.word	0x41615252
20005d2c:	2000ab0c 	.word	0x2000ab0c
20005d30:	2000ab10 	.word	0x2000ab10
20005d34:	2000abc0 	.word	0x2000abc0
20005d38:	2000aac0 	.word	0x2000aac0

20005d3c <FileFlush>:
20005d3c:	b538      	push	{r3, r4, r5, lr}
20005d3e:	4604      	mov	r4, r0
20005d40:	b908      	cbnz	r0, 20005d46 <FileFlush+0xa>
20005d42:	2000      	movs	r0, #0
20005d44:	bd38      	pop	{r3, r4, r5, pc}
20005d46:	7803      	ldrb	r3, [r0, #0]
20005d48:	2b00      	cmp	r3, #0
20005d4a:	d0fa      	beq.n	20005d42 <FileFlush+0x6>
20005d4c:	7ac3      	ldrb	r3, [r0, #11]
20005d4e:	065b      	lsls	r3, r3, #25
20005d50:	d522      	bpl.n	20005d98 <FileFlush+0x5c>
20005d52:	6900      	ldr	r0, [r0, #16]
20005d54:	f7ff fbee 	bl	20005534 <Disk_MoveBuf>
20005d58:	2800      	cmp	r0, #0
20005d5a:	d0f2      	beq.n	20005d42 <FileFlush+0x6>
20005d5c:	2221      	movs	r2, #33	@ 0x21
20005d5e:	2100      	movs	r1, #0
20005d60:	2328      	movs	r3, #40	@ 0x28
20005d62:	2560      	movs	r5, #96	@ 0x60
20005d64:	68e0      	ldr	r0, [r4, #12]
20005d66:	7402      	strb	r2, [r0, #16]
20005d68:	7482      	strb	r2, [r0, #18]
20005d6a:	7602      	strb	r2, [r0, #24]
20005d6c:	2201      	movs	r2, #1
20005d6e:	7341      	strb	r1, [r0, #13]
20005d70:	7381      	strb	r1, [r0, #14]
20005d72:	7581      	strb	r1, [r0, #22]
20005d74:	73c5      	strb	r5, [r0, #15]
20005d76:	7443      	strb	r3, [r0, #17]
20005d78:	74c3      	strb	r3, [r0, #19]
20005d7a:	75c5      	strb	r5, [r0, #23]
20005d7c:	7643      	strb	r3, [r0, #25]
20005d7e:	7ae3      	ldrb	r3, [r4, #11]
20005d80:	f003 031f 	and.w	r3, r3, #31
20005d84:	f043 0320 	orr.w	r3, r3, #32
20005d88:	72c3      	strb	r3, [r0, #11]
20005d8a:	69e1      	ldr	r1, [r4, #28]
20005d8c:	f7fe fdec 	bl	20004968 <Disk_SaveStartClust>
20005d90:	69a3      	ldr	r3, [r4, #24]
20005d92:	61c3      	str	r3, [r0, #28]
20005d94:	4b05      	ldr	r3, [pc, #20]	@ (20005dac <FileFlush+0x70>)
20005d96:	701a      	strb	r2, [r3, #0]
20005d98:	f7ff ff8a 	bl	20005cb0 <Disk_SyncFS>
20005d9c:	2800      	cmp	r0, #0
20005d9e:	d0d0      	beq.n	20005d42 <FileFlush+0x6>
20005da0:	7ae3      	ldrb	r3, [r4, #11]
20005da2:	f023 0340 	bic.w	r3, r3, #64	@ 0x40
20005da6:	72e3      	strb	r3, [r4, #11]
20005da8:	e7cc      	b.n	20005d44 <FileFlush+0x8>
20005daa:	bf00      	nop
20005dac:	200323fb 	.word	0x200323fb

20005db0 <FileClose>:
20005db0:	b510      	push	{r4, lr}
20005db2:	4604      	mov	r4, r0
20005db4:	b908      	cbnz	r0, 20005dba <FileClose+0xa>
20005db6:	2000      	movs	r0, #0
20005db8:	bd10      	pop	{r4, pc}
20005dba:	7803      	ldrb	r3, [r0, #0]
20005dbc:	2b00      	cmp	r3, #0
20005dbe:	d0fa      	beq.n	20005db6 <FileClose+0x6>
20005dc0:	f7ff ffbc 	bl	20005d3c <FileFlush>
20005dc4:	2800      	cmp	r0, #0
20005dc6:	d0f6      	beq.n	20005db6 <FileClose+0x6>
20005dc8:	2300      	movs	r3, #0
20005dca:	7023      	strb	r3, [r4, #0]
20005dcc:	e7f4      	b.n	20005db8 <FileClose+0x8>
	...

20005dd0 <Disk_DirClear>:
20005dd0:	b570      	push	{r4, r5, r6, lr}
20005dd2:	4604      	mov	r4, r0
20005dd4:	f7ff fb7c 	bl	200054d0 <Disk_FlushBuf>
20005dd8:	4605      	mov	r5, r0
20005dda:	b910      	cbnz	r0, 20005de2 <Disk_DirClear+0x12>
20005ddc:	2500      	movs	r5, #0
20005dde:	4628      	mov	r0, r5
20005de0:	bd70      	pop	{r4, r5, r6, pc}
20005de2:	4620      	mov	r0, r4
20005de4:	f7fe fda2 	bl	2000492c <Disk_ClustSect>
20005de8:	4604      	mov	r4, r0
20005dea:	2800      	cmp	r0, #0
20005dec:	d0f6      	beq.n	20005ddc <Disk_DirClear+0xc>
20005dee:	4b0a      	ldr	r3, [pc, #40]	@ (20005e18 <Disk_DirClear+0x48>)
20005df0:	f44f 7200 	mov.w	r2, #512	@ 0x200
20005df4:	6018      	str	r0, [r3, #0]
20005df6:	2100      	movs	r1, #0
20005df8:	4808      	ldr	r0, [pc, #32]	@ (20005e1c <Disk_DirClear+0x4c>)
20005dfa:	f003 fa57 	bl	200092ac <memset>
20005dfe:	4b08      	ldr	r3, [pc, #32]	@ (20005e20 <Disk_DirClear+0x50>)
20005e00:	781e      	ldrb	r6, [r3, #0]
20005e02:	4426      	add	r6, r4
20005e04:	42b4      	cmp	r4, r6
20005e06:	d0ea      	beq.n	20005dde <Disk_DirClear+0xe>
20005e08:	4620      	mov	r0, r4
20005e0a:	4904      	ldr	r1, [pc, #16]	@ (20005e1c <Disk_DirClear+0x4c>)
20005e0c:	f7ff fb14 	bl	20005438 <SDWriteSect>
20005e10:	2800      	cmp	r0, #0
20005e12:	d0e3      	beq.n	20005ddc <Disk_DirClear+0xc>
20005e14:	3401      	adds	r4, #1
20005e16:	e7f5      	b.n	20005e04 <Disk_DirClear+0x34>
20005e18:	2000aac0 	.word	0x2000aac0
20005e1c:	2000abc4 	.word	0x2000abc4
20005e20:	200323d7 	.word	0x200323d7

20005e24 <Disk_DirNext>:
20005e24:	e92d 41f0 	stmdb	sp!, {r4, r5, r6, r7, r8, lr}
20005e28:	6a06      	ldr	r6, [r0, #32]
20005e2a:	4604      	mov	r4, r0
20005e2c:	3620      	adds	r6, #32
20005e2e:	f3c6 0708 	ubfx	r7, r6, #0, #9
20005e32:	4688      	mov	r8, r1
20005e34:	2f00      	cmp	r7, #0
20005e36:	d131      	bne.n	20005e9c <Disk_DirNext+0x78>
20005e38:	6a83      	ldr	r3, [r0, #40]	@ 0x28
20005e3a:	3301      	adds	r3, #1
20005e3c:	6283      	str	r3, [r0, #40]	@ 0x28
20005e3e:	6a40      	ldr	r0, [r0, #36]	@ 0x24
20005e40:	b940      	cbnz	r0, 20005e54 <Disk_DirNext+0x30>
20005e42:	4b19      	ldr	r3, [pc, #100]	@ (20005ea8 <Disk_DirNext+0x84>)
20005e44:	881b      	ldrh	r3, [r3, #0]
20005e46:	ebb6 1f43 	cmp.w	r6, r3, lsl #5
20005e4a:	d327      	bcc.n	20005e9c <Disk_DirNext+0x78>
20005e4c:	62a0      	str	r0, [r4, #40]	@ 0x28
20005e4e:	2000      	movs	r0, #0
20005e50:	e8bd 81f0 	ldmia.w	sp!, {r4, r5, r6, r7, r8, pc}
20005e54:	4b15      	ldr	r3, [pc, #84]	@ (20005eac <Disk_DirNext+0x88>)
20005e56:	781b      	ldrb	r3, [r3, #0]
20005e58:	3b01      	subs	r3, #1
20005e5a:	ea13 2356 	ands.w	r3, r3, r6, lsr #9
20005e5e:	d11d      	bne.n	20005e9c <Disk_DirNext+0x78>
20005e60:	f7ff fb84 	bl	2000556c <Disk_ReadFat>
20005e64:	1e83      	subs	r3, r0, #2
20005e66:	3304      	adds	r3, #4
20005e68:	4605      	mov	r5, r0
20005e6a:	d8f0      	bhi.n	20005e4e <Disk_DirNext+0x2a>
20005e6c:	4b10      	ldr	r3, [pc, #64]	@ (20005eb0 <Disk_DirNext+0x8c>)
20005e6e:	681b      	ldr	r3, [r3, #0]
20005e70:	4283      	cmp	r3, r0
20005e72:	d80e      	bhi.n	20005e92 <Disk_DirNext+0x6e>
20005e74:	62a7      	str	r7, [r4, #40]	@ 0x28
20005e76:	f1b8 0f00 	cmp.w	r8, #0
20005e7a:	d0e8      	beq.n	20005e4e <Disk_DirNext+0x2a>
20005e7c:	6a60      	ldr	r0, [r4, #36]	@ 0x24
20005e7e:	f7ff fcc7 	bl	20005810 <Disk_CreateFat>
20005e82:	1e43      	subs	r3, r0, #1
20005e84:	3303      	adds	r3, #3
20005e86:	4605      	mov	r5, r0
20005e88:	d8e1      	bhi.n	20005e4e <Disk_DirNext+0x2a>
20005e8a:	f7ff ffa1 	bl	20005dd0 <Disk_DirClear>
20005e8e:	2800      	cmp	r0, #0
20005e90:	d0dd      	beq.n	20005e4e <Disk_DirNext+0x2a>
20005e92:	4628      	mov	r0, r5
20005e94:	6265      	str	r5, [r4, #36]	@ 0x24
20005e96:	f7fe fd49 	bl	2000492c <Disk_ClustSect>
20005e9a:	62a0      	str	r0, [r4, #40]	@ 0x28
20005e9c:	4b05      	ldr	r3, [pc, #20]	@ (20005eb4 <Disk_DirNext+0x90>)
20005e9e:	2001      	movs	r0, #1
20005ea0:	441f      	add	r7, r3
20005ea2:	6226      	str	r6, [r4, #32]
20005ea4:	60e7      	str	r7, [r4, #12]
20005ea6:	e7d3      	b.n	20005e50 <Disk_DirNext+0x2c>
20005ea8:	2003229c 	.word	0x2003229c
20005eac:	200323d7 	.word	0x200323d7
20005eb0:	2000ade8 	.word	0x2000ade8
20005eb4:	2000abc4 	.word	0x2000abc4

20005eb8 <Disk_DirAlloc>:
20005eb8:	b510      	push	{r4, lr}
20005eba:	2100      	movs	r1, #0
20005ebc:	4604      	mov	r4, r0
20005ebe:	f7ff fbb1 	bl	20005624 <Disk_DirInx>
20005ec2:	b168      	cbz	r0, 20005ee0 <Disk_DirAlloc+0x28>
20005ec4:	6aa0      	ldr	r0, [r4, #40]	@ 0x28
20005ec6:	f7ff fb35 	bl	20005534 <Disk_MoveBuf>
20005eca:	b148      	cbz	r0, 20005ee0 <Disk_DirAlloc+0x28>
20005ecc:	68e3      	ldr	r3, [r4, #12]
20005ece:	781b      	ldrb	r3, [r3, #0]
20005ed0:	2be5      	cmp	r3, #229	@ 0xe5
20005ed2:	d006      	beq.n	20005ee2 <Disk_DirAlloc+0x2a>
20005ed4:	b12b      	cbz	r3, 20005ee2 <Disk_DirAlloc+0x2a>
20005ed6:	2101      	movs	r1, #1
20005ed8:	4620      	mov	r0, r4
20005eda:	f7ff ffa3 	bl	20005e24 <Disk_DirNext>
20005ede:	e7f0      	b.n	20005ec2 <Disk_DirAlloc+0xa>
20005ee0:	2000      	movs	r0, #0
20005ee2:	bd10      	pop	{r4, pc}

20005ee4 <Disk_DirCreate>:
20005ee4:	b538      	push	{r3, r4, r5, lr}
20005ee6:	4604      	mov	r4, r0
20005ee8:	f7ff ffe6 	bl	20005eb8 <Disk_DirAlloc>
20005eec:	4605      	mov	r5, r0
20005eee:	b1f8      	cbz	r0, 20005f30 <Disk_DirCreate+0x4c>
20005ef0:	68e3      	ldr	r3, [r4, #12]
20005ef2:	2220      	movs	r2, #32
20005ef4:	2100      	movs	r1, #0
20005ef6:	4618      	mov	r0, r3
20005ef8:	f003 f9d8 	bl	200092ac <memset>
20005efc:	6822      	ldr	r2, [r4, #0]
20005efe:	4603      	mov	r3, r0
20005f00:	6002      	str	r2, [r0, #0]
20005f02:	6862      	ldr	r2, [r4, #4]
20005f04:	2121      	movs	r1, #33	@ 0x21
20005f06:	6042      	str	r2, [r0, #4]
20005f08:	8922      	ldrh	r2, [r4, #8]
20005f0a:	8102      	strh	r2, [r0, #8]
20005f0c:	7aa2      	ldrb	r2, [r4, #10]
20005f0e:	2400      	movs	r4, #0
20005f10:	7282      	strb	r2, [r0, #10]
20005f12:	2228      	movs	r2, #40	@ 0x28
20005f14:	7384      	strb	r4, [r0, #14]
20005f16:	2060      	movs	r0, #96	@ 0x60
20005f18:	745a      	strb	r2, [r3, #17]
20005f1a:	74da      	strb	r2, [r3, #19]
20005f1c:	765a      	strb	r2, [r3, #25]
20005f1e:	2201      	movs	r2, #1
20005f20:	73d8      	strb	r0, [r3, #15]
20005f22:	7419      	strb	r1, [r3, #16]
20005f24:	7499      	strb	r1, [r3, #18]
20005f26:	759c      	strb	r4, [r3, #22]
20005f28:	75d8      	strb	r0, [r3, #23]
20005f2a:	7619      	strb	r1, [r3, #24]
20005f2c:	4b01      	ldr	r3, [pc, #4]	@ (20005f34 <Disk_DirCreate+0x50>)
20005f2e:	701a      	strb	r2, [r3, #0]
20005f30:	4628      	mov	r0, r5
20005f32:	bd38      	pop	{r3, r4, r5, pc}
20005f34:	200323fb 	.word	0x200323fb

20005f38 <Disk_DirRead>:
20005f38:	b538      	push	{r3, r4, r5, lr}
20005f3a:	4604      	mov	r4, r0
20005f3c:	43cd      	mvns	r5, r1
20005f3e:	6aa0      	ldr	r0, [r4, #40]	@ 0x28
20005f40:	b128      	cbz	r0, 20005f4e <Disk_DirRead+0x16>
20005f42:	f7ff faf7 	bl	20005534 <Disk_MoveBuf>
20005f46:	b120      	cbz	r0, 20005f52 <Disk_DirRead+0x1a>
20005f48:	68e3      	ldr	r3, [r4, #12]
20005f4a:	781a      	ldrb	r2, [r3, #0]
20005f4c:	b91a      	cbnz	r2, 20005f56 <Disk_DirRead+0x1e>
20005f4e:	2300      	movs	r3, #0
20005f50:	62a3      	str	r3, [r4, #40]	@ 0x28
20005f52:	2000      	movs	r0, #0
20005f54:	bd38      	pop	{r3, r4, r5, pc}
20005f56:	7adb      	ldrb	r3, [r3, #11]
20005f58:	2ae5      	cmp	r2, #229	@ 0xe5
20005f5a:	f003 033f 	and.w	r3, r3, #63	@ 0x3f
20005f5e:	d001      	beq.n	20005f64 <Disk_DirRead+0x2c>
20005f60:	421d      	tst	r5, r3
20005f62:	d0f7      	beq.n	20005f54 <Disk_DirRead+0x1c>
20005f64:	2100      	movs	r1, #0
20005f66:	4620      	mov	r0, r4
20005f68:	f7ff ff5c 	bl	20005e24 <Disk_DirNext>
20005f6c:	2800      	cmp	r0, #0
20005f6e:	d1e6      	bne.n	20005f3e <Disk_DirRead+0x6>
20005f70:	e7ef      	b.n	20005f52 <Disk_DirRead+0x1a>

20005f72 <Disk_DirFind>:
20005f72:	b538      	push	{r3, r4, r5, lr}
20005f74:	2100      	movs	r1, #0
20005f76:	4604      	mov	r4, r0
20005f78:	f7ff fb54 	bl	20005624 <Disk_DirInx>
20005f7c:	b150      	cbz	r0, 20005f94 <Disk_DirFind+0x22>
20005f7e:	6aa0      	ldr	r0, [r4, #40]	@ 0x28
20005f80:	b130      	cbz	r0, 20005f90 <Disk_DirFind+0x1e>
20005f82:	f7ff fad7 	bl	20005534 <Disk_MoveBuf>
20005f86:	4605      	mov	r5, r0
20005f88:	b120      	cbz	r0, 20005f94 <Disk_DirFind+0x22>
20005f8a:	68e1      	ldr	r1, [r4, #12]
20005f8c:	780b      	ldrb	r3, [r1, #0]
20005f8e:	b923      	cbnz	r3, 20005f9a <Disk_DirFind+0x28>
20005f90:	2300      	movs	r3, #0
20005f92:	62a3      	str	r3, [r4, #40]	@ 0x28
20005f94:	2500      	movs	r5, #0
20005f96:	4628      	mov	r0, r5
20005f98:	bd38      	pop	{r3, r4, r5, pc}
20005f9a:	7acb      	ldrb	r3, [r1, #11]
20005f9c:	f003 023f 	and.w	r2, r3, #63	@ 0x3f
20005fa0:	071b      	lsls	r3, r3, #28
20005fa2:	72e2      	strb	r2, [r4, #11]
20005fa4:	d405      	bmi.n	20005fb2 <Disk_DirFind+0x40>
20005fa6:	220b      	movs	r2, #11
20005fa8:	4620      	mov	r0, r4
20005faa:	f003 f951 	bl	20009250 <memcmp>
20005fae:	2800      	cmp	r0, #0
20005fb0:	d0f1      	beq.n	20005f96 <Disk_DirFind+0x24>
20005fb2:	2100      	movs	r1, #0
20005fb4:	4620      	mov	r0, r4
20005fb6:	f7ff ff35 	bl	20005e24 <Disk_DirNext>
20005fba:	e7df      	b.n	20005f7c <Disk_DirFind+0xa>

20005fbc <Disk_FollowPath>:
20005fbc:	b537      	push	{r0, r1, r2, r4, r5, lr}
20005fbe:	4604      	mov	r4, r0
20005fc0:	460a      	mov	r2, r1
20005fc2:	2500      	movs	r5, #0
20005fc4:	9101      	str	r1, [sp, #4]
20005fc6:	4610      	mov	r0, r2
20005fc8:	f812 3b01 	ldrb.w	r3, [r2], #1
20005fcc:	2b22      	cmp	r3, #34	@ 0x22
20005fce:	d01d      	beq.n	2000600c <Disk_FollowPath+0x50>
20005fd0:	b10d      	cbz	r5, 20005fd6 <Disk_FollowPath+0x1a>
20005fd2:	4601      	mov	r1, r0
20005fd4:	9001      	str	r0, [sp, #4]
20005fd6:	2b2f      	cmp	r3, #47	@ 0x2f
20005fd8:	d11a      	bne.n	20006010 <Disk_FollowPath+0x54>
20005fda:	460a      	mov	r2, r1
20005fdc:	2300      	movs	r3, #0
20005fde:	4610      	mov	r0, r2
20005fe0:	f812 5b01 	ldrb.w	r5, [r2], #1
20005fe4:	2d2f      	cmp	r5, #47	@ 0x2f
20005fe6:	d018      	beq.n	2000601a <Disk_FollowPath+0x5e>
20005fe8:	2d5c      	cmp	r5, #92	@ 0x5c
20005fea:	d016      	beq.n	2000601a <Disk_FollowPath+0x5e>
20005fec:	b10b      	cbz	r3, 20005ff2 <Disk_FollowPath+0x36>
20005fee:	4601      	mov	r1, r0
20005ff0:	9001      	str	r0, [sp, #4]
20005ff2:	2300      	movs	r3, #0
20005ff4:	61e3      	str	r3, [r4, #28]
20005ff6:	780b      	ldrb	r3, [r1, #0]
20005ff8:	2b1f      	cmp	r3, #31
20005ffa:	d810      	bhi.n	2000601e <Disk_FollowPath+0x62>
20005ffc:	2100      	movs	r1, #0
20005ffe:	4620      	mov	r0, r4
20006000:	f7ff fb10 	bl	20005624 <Disk_DirInx>
20006004:	bb08      	cbnz	r0, 2000604a <Disk_FollowPath+0x8e>
20006006:	2000      	movs	r0, #0
20006008:	b003      	add	sp, #12
2000600a:	bd30      	pop	{r4, r5, pc}
2000600c:	2501      	movs	r5, #1
2000600e:	e7da      	b.n	20005fc6 <Disk_FollowPath+0xa>
20006010:	2b5c      	cmp	r3, #92	@ 0x5c
20006012:	d0e2      	beq.n	20005fda <Disk_FollowPath+0x1e>
20006014:	4b16      	ldr	r3, [pc, #88]	@ (20006070 <Disk_FollowPath+0xb4>)
20006016:	681b      	ldr	r3, [r3, #0]
20006018:	e7ec      	b.n	20005ff4 <Disk_FollowPath+0x38>
2000601a:	2301      	movs	r3, #1
2000601c:	e7df      	b.n	20005fde <Disk_FollowPath+0x22>
2000601e:	2564      	movs	r5, #100	@ 0x64
20006020:	4620      	mov	r0, r4
20006022:	a901      	add	r1, sp, #4
20006024:	f7fe fd70 	bl	20004b08 <Disk_ExtractName>
20006028:	2800      	cmp	r0, #0
2000602a:	d0ec      	beq.n	20006006 <Disk_FollowPath+0x4a>
2000602c:	4620      	mov	r0, r4
2000602e:	f7ff ffa0 	bl	20005f72 <Disk_DirFind>
20006032:	9b01      	ldr	r3, [sp, #4]
20006034:	781b      	ldrb	r3, [r3, #0]
20006036:	b950      	cbnz	r0, 2000604e <Disk_FollowPath+0x92>
20006038:	2b1f      	cmp	r3, #31
2000603a:	d8e4      	bhi.n	20006006 <Disk_FollowPath+0x4a>
2000603c:	7823      	ldrb	r3, [r4, #0]
2000603e:	2b2e      	cmp	r3, #46	@ 0x2e
20006040:	d0e1      	beq.n	20006006 <Disk_FollowPath+0x4a>
20006042:	23ff      	movs	r3, #255	@ 0xff
20006044:	2001      	movs	r0, #1
20006046:	72e3      	strb	r3, [r4, #11]
20006048:	e7de      	b.n	20006008 <Disk_FollowPath+0x4c>
2000604a:	2390      	movs	r3, #144	@ 0x90
2000604c:	e7fa      	b.n	20006044 <Disk_FollowPath+0x88>
2000604e:	2b1f      	cmp	r3, #31
20006050:	d90a      	bls.n	20006068 <Disk_FollowPath+0xac>
20006052:	7ae3      	ldrb	r3, [r4, #11]
20006054:	06db      	lsls	r3, r3, #27
20006056:	d5d6      	bpl.n	20006006 <Disk_FollowPath+0x4a>
20006058:	68e0      	ldr	r0, [r4, #12]
2000605a:	f7fe fc79 	bl	20004950 <Disk_LoadStartClust>
2000605e:	3d01      	subs	r5, #1
20006060:	f015 05ff 	ands.w	r5, r5, #255	@ 0xff
20006064:	61e0      	str	r0, [r4, #28]
20006066:	d1db      	bne.n	20006020 <Disk_FollowPath+0x64>
20006068:	1e28      	subs	r0, r5, #0
2000606a:	bf18      	it	ne
2000606c:	2001      	movne	r0, #1
2000606e:	e7cb      	b.n	20006008 <Disk_FollowPath+0x4c>
20006070:	2000ab3c 	.word	0x2000ab3c

20006074 <FileCreate>:
20006074:	b510      	push	{r4, lr}
20006076:	4b11      	ldr	r3, [pc, #68]	@ (200060bc <FileCreate+0x48>)
20006078:	4604      	mov	r4, r0
2000607a:	781b      	ldrb	r3, [r3, #0]
2000607c:	b1db      	cbz	r3, 200060b6 <FileCreate+0x42>
2000607e:	b1d0      	cbz	r0, 200060b6 <FileCreate+0x42>
20006080:	f7ff ff9c 	bl	20005fbc <Disk_FollowPath>
20006084:	b1b8      	cbz	r0, 200060b6 <FileCreate+0x42>
20006086:	7ae3      	ldrb	r3, [r4, #11]
20006088:	2bff      	cmp	r3, #255	@ 0xff
2000608a:	d114      	bne.n	200060b6 <FileCreate+0x42>
2000608c:	7823      	ldrb	r3, [r4, #0]
2000608e:	2b2e      	cmp	r3, #46	@ 0x2e
20006090:	d011      	beq.n	200060b6 <FileCreate+0x42>
20006092:	4620      	mov	r0, r4
20006094:	f7ff ff26 	bl	20005ee4 <Disk_DirCreate>
20006098:	b168      	cbz	r0, 200060b6 <FileCreate+0x42>
2000609a:	2360      	movs	r3, #96	@ 0x60
2000609c:	72e3      	strb	r3, [r4, #11]
2000609e:	4b08      	ldr	r3, [pc, #32]	@ (200060c0 <FileCreate+0x4c>)
200060a0:	681b      	ldr	r3, [r3, #0]
200060a2:	6123      	str	r3, [r4, #16]
200060a4:	2300      	movs	r3, #0
200060a6:	e9c4 3306 	strd	r3, r3, [r4, #24]
200060aa:	62a3      	str	r3, [r4, #40]	@ 0x28
200060ac:	6223      	str	r3, [r4, #32]
200060ae:	e8bd 4010 	ldmia.w	sp!, {r4, lr}
200060b2:	f7ff ba0d 	b.w	200054d0 <Disk_FlushBuf>
200060b6:	2000      	movs	r0, #0
200060b8:	7020      	strb	r0, [r4, #0]
200060ba:	bd10      	pop	{r4, pc}
200060bc:	200323fc 	.word	0x200323fc
200060c0:	2000aac0 	.word	0x2000aac0

200060c4 <FileOpen>:
200060c4:	b570      	push	{r4, r5, r6, lr}
200060c6:	4b11      	ldr	r3, [pc, #68]	@ (2000610c <FileOpen+0x48>)
200060c8:	4604      	mov	r4, r0
200060ca:	781b      	ldrb	r3, [r3, #0]
200060cc:	b91b      	cbnz	r3, 200060d6 <FileOpen+0x12>
200060ce:	2100      	movs	r1, #0
200060d0:	7021      	strb	r1, [r4, #0]
200060d2:	4608      	mov	r0, r1
200060d4:	bd70      	pop	{r4, r5, r6, pc}
200060d6:	2800      	cmp	r0, #0
200060d8:	d0f9      	beq.n	200060ce <FileOpen+0xa>
200060da:	f7ff ff6f 	bl	20005fbc <Disk_FollowPath>
200060de:	4601      	mov	r1, r0
200060e0:	2800      	cmp	r0, #0
200060e2:	d0f4      	beq.n	200060ce <FileOpen+0xa>
200060e4:	7ae3      	ldrb	r3, [r4, #11]
200060e6:	2bff      	cmp	r3, #255	@ 0xff
200060e8:	d0f1      	beq.n	200060ce <FileOpen+0xa>
200060ea:	f013 0510 	ands.w	r5, r3, #16
200060ee:	d1ee      	bne.n	200060ce <FileOpen+0xa>
200060f0:	4b07      	ldr	r3, [pc, #28]	@ (20006110 <FileOpen+0x4c>)
200060f2:	68e6      	ldr	r6, [r4, #12]
200060f4:	681b      	ldr	r3, [r3, #0]
200060f6:	4630      	mov	r0, r6
200060f8:	6123      	str	r3, [r4, #16]
200060fa:	f7fe fc29 	bl	20004950 <Disk_LoadStartClust>
200060fe:	61e0      	str	r0, [r4, #28]
20006100:	69f3      	ldr	r3, [r6, #28]
20006102:	62a5      	str	r5, [r4, #40]	@ 0x28
20006104:	61a3      	str	r3, [r4, #24]
20006106:	6225      	str	r5, [r4, #32]
20006108:	e7e3      	b.n	200060d2 <FileOpen+0xe>
2000610a:	bf00      	nop
2000610c:	200323fc 	.word	0x200323fc
20006110:	2000aac0 	.word	0x2000aac0

20006114 <SetDir>:
20006114:	b538      	push	{r3, r4, r5, lr}
20006116:	4b0f      	ldr	r3, [pc, #60]	@ (20006154 <SetDir+0x40>)
20006118:	4601      	mov	r1, r0
2000611a:	781b      	ldrb	r3, [r3, #0]
2000611c:	b913      	cbnz	r3, 20006124 <SetDir+0x10>
2000611e:	2100      	movs	r1, #0
20006120:	4608      	mov	r0, r1
20006122:	bd38      	pop	{r3, r4, r5, pc}
20006124:	4c0c      	ldr	r4, [pc, #48]	@ (20006158 <SetDir+0x44>)
20006126:	4620      	mov	r0, r4
20006128:	f7ff ff48 	bl	20005fbc <Disk_FollowPath>
2000612c:	4601      	mov	r1, r0
2000612e:	2800      	cmp	r0, #0
20006130:	d0f5      	beq.n	2000611e <SetDir+0xa>
20006132:	7ae3      	ldrb	r3, [r4, #11]
20006134:	2bff      	cmp	r3, #255	@ 0xff
20006136:	d0f2      	beq.n	2000611e <SetDir+0xa>
20006138:	06da      	lsls	r2, r3, #27
2000613a:	d5f0      	bpl.n	2000611e <SetDir+0xa>
2000613c:	2b90      	cmp	r3, #144	@ 0x90
2000613e:	4d07      	ldr	r5, [pc, #28]	@ (2000615c <SetDir+0x48>)
20006140:	d102      	bne.n	20006148 <SetDir+0x34>
20006142:	69e3      	ldr	r3, [r4, #28]
20006144:	602b      	str	r3, [r5, #0]
20006146:	e7eb      	b.n	20006120 <SetDir+0xc>
20006148:	68e0      	ldr	r0, [r4, #12]
2000614a:	f7fe fc01 	bl	20004950 <Disk_LoadStartClust>
2000614e:	6028      	str	r0, [r5, #0]
20006150:	e7e6      	b.n	20006120 <SetDir+0xc>
20006152:	bf00      	nop
20006154:	200323fc 	.word	0x200323fc
20006158:	2000ab94 	.word	0x2000ab94
2000615c:	2000ab3c 	.word	0x2000ab3c

20006160 <FindOpen>:
20006160:	b510      	push	{r4, lr}
20006162:	4b11      	ldr	r3, [pc, #68]	@ (200061a8 <FindOpen+0x48>)
20006164:	4604      	mov	r4, r0
20006166:	781b      	ldrb	r3, [r3, #0]
20006168:	b913      	cbnz	r3, 20006170 <FindOpen+0x10>
2000616a:	2000      	movs	r0, #0
2000616c:	7020      	strb	r0, [r4, #0]
2000616e:	bd10      	pop	{r4, pc}
20006170:	2800      	cmp	r0, #0
20006172:	d0fa      	beq.n	2000616a <FindOpen+0xa>
20006174:	f7ff ff22 	bl	20005fbc <Disk_FollowPath>
20006178:	2800      	cmp	r0, #0
2000617a:	d0f6      	beq.n	2000616a <FindOpen+0xa>
2000617c:	7ae3      	ldrb	r3, [r4, #11]
2000617e:	2bff      	cmp	r3, #255	@ 0xff
20006180:	d0f3      	beq.n	2000616a <FindOpen+0xa>
20006182:	06da      	lsls	r2, r3, #27
20006184:	d5f1      	bpl.n	2000616a <FindOpen+0xa>
20006186:	2b90      	cmp	r3, #144	@ 0x90
20006188:	d00a      	beq.n	200061a0 <FindOpen+0x40>
2000618a:	68e0      	ldr	r0, [r4, #12]
2000618c:	f7fe fbe0 	bl	20004950 <Disk_LoadStartClust>
20006190:	61e0      	str	r0, [r4, #28]
20006192:	2100      	movs	r1, #0
20006194:	4620      	mov	r0, r4
20006196:	f7ff fa45 	bl	20005624 <Disk_DirInx>
2000619a:	2800      	cmp	r0, #0
2000619c:	d1e7      	bne.n	2000616e <FindOpen+0xe>
2000619e:	e7e4      	b.n	2000616a <FindOpen+0xa>
200061a0:	232e      	movs	r3, #46	@ 0x2e
200061a2:	7023      	strb	r3, [r4, #0]
200061a4:	e7f5      	b.n	20006192 <FindOpen+0x32>
200061a6:	bf00      	nop
200061a8:	200323fc 	.word	0x200323fc

200061ac <FileExist>:
200061ac:	b510      	push	{r4, lr}
200061ae:	4b09      	ldr	r3, [pc, #36]	@ (200061d4 <FileExist+0x28>)
200061b0:	4601      	mov	r1, r0
200061b2:	781b      	ldrb	r3, [r3, #0]
200061b4:	b90b      	cbnz	r3, 200061ba <FileExist+0xe>
200061b6:	2000      	movs	r0, #0
200061b8:	bd10      	pop	{r4, pc}
200061ba:	4c07      	ldr	r4, [pc, #28]	@ (200061d8 <FileExist+0x2c>)
200061bc:	4620      	mov	r0, r4
200061be:	f7ff fefd 	bl	20005fbc <Disk_FollowPath>
200061c2:	2800      	cmp	r0, #0
200061c4:	d0f7      	beq.n	200061b6 <FileExist+0xa>
200061c6:	7ae0      	ldrb	r0, [r4, #11]
200061c8:	28ff      	cmp	r0, #255	@ 0xff
200061ca:	d0f4      	beq.n	200061b6 <FileExist+0xa>
200061cc:	3890      	subs	r0, #144	@ 0x90
200061ce:	bf18      	it	ne
200061d0:	2001      	movne	r0, #1
200061d2:	e7f1      	b.n	200061b8 <FileExist+0xc>
200061d4:	200323fc 	.word	0x200323fc
200061d8:	2000ab94 	.word	0x2000ab94

200061dc <FindNext>:
200061dc:	b5f8      	push	{r3, r4, r5, r6, r7, lr}
200061de:	4604      	mov	r4, r0
200061e0:	460d      	mov	r5, r1
200061e2:	4616      	mov	r6, r2
200061e4:	461f      	mov	r7, r3
200061e6:	6aa3      	ldr	r3, [r4, #40]	@ 0x28
200061e8:	b1d3      	cbz	r3, 20006220 <FindNext+0x44>
200061ea:	4631      	mov	r1, r6
200061ec:	4620      	mov	r0, r4
200061ee:	f7ff fea3 	bl	20005f38 <Disk_DirRead>
200061f2:	b1a8      	cbz	r0, 20006220 <FindNext+0x44>
200061f4:	68e1      	ldr	r1, [r4, #12]
200061f6:	4638      	mov	r0, r7
200061f8:	f7fe fc12 	bl	20004a20 <Disk_Match>
200061fc:	4601      	mov	r1, r0
200061fe:	b158      	cbz	r0, 20006218 <FindNext+0x3c>
20006200:	4629      	mov	r1, r5
20006202:	4620      	mov	r0, r4
20006204:	f7fe fbba 	bl	2000497c <Disk_GetFileInfo>
20006208:	4605      	mov	r5, r0
2000620a:	b148      	cbz	r0, 20006220 <FindNext+0x44>
2000620c:	2100      	movs	r1, #0
2000620e:	4620      	mov	r0, r4
20006210:	f7ff fe08 	bl	20005e24 <Disk_DirNext>
20006214:	4628      	mov	r0, r5
20006216:	bdf8      	pop	{r3, r4, r5, r6, r7, pc}
20006218:	4620      	mov	r0, r4
2000621a:	f7ff fe03 	bl	20005e24 <Disk_DirNext>
2000621e:	e7e2      	b.n	200061e6 <FindNext+0xa>
20006220:	2500      	movs	r5, #0
20006222:	e7f7      	b.n	20006214 <FindNext+0x38>

20006224 <FileWrite>:
20006224:	e92d 4ff8 	stmdb	sp!, {r3, r4, r5, r6, r7, r8, r9, sl, fp, lr}
20006228:	4689      	mov	r9, r1
2000622a:	4604      	mov	r4, r0
2000622c:	2800      	cmp	r0, #0
2000622e:	d074      	beq.n	2000631a <FileWrite+0xf6>
20006230:	7805      	ldrb	r5, [r0, #0]
20006232:	b32d      	cbz	r5, 20006280 <FileWrite+0x5c>
20006234:	6a03      	ldr	r3, [r0, #32]
20006236:	2500      	movs	r5, #0
20006238:	ea6f 0803 	mvn.w	r8, r3
2000623c:	4590      	cmp	r8, r2
2000623e:	bf28      	it	cs
20006240:	4690      	movcs	r8, r2
20006242:	f8df a0e4 	ldr.w	sl, [pc, #228]	@ 20006328 <FileWrite+0x104>
20006246:	4f36      	ldr	r7, [pc, #216]	@ (20006320 <FileWrite+0xfc>)
20006248:	45a8      	cmp	r8, r5
2000624a:	d915      	bls.n	20006278 <FileWrite+0x54>
2000624c:	6a23      	ldr	r3, [r4, #32]
2000624e:	f3c3 0208 	ubfx	r2, r3, #0, #9
20006252:	2a00      	cmp	r2, #0
20006254:	d149      	bne.n	200062ea <FileWrite+0xc6>
20006256:	4a33      	ldr	r2, [pc, #204]	@ (20006324 <FileWrite+0x100>)
20006258:	7816      	ldrb	r6, [r2, #0]
2000625a:	3e01      	subs	r6, #1
2000625c:	ea16 2653 	ands.w	r6, r6, r3, lsr #9
20006260:	d117      	bne.n	20006292 <FileWrite+0x6e>
20006262:	b983      	cbnz	r3, 20006286 <FileWrite+0x62>
20006264:	69e2      	ldr	r2, [r4, #28]
20006266:	b91a      	cbnz	r2, 20006270 <FileWrite+0x4c>
20006268:	4610      	mov	r0, r2
2000626a:	f7ff fad1 	bl	20005810 <Disk_CreateFat>
2000626e:	4602      	mov	r2, r0
20006270:	4610      	mov	r0, r2
20006272:	f7fe fb37 	bl	200048e4 <Disk_ClustValid>
20006276:	b940      	cbnz	r0, 2000628a <FileWrite+0x66>
20006278:	7ae3      	ldrb	r3, [r4, #11]
2000627a:	f043 0340 	orr.w	r3, r3, #64	@ 0x40
2000627e:	72e3      	strb	r3, [r4, #11]
20006280:	4628      	mov	r0, r5
20006282:	e8bd 8ff8 	ldmia.w	sp!, {r3, r4, r5, r6, r7, r8, r9, sl, fp, pc}
20006286:	6a60      	ldr	r0, [r4, #36]	@ 0x24
20006288:	e7ef      	b.n	2000626a <FileWrite+0x46>
2000628a:	69e3      	ldr	r3, [r4, #28]
2000628c:	6262      	str	r2, [r4, #36]	@ 0x24
2000628e:	b903      	cbnz	r3, 20006292 <FileWrite+0x6e>
20006290:	61e2      	str	r2, [r4, #28]
20006292:	6a60      	ldr	r0, [r4, #36]	@ 0x24
20006294:	f7fe fb4a 	bl	2000492c <Disk_ClustSect>
20006298:	2800      	cmp	r0, #0
2000629a:	d0ed      	beq.n	20006278 <FileWrite+0x54>
2000629c:	eba8 0b05 	sub.w	fp, r8, r5
200062a0:	f5bb 7f00 	cmp.w	fp, #512	@ 0x200
200062a4:	4406      	add	r6, r0
200062a6:	d313      	bcc.n	200062d0 <FileWrite+0xac>
200062a8:	4649      	mov	r1, r9
200062aa:	4630      	mov	r0, r6
200062ac:	f7ff f8c4 	bl	20005438 <SDWriteSect>
200062b0:	2800      	cmp	r0, #0
200062b2:	d0e1      	beq.n	20006278 <FileWrite+0x54>
200062b4:	f44f 7b00 	mov.w	fp, #512	@ 0x200
200062b8:	62a6      	str	r6, [r4, #40]	@ 0x28
200062ba:	6a23      	ldr	r3, [r4, #32]
200062bc:	445d      	add	r5, fp
200062be:	eb0b 0203 	add.w	r2, fp, r3
200062c2:	69a3      	ldr	r3, [r4, #24]
200062c4:	44d9      	add	r9, fp
200062c6:	429a      	cmp	r2, r3
200062c8:	6222      	str	r2, [r4, #32]
200062ca:	bf88      	it	hi
200062cc:	61a2      	strhi	r2, [r4, #24]
200062ce:	e7bb      	b.n	20006248 <FileWrite+0x24>
200062d0:	4630      	mov	r0, r6
200062d2:	f7ff f92f 	bl	20005534 <Disk_MoveBuf>
200062d6:	2800      	cmp	r0, #0
200062d8:	d0ce      	beq.n	20006278 <FileWrite+0x54>
200062da:	465a      	mov	r2, fp
200062dc:	4649      	mov	r1, r9
200062de:	4650      	mov	r0, sl
200062e0:	f003 f832 	bl	20009348 <memcpy>
200062e4:	2301      	movs	r3, #1
200062e6:	703b      	strb	r3, [r7, #0]
200062e8:	e7e6      	b.n	200062b8 <FileWrite+0x94>
200062ea:	f5c2 7200 	rsb	r2, r2, #512	@ 0x200
200062ee:	eba8 0305 	sub.w	r3, r8, r5
200062f2:	429a      	cmp	r2, r3
200062f4:	bf28      	it	cs
200062f6:	461a      	movcs	r2, r3
200062f8:	6aa0      	ldr	r0, [r4, #40]	@ 0x28
200062fa:	4693      	mov	fp, r2
200062fc:	f7ff f91a 	bl	20005534 <Disk_MoveBuf>
20006300:	2800      	cmp	r0, #0
20006302:	d0b9      	beq.n	20006278 <FileWrite+0x54>
20006304:	6a20      	ldr	r0, [r4, #32]
20006306:	465a      	mov	r2, fp
20006308:	f3c0 0008 	ubfx	r0, r0, #0, #9
2000630c:	4649      	mov	r1, r9
2000630e:	4450      	add	r0, sl
20006310:	f003 f81a 	bl	20009348 <memcpy>
20006314:	2301      	movs	r3, #1
20006316:	703b      	strb	r3, [r7, #0]
20006318:	e7cf      	b.n	200062ba <FileWrite+0x96>
2000631a:	4605      	mov	r5, r0
2000631c:	e7b0      	b.n	20006280 <FileWrite+0x5c>
2000631e:	bf00      	nop
20006320:	200323fb 	.word	0x200323fb
20006324:	200323d7 	.word	0x200323d7
20006328:	2000abc4 	.word	0x2000abc4

2000632c <SDInit>:
2000632c:	b538      	push	{r3, r4, r5, lr}
2000632e:	4919      	ldr	r1, [pc, #100]	@ (20006394 <SDInit+0x68>)
20006330:	4d19      	ldr	r5, [pc, #100]	@ (20006398 <SDInit+0x6c>)
20006332:	481a      	ldr	r0, [pc, #104]	@ (2000639c <SDInit+0x70>)
20006334:	f7fb fbee 	bl	20001b14 <SPI_Init_hw>
20006338:	2101      	movs	r1, #1
2000633a:	200c      	movs	r0, #12
2000633c:	f7fb f8f0 	bl	20001520 <GPIO_Fnc>
20006340:	6b6b      	ldr	r3, [r5, #52]	@ 0x34
20006342:	4c17      	ldr	r4, [pc, #92]	@ (200063a0 <SDInit+0x74>)
20006344:	f083 0308 	eor.w	r3, r3, #8
20006348:	f003 030c 	and.w	r3, r3, #12
2000634c:	6363      	str	r3, [r4, #52]	@ 0x34
2000634e:	2101      	movs	r1, #1
20006350:	200a      	movs	r0, #10
20006352:	f7fb f8e5 	bl	20001520 <GPIO_Fnc>
20006356:	6aeb      	ldr	r3, [r5, #44]	@ 0x2c
20006358:	2101      	movs	r1, #1
2000635a:	f083 0308 	eor.w	r3, r3, #8
2000635e:	f003 030c 	and.w	r3, r3, #12
20006362:	62e3      	str	r3, [r4, #44]	@ 0x2c
20006364:	200b      	movs	r0, #11
20006366:	f7fb f8db 	bl	20001520 <GPIO_Fnc>
2000636a:	6b2b      	ldr	r3, [r5, #48]	@ 0x30
2000636c:	200d      	movs	r0, #13
2000636e:	f083 0308 	eor.w	r3, r3, #8
20006372:	f003 030c 	and.w	r3, r3, #12
20006376:	6323      	str	r3, [r4, #48]	@ 0x30
20006378:	f7fb f95c 	bl	20001634 <GPIO_Init>
2000637c:	6bab      	ldr	r3, [r5, #56]	@ 0x38
2000637e:	f083 0308 	eor.w	r3, r3, #8
20006382:	f003 030c 	and.w	r3, r3, #12
20006386:	63a3      	str	r3, [r4, #56]	@ 0x38
20006388:	230d      	movs	r3, #13
2000638a:	eec0 3010 			@ <UNDEFINED> instruction: 0xeec03010
2000638e:	eec0 3014 			@ <UNDEFINED> instruction: 0xeec03014
20006392:	bd38      	pop	{r3, r4, r5, pc}
20006394:	0003d090 	.word	0x0003d090
20006398:	40038000 	.word	0x40038000
2000639c:	40088000 	.word	0x40088000
200063a0:	40039000 	.word	0x40039000

200063a4 <SDTerm>:
200063a4:	b510      	push	{r4, lr}
200063a6:	240d      	movs	r4, #13
200063a8:	eec0 4010 			@ <UNDEFINED> instruction: 0xeec04010
200063ac:	4808      	ldr	r0, [pc, #32]	@ (200063d0 <SDTerm+0x2c>)
200063ae:	f7fb fb45 	bl	20001a3c <SPI_Term_hw>
200063b2:	200c      	movs	r0, #12
200063b4:	f7fb f90e 	bl	200015d4 <GPIO_Reset>
200063b8:	200a      	movs	r0, #10
200063ba:	f7fb f90b 	bl	200015d4 <GPIO_Reset>
200063be:	200b      	movs	r0, #11
200063c0:	f7fb f908 	bl	200015d4 <GPIO_Reset>
200063c4:	4620      	mov	r0, r4
200063c6:	e8bd 4010 	ldmia.w	sp!, {r4, lr}
200063ca:	f7fb b903 	b.w	200015d4 <GPIO_Reset>
200063ce:	bf00      	nop
200063d0:	40088000 	.word	0x40088000

200063d4 <StrLen>:
200063d4:	b130      	cbz	r0, 200063e4 <StrLen+0x10>
200063d6:	4603      	mov	r3, r0
200063d8:	f813 2b01 	ldrb.w	r2, [r3], #1
200063dc:	2a00      	cmp	r2, #0
200063de:	d1fb      	bne.n	200063d8 <StrLen+0x4>
200063e0:	1a1b      	subs	r3, r3, r0
200063e2:	1e58      	subs	r0, r3, #1
200063e4:	4770      	bx	lr
	...

200063e8 <StreamPrintArg>:
200063e8:	e92d 4ff0 	stmdb	sp!, {r4, r5, r6, r7, r8, r9, sl, fp, lr}
200063ec:	68cb      	ldr	r3, [r1, #12]
200063ee:	b0a9      	sub	sp, #164	@ 0xa4
200063f0:	4681      	mov	r9, r0
200063f2:	4690      	mov	r8, r2
200063f4:	9108      	str	r1, [sp, #32]
200063f6:	b10b      	cbz	r3, 200063fc <StreamPrintArg+0x14>
200063f8:	4608      	mov	r0, r1
200063fa:	4798      	blx	r3
200063fc:	f8d9 300c 	ldr.w	r3, [r9, #12]
20006400:	b10b      	cbz	r3, 20006406 <StreamPrintArg+0x1e>
20006402:	4648      	mov	r0, r9
20006404:	4798      	blx	r3
20006406:	2300      	movs	r3, #0
20006408:	ac13      	add	r4, sp, #76	@ 0x4c
2000640a:	930d      	str	r3, [sp, #52]	@ 0x34
2000640c:	9302      	str	r3, [sp, #8]
2000640e:	9305      	str	r3, [sp, #20]
20006410:	f04f 0300 	mov.w	r3, #0
20006414:	f88d 304a 	strb.w	r3, [sp, #74]	@ 0x4a
20006418:	9b08      	ldr	r3, [sp, #32]
2000641a:	2201      	movs	r2, #1
2000641c:	699b      	ldr	r3, [r3, #24]
2000641e:	9808      	ldr	r0, [sp, #32]
20006420:	f10d 014a 	add.w	r1, sp, #74	@ 0x4a
20006424:	4798      	blx	r3
20006426:	f89d 304a 	ldrb.w	r3, [sp, #74]	@ 0x4a
2000642a:	2b00      	cmp	r3, #0
2000642c:	f001 8202 	beq.w	20007834 <StreamPrintArg+0x144c>
20006430:	2b25      	cmp	r3, #37	@ 0x25
20006432:	d00c      	beq.n	2000644e <StreamPrintArg+0x66>
20006434:	f88d 304b 	strb.w	r3, [sp, #75]	@ 0x4b
20006438:	2201      	movs	r2, #1
2000643a:	f8d9 3014 	ldr.w	r3, [r9, #20]
2000643e:	4648      	mov	r0, r9
20006440:	f10d 014b 	add.w	r1, sp, #75	@ 0x4b
20006444:	4798      	blx	r3
20006446:	9b02      	ldr	r3, [sp, #8]
20006448:	3301      	adds	r3, #1
2000644a:	9302      	str	r3, [sp, #8]
2000644c:	e7e0      	b.n	20006410 <StreamPrintArg+0x28>
2000644e:	2300      	movs	r3, #0
20006450:	f04f 3bff 	mov.w	fp, #4294967295
20006454:	469a      	mov	sl, r3
20006456:	9303      	str	r3, [sp, #12]
20006458:	9304      	str	r3, [sp, #16]
2000645a:	9301      	str	r3, [sp, #4]
2000645c:	f88d a04a 	strb.w	sl, [sp, #74]	@ 0x4a
20006460:	f1ba 0f00 	cmp.w	sl, #0
20006464:	d106      	bne.n	20006474 <StreamPrintArg+0x8c>
20006466:	9b08      	ldr	r3, [sp, #32]
20006468:	2201      	movs	r2, #1
2000646a:	699b      	ldr	r3, [r3, #24]
2000646c:	9808      	ldr	r0, [sp, #32]
2000646e:	f10d 014a 	add.w	r1, sp, #74	@ 0x4a
20006472:	4798      	blx	r3
20006474:	f89d a04a 	ldrb.w	sl, [sp, #74]	@ 0x4a
20006478:	f1ba 0f00 	cmp.w	sl, #0
2000647c:	f001 815b 	beq.w	20007736 <StreamPrintArg+0x134e>
20006480:	f1aa 0320 	sub.w	r3, sl, #32
20006484:	b2da      	uxtb	r2, r3
20006486:	2a58      	cmp	r2, #88	@ 0x58
20006488:	f201 8142 	bhi.w	20007710 <StreamPrintArg+0x1328>
2000648c:	2b58      	cmp	r3, #88	@ 0x58
2000648e:	f201 813f 	bhi.w	20007710 <StreamPrintArg+0x1328>
20006492:	e8df f013 	tbh	[pc, r3, lsl #1]
20006496:	005e      	.short	0x005e
20006498:	093d093d 	.word	0x093d093d
2000649c:	093d0066 	.word	0x093d0066
200064a0:	093d093d 	.word	0x093d093d
200064a4:	093d0059 	.word	0x093d0059
200064a8:	006a093d 	.word	0x006a093d
200064ac:	093d0941 	.word	0x093d0941
200064b0:	00780074 	.word	0x00780074
200064b4:	00ac093d 	.word	0x00ac093d
200064b8:	00b000b0 	.word	0x00b000b0
200064bc:	00b000b0 	.word	0x00b000b0
200064c0:	00b000b0 	.word	0x00b000b0
200064c4:	00b000b0 	.word	0x00b000b0
200064c8:	093d00b0 	.word	0x093d00b0
200064cc:	093d093d 	.word	0x093d093d
200064d0:	093d093d 	.word	0x093d093d
200064d4:	093d093d 	.word	0x093d093d
200064d8:	031c093d 	.word	0x031c093d
200064dc:	093d093d 	.word	0x093d093d
200064e0:	031c031c 	.word	0x031c031c
200064e4:	093d031c 	.word	0x093d031c
200064e8:	093d093d 	.word	0x093d093d
200064ec:	093d093d 	.word	0x093d093d
200064f0:	093d01c4 	.word	0x093d01c4
200064f4:	07e8093d 	.word	0x07e8093d
200064f8:	093d093d 	.word	0x093d093d
200064fc:	031c093d 	.word	0x031c093d
20006500:	093d093d 	.word	0x093d093d
20006504:	0872093d 	.word	0x0872093d
20006508:	093d093d 	.word	0x093d093d
2000650c:	093d093d 	.word	0x093d093d
20006510:	093d093d 	.word	0x093d093d
20006514:	093d093d 	.word	0x093d093d
20006518:	07d3093d 	.word	0x07d3093d
2000651c:	02a300e4 	.word	0x02a300e4
20006520:	031c031c 	.word	0x031c031c
20006524:	093d031c 	.word	0x093d031c
20006528:	093d02a3 	.word	0x093d02a3
2000652c:	00cd093d 	.word	0x00cd093d
20006530:	093d00fb 	.word	0x093d00fb
20006534:	07ec07bc 	.word	0x07ec07bc
20006538:	093d093d 	.word	0x093d093d
2000653c:	031c083a 	.word	0x031c083a
20006540:	093d085f 	.word	0x093d085f
20006544:	0876093d 	.word	0x0876093d
20006548:	9b01      	ldr	r3, [sp, #4]
2000654a:	f043 0340 	orr.w	r3, r3, #64	@ 0x40
2000654e:	9301      	str	r3, [sp, #4]
20006550:	e003      	b.n	2000655a <StreamPrintArg+0x172>
20006552:	9b03      	ldr	r3, [sp, #12]
20006554:	2b00      	cmp	r3, #0
20006556:	f001 80ec 	beq.w	20007732 <StreamPrintArg+0x134a>
2000655a:	2300      	movs	r3, #0
2000655c:	f88d 304a 	strb.w	r3, [sp, #74]	@ 0x4a
20006560:	e781      	b.n	20006466 <StreamPrintArg+0x7e>
20006562:	9b01      	ldr	r3, [sp, #4]
20006564:	f043 0301 	orr.w	r3, r3, #1
20006568:	e7f1      	b.n	2000654e <StreamPrintArg+0x166>
2000656a:	4643      	mov	r3, r8
2000656c:	f853 2b04 	ldr.w	r2, [r3], #4
20006570:	2a00      	cmp	r2, #0
20006572:	9204      	str	r2, [sp, #16]
20006574:	f281 80d7 	bge.w	20007726 <StreamPrintArg+0x133e>
20006578:	4698      	mov	r8, r3
2000657a:	4252      	negs	r2, r2
2000657c:	9204      	str	r2, [sp, #16]
2000657e:	9b01      	ldr	r3, [sp, #4]
20006580:	f043 0304 	orr.w	r3, r3, #4
20006584:	e7e3      	b.n	2000654e <StreamPrintArg+0x166>
20006586:	f04f 0a00 	mov.w	sl, #0
2000658a:	9b08      	ldr	r3, [sp, #32]
2000658c:	2201      	movs	r2, #1
2000658e:	699b      	ldr	r3, [r3, #24]
20006590:	9808      	ldr	r0, [sp, #32]
20006592:	f10d 014a 	add.w	r1, sp, #74	@ 0x4a
20006596:	f88d a04a 	strb.w	sl, [sp, #74]	@ 0x4a
2000659a:	4798      	blx	r3
2000659c:	f89d 304a 	ldrb.w	r3, [sp, #74]	@ 0x4a
200065a0:	2b2a      	cmp	r3, #42	@ 0x2a
200065a2:	d11f      	bne.n	200065e4 <StreamPrintArg+0x1fc>
200065a4:	4643      	mov	r3, r8
200065a6:	f853 2b04 	ldr.w	r2, [r3], #4
200065aa:	4698      	mov	r8, r3
200065ac:	9205      	str	r2, [sp, #20]
200065ae:	9b05      	ldr	r3, [sp, #20]
200065b0:	ea83 7be3 	eor.w	fp, r3, r3, asr #31
200065b4:	ebab 7be3 	sub.w	fp, fp, r3, asr #31
200065b8:	e750      	b.n	2000645c <StreamPrintArg+0x74>
200065ba:	9a05      	ldr	r2, [sp, #20]
200065bc:	9808      	ldr	r0, [sp, #32]
200065be:	fb05 3302 	mla	r3, r5, r2, r3
200065c2:	9305      	str	r3, [sp, #20]
200065c4:	9b08      	ldr	r3, [sp, #32]
200065c6:	2201      	movs	r2, #1
200065c8:	699b      	ldr	r3, [r3, #24]
200065ca:	f10d 014a 	add.w	r1, sp, #74	@ 0x4a
200065ce:	f88d 604a 	strb.w	r6, [sp, #74]	@ 0x4a
200065d2:	4798      	blx	r3
200065d4:	f89d a04a 	ldrb.w	sl, [sp, #74]	@ 0x4a
200065d8:	f1aa 0330 	sub.w	r3, sl, #48	@ 0x30
200065dc:	b2da      	uxtb	r2, r3
200065de:	2a09      	cmp	r2, #9
200065e0:	d9eb      	bls.n	200065ba <StreamPrintArg+0x1d2>
200065e2:	e7e4      	b.n	200065ae <StreamPrintArg+0x1c6>
200065e4:	250a      	movs	r5, #10
200065e6:	4656      	mov	r6, sl
200065e8:	f8cd a014 	str.w	sl, [sp, #20]
200065ec:	e7f2      	b.n	200065d4 <StreamPrintArg+0x1ec>
200065ee:	9b01      	ldr	r3, [sp, #4]
200065f0:	f043 0310 	orr.w	r3, r3, #16
200065f4:	e7ab      	b.n	2000654e <StreamPrintArg+0x166>
200065f6:	2300      	movs	r3, #0
200065f8:	250a      	movs	r5, #10
200065fa:	9305      	str	r3, [sp, #20]
200065fc:	9a05      	ldr	r2, [sp, #20]
200065fe:	f1aa 0330 	sub.w	r3, sl, #48	@ 0x30
20006602:	fb05 3302 	mla	r3, r5, r2, r3
20006606:	9305      	str	r3, [sp, #20]
20006608:	f04f 0300 	mov.w	r3, #0
2000660c:	f88d 304a 	strb.w	r3, [sp, #74]	@ 0x4a
20006610:	9b08      	ldr	r3, [sp, #32]
20006612:	2201      	movs	r2, #1
20006614:	699b      	ldr	r3, [r3, #24]
20006616:	9808      	ldr	r0, [sp, #32]
20006618:	f10d 014a 	add.w	r1, sp, #74	@ 0x4a
2000661c:	4798      	blx	r3
2000661e:	f89d a04a 	ldrb.w	sl, [sp, #74]	@ 0x4a
20006622:	f1aa 0330 	sub.w	r3, sl, #48	@ 0x30
20006626:	2b09      	cmp	r3, #9
20006628:	d9e8      	bls.n	200065fc <StreamPrintArg+0x214>
2000662a:	9b05      	ldr	r3, [sp, #20]
2000662c:	9304      	str	r3, [sp, #16]
2000662e:	e715      	b.n	2000645c <StreamPrintArg+0x74>
20006630:	2500      	movs	r5, #0
20006632:	9b08      	ldr	r3, [sp, #32]
20006634:	2201      	movs	r2, #1
20006636:	699b      	ldr	r3, [r3, #24]
20006638:	9808      	ldr	r0, [sp, #32]
2000663a:	f10d 014a 	add.w	r1, sp, #74	@ 0x4a
2000663e:	f88d 504a 	strb.w	r5, [sp, #74]	@ 0x4a
20006642:	4798      	blx	r3
20006644:	f89d a04a 	ldrb.w	sl, [sp, #74]	@ 0x4a
20006648:	f1ba 0f6c 	cmp.w	sl, #108	@ 0x6c
2000664c:	f47f af06 	bne.w	2000645c <StreamPrintArg+0x74>
20006650:	9b01      	ldr	r3, [sp, #4]
20006652:	f88d 504a 	strb.w	r5, [sp, #74]	@ 0x4a
20006656:	f043 0308 	orr.w	r3, r3, #8
2000665a:	9301      	str	r3, [sp, #4]
2000665c:	e703      	b.n	20006466 <StreamPrintArg+0x7e>
2000665e:	9b01      	ldr	r3, [sp, #4]
20006660:	071f      	lsls	r7, r3, #28
20006662:	bf5b      	ittet	pl
20006664:	4643      	movpl	r3, r8
20006666:	f813 2b04 	ldrbpl.w	r2, [r3], #4
2000666a:	f108 0307 	addmi.w	r3, r8, #7
2000666e:	4698      	movpl	r8, r3
20006670:	bf44      	itt	mi
20006672:	f023 0807 	bicmi.w	r8, r3, #7
20006676:	f818 2b08 	ldrbmi.w	r2, [r8], #8
2000667a:	f88d 204c 	strb.w	r2, [sp, #76]	@ 0x4c
2000667e:	f04f 0b00 	mov.w	fp, #0
20006682:	2501      	movs	r5, #1
20006684:	f8cd b00c 	str.w	fp, [sp, #12]
20006688:	ac13      	add	r4, sp, #76	@ 0x4c
2000668a:	e257      	b.n	20006b3c <StreamPrintArg+0x754>
2000668c:	46c2      	mov	sl, r8
2000668e:	f85a 7b04 	ldr.w	r7, [sl], #4
20006692:	2f00      	cmp	r7, #0
20006694:	f000 8749 	beq.w	2000752a <StreamPrintArg+0x1142>
20006698:	9b04      	ldr	r3, [sp, #16]
2000669a:	f1bb 3fff 	cmp.w	fp, #4294967295
2000669e:	bf08      	it	eq
200066a0:	f04f 0b08 	moveq.w	fp, #8
200066a4:	2b00      	cmp	r3, #0
200066a6:	bfd8      	it	le
200066a8:	2310      	movle	r3, #16
200066aa:	2500      	movs	r5, #0
200066ac:	9304      	str	r3, [sp, #16]
200066ae:	9b01      	ldr	r3, [sp, #4]
200066b0:	f003 0301 	and.w	r3, r3, #1
200066b4:	9306      	str	r3, [sp, #24]
200066b6:	9b01      	ldr	r3, [sp, #4]
200066b8:	f003 0340 	and.w	r3, r3, #64	@ 0x40
200066bc:	9305      	str	r3, [sp, #20]
200066be:	f1bb 0f00 	cmp.w	fp, #0
200066c2:	d106      	bne.n	200066d2 <StreamPrintArg+0x2ea>
200066c4:	2300      	movs	r3, #0
200066c6:	46d0      	mov	r8, sl
200066c8:	469b      	mov	fp, r3
200066ca:	461d      	mov	r5, r3
200066cc:	9304      	str	r3, [sp, #16]
200066ce:	9303      	str	r3, [sp, #12]
200066d0:	e234      	b.n	20006b3c <StreamPrintArg+0x754>
200066d2:	9b06      	ldr	r3, [sp, #24]
200066d4:	f817 6b01 	ldrb.w	r6, [r7], #1
200066d8:	2b00      	cmp	r3, #0
200066da:	d04d      	beq.n	20006778 <StreamPrintArg+0x390>
200066dc:	4631      	mov	r1, r6
200066de:	2200      	movs	r2, #0
200066e0:	a813      	add	r0, sp, #76	@ 0x4c
200066e2:	f7fd fc81 	bl	20003fe8 <DecUNum>
200066e6:	f04f 0800 	mov.w	r8, #0
200066ea:	9003      	str	r0, [sp, #12]
200066ec:	ae13      	add	r6, sp, #76	@ 0x4c
200066ee:	9b03      	ldr	r3, [sp, #12]
200066f0:	4598      	cmp	r8, r3
200066f2:	db33      	blt.n	2000675c <StreamPrintArg+0x374>
200066f4:	e9dd 3202 	ldrd	r3, r2, [sp, #8]
200066f8:	2a00      	cmp	r2, #0
200066fa:	bfa8      	it	ge
200066fc:	189b      	addge	r3, r3, r2
200066fe:	f1bb 0f01 	cmp.w	fp, #1
20006702:	9302      	str	r3, [sp, #8]
20006704:	f105 0501 	add.w	r5, r5, #1
20006708:	d079      	beq.n	200067fe <StreamPrintArg+0x416>
2000670a:	9a05      	ldr	r2, [sp, #20]
2000670c:	f8d9 3014 	ldr.w	r3, [r9, #20]
20006710:	2a00      	cmp	r2, #0
20006712:	d166      	bne.n	200067e2 <StreamPrintArg+0x3fa>
20006714:	222c      	movs	r2, #44	@ 0x2c
20006716:	4648      	mov	r0, r9
20006718:	f88d 204b 	strb.w	r2, [sp, #75]	@ 0x4b
2000671c:	f10d 014b 	add.w	r1, sp, #75	@ 0x4b
20006720:	2201      	movs	r2, #1
20006722:	4798      	blx	r3
20006724:	9b04      	ldr	r3, [sp, #16]
20006726:	42ab      	cmp	r3, r5
20006728:	dc6c      	bgt.n	20006804 <StreamPrintArg+0x41c>
2000672a:	230a      	movs	r3, #10
2000672c:	2201      	movs	r2, #1
2000672e:	f88d 304b 	strb.w	r3, [sp, #75]	@ 0x4b
20006732:	f10d 014b 	add.w	r1, sp, #75	@ 0x4b
20006736:	f8d9 3014 	ldr.w	r3, [r9, #20]
2000673a:	4648      	mov	r0, r9
2000673c:	4798      	blx	r3
2000673e:	2309      	movs	r3, #9
20006740:	2201      	movs	r2, #1
20006742:	f88d 304b 	strb.w	r3, [sp, #75]	@ 0x4b
20006746:	4648      	mov	r0, r9
20006748:	f8d9 3014 	ldr.w	r3, [r9, #20]
2000674c:	f10d 014b 	add.w	r1, sp, #75	@ 0x4b
20006750:	4798      	blx	r3
20006752:	9b02      	ldr	r3, [sp, #8]
20006754:	2500      	movs	r5, #0
20006756:	3303      	adds	r3, #3
20006758:	9302      	str	r3, [sp, #8]
2000675a:	e050      	b.n	200067fe <StreamPrintArg+0x416>
2000675c:	f816 3b01 	ldrb.w	r3, [r6], #1
20006760:	2201      	movs	r2, #1
20006762:	f88d 304b 	strb.w	r3, [sp, #75]	@ 0x4b
20006766:	4648      	mov	r0, r9
20006768:	f8d9 3014 	ldr.w	r3, [r9, #20]
2000676c:	f10d 014b 	add.w	r1, sp, #75	@ 0x4b
20006770:	4798      	blx	r3
20006772:	f108 0801 	add.w	r8, r8, #1
20006776:	e7ba      	b.n	200066ee <StreamPrintArg+0x306>
20006778:	9b05      	ldr	r3, [sp, #20]
2000677a:	b9b3      	cbnz	r3, 200067aa <StreamPrintArg+0x3c2>
2000677c:	9a02      	ldr	r2, [sp, #8]
2000677e:	f8d9 3014 	ldr.w	r3, [r9, #20]
20006782:	3202      	adds	r2, #2
20006784:	9202      	str	r2, [sp, #8]
20006786:	2230      	movs	r2, #48	@ 0x30
20006788:	f10d 014b 	add.w	r1, sp, #75	@ 0x4b
2000678c:	f88d 204b 	strb.w	r2, [sp, #75]	@ 0x4b
20006790:	4648      	mov	r0, r9
20006792:	2201      	movs	r2, #1
20006794:	4798      	blx	r3
20006796:	2378      	movs	r3, #120	@ 0x78
20006798:	2201      	movs	r2, #1
2000679a:	f88d 304b 	strb.w	r3, [sp, #75]	@ 0x4b
2000679e:	4648      	mov	r0, r9
200067a0:	f8d9 3014 	ldr.w	r3, [r9, #20]
200067a4:	f10d 014b 	add.w	r1, sp, #75	@ 0x4b
200067a8:	4798      	blx	r3
200067aa:	4a99      	ldr	r2, [pc, #612]	@ (20006a10 <StreamPrintArg+0x628>)
200067ac:	1133      	asrs	r3, r6, #4
200067ae:	5cd3      	ldrb	r3, [r2, r3]
200067b0:	f10d 014b 	add.w	r1, sp, #75	@ 0x4b
200067b4:	2201      	movs	r2, #1
200067b6:	f88d 304b 	strb.w	r3, [sp, #75]	@ 0x4b
200067ba:	4648      	mov	r0, r9
200067bc:	f8d9 3014 	ldr.w	r3, [r9, #20]
200067c0:	4798      	blx	r3
200067c2:	4a93      	ldr	r2, [pc, #588]	@ (20006a10 <StreamPrintArg+0x628>)
200067c4:	f006 060f 	and.w	r6, r6, #15
200067c8:	5d93      	ldrb	r3, [r2, r6]
200067ca:	4648      	mov	r0, r9
200067cc:	f88d 304b 	strb.w	r3, [sp, #75]	@ 0x4b
200067d0:	2201      	movs	r2, #1
200067d2:	f8d9 3014 	ldr.w	r3, [r9, #20]
200067d6:	f10d 014b 	add.w	r1, sp, #75	@ 0x4b
200067da:	4798      	blx	r3
200067dc:	9b02      	ldr	r3, [sp, #8]
200067de:	3302      	adds	r3, #2
200067e0:	e78d      	b.n	200066fe <StreamPrintArg+0x316>
200067e2:	222d      	movs	r2, #45	@ 0x2d
200067e4:	4648      	mov	r0, r9
200067e6:	f88d 204b 	strb.w	r2, [sp, #75]	@ 0x4b
200067ea:	f10d 014b 	add.w	r1, sp, #75	@ 0x4b
200067ee:	2201      	movs	r2, #1
200067f0:	4798      	blx	r3
200067f2:	9b04      	ldr	r3, [sp, #16]
200067f4:	42ab      	cmp	r3, r5
200067f6:	dd98      	ble.n	2000672a <StreamPrintArg+0x342>
200067f8:	9b02      	ldr	r3, [sp, #8]
200067fa:	3301      	adds	r3, #1
200067fc:	9302      	str	r3, [sp, #8]
200067fe:	f10b 3bff 	add.w	fp, fp, #4294967295
20006802:	e75c      	b.n	200066be <StreamPrintArg+0x2d6>
20006804:	2220      	movs	r2, #32
20006806:	f8d9 3014 	ldr.w	r3, [r9, #20]
2000680a:	f88d 204b 	strb.w	r2, [sp, #75]	@ 0x4b
2000680e:	4648      	mov	r0, r9
20006810:	2201      	movs	r2, #1
20006812:	f10d 014b 	add.w	r1, sp, #75	@ 0x4b
20006816:	4798      	blx	r3
20006818:	9b02      	ldr	r3, [sp, #8]
2000681a:	3302      	adds	r3, #2
2000681c:	e7ee      	b.n	200067fc <StreamPrintArg+0x414>
2000681e:	46c2      	mov	sl, r8
20006820:	f85a 3b04 	ldr.w	r3, [sl], #4
20006824:	9303      	str	r3, [sp, #12]
20006826:	2b00      	cmp	r3, #0
20006828:	f000 867f 	beq.w	2000752a <StreamPrintArg+0x1142>
2000682c:	9b04      	ldr	r3, [sp, #16]
2000682e:	f1bb 3fff 	cmp.w	fp, #4294967295
20006832:	bf08      	it	eq
20006834:	f04f 0b08 	moveq.w	fp, #8
20006838:	2b00      	cmp	r3, #0
2000683a:	bfd8      	it	le
2000683c:	2308      	movle	r3, #8
2000683e:	2500      	movs	r5, #0
20006840:	9304      	str	r3, [sp, #16]
20006842:	9b01      	ldr	r3, [sp, #4]
20006844:	4f72      	ldr	r7, [pc, #456]	@ (20006a10 <StreamPrintArg+0x628>)
20006846:	f003 0301 	and.w	r3, r3, #1
2000684a:	9309      	str	r3, [sp, #36]	@ 0x24
2000684c:	9b01      	ldr	r3, [sp, #4]
2000684e:	f003 0340 	and.w	r3, r3, #64	@ 0x40
20006852:	9306      	str	r3, [sp, #24]
20006854:	f1bb 0f00 	cmp.w	fp, #0
20006858:	f43f af34 	beq.w	200066c4 <StreamPrintArg+0x2dc>
2000685c:	9b03      	ldr	r3, [sp, #12]
2000685e:	f833 6b02 	ldrh.w	r6, [r3], #2
20006862:	9303      	str	r3, [sp, #12]
20006864:	9b09      	ldr	r3, [sp, #36]	@ 0x24
20006866:	2b00      	cmp	r3, #0
20006868:	d04f      	beq.n	2000690a <StreamPrintArg+0x522>
2000686a:	4631      	mov	r1, r6
2000686c:	2200      	movs	r2, #0
2000686e:	a813      	add	r0, sp, #76	@ 0x4c
20006870:	f7fd fbba 	bl	20003fe8 <DecUNum>
20006874:	f04f 0800 	mov.w	r8, #0
20006878:	9005      	str	r0, [sp, #20]
2000687a:	ae13      	add	r6, sp, #76	@ 0x4c
2000687c:	9b05      	ldr	r3, [sp, #20]
2000687e:	4598      	cmp	r8, r3
20006880:	db35      	blt.n	200068ee <StreamPrintArg+0x506>
20006882:	9b02      	ldr	r3, [sp, #8]
20006884:	9a05      	ldr	r2, [sp, #20]
20006886:	2a00      	cmp	r2, #0
20006888:	bfa8      	it	ge
2000688a:	189b      	addge	r3, r3, r2
2000688c:	f1bb 0f01 	cmp.w	fp, #1
20006890:	9302      	str	r3, [sp, #8]
20006892:	f105 0501 	add.w	r5, r5, #1
20006896:	f000 8091 	beq.w	200069bc <StreamPrintArg+0x5d4>
2000689a:	9a06      	ldr	r2, [sp, #24]
2000689c:	f8d9 3014 	ldr.w	r3, [r9, #20]
200068a0:	2a00      	cmp	r2, #0
200068a2:	d17d      	bne.n	200069a0 <StreamPrintArg+0x5b8>
200068a4:	222c      	movs	r2, #44	@ 0x2c
200068a6:	4648      	mov	r0, r9
200068a8:	f88d 204b 	strb.w	r2, [sp, #75]	@ 0x4b
200068ac:	f10d 014b 	add.w	r1, sp, #75	@ 0x4b
200068b0:	2201      	movs	r2, #1
200068b2:	4798      	blx	r3
200068b4:	9b04      	ldr	r3, [sp, #16]
200068b6:	42ab      	cmp	r3, r5
200068b8:	f300 8083 	bgt.w	200069c2 <StreamPrintArg+0x5da>
200068bc:	230a      	movs	r3, #10
200068be:	2201      	movs	r2, #1
200068c0:	f88d 304b 	strb.w	r3, [sp, #75]	@ 0x4b
200068c4:	f10d 014b 	add.w	r1, sp, #75	@ 0x4b
200068c8:	f8d9 3014 	ldr.w	r3, [r9, #20]
200068cc:	4648      	mov	r0, r9
200068ce:	4798      	blx	r3
200068d0:	2309      	movs	r3, #9
200068d2:	2201      	movs	r2, #1
200068d4:	f88d 304b 	strb.w	r3, [sp, #75]	@ 0x4b
200068d8:	4648      	mov	r0, r9
200068da:	f8d9 3014 	ldr.w	r3, [r9, #20]
200068de:	f10d 014b 	add.w	r1, sp, #75	@ 0x4b
200068e2:	4798      	blx	r3
200068e4:	9b02      	ldr	r3, [sp, #8]
200068e6:	2500      	movs	r5, #0
200068e8:	3303      	adds	r3, #3
200068ea:	9302      	str	r3, [sp, #8]
200068ec:	e066      	b.n	200069bc <StreamPrintArg+0x5d4>
200068ee:	f816 3b01 	ldrb.w	r3, [r6], #1
200068f2:	2201      	movs	r2, #1
200068f4:	f88d 304b 	strb.w	r3, [sp, #75]	@ 0x4b
200068f8:	4648      	mov	r0, r9
200068fa:	f8d9 3014 	ldr.w	r3, [r9, #20]
200068fe:	f10d 014b 	add.w	r1, sp, #75	@ 0x4b
20006902:	4798      	blx	r3
20006904:	f108 0801 	add.w	r8, r8, #1
20006908:	e7b8      	b.n	2000687c <StreamPrintArg+0x494>
2000690a:	9b06      	ldr	r3, [sp, #24]
2000690c:	b9b3      	cbnz	r3, 2000693c <StreamPrintArg+0x554>
2000690e:	2230      	movs	r2, #48	@ 0x30
20006910:	f8d9 3014 	ldr.w	r3, [r9, #20]
20006914:	f88d 204b 	strb.w	r2, [sp, #75]	@ 0x4b
20006918:	f10d 014b 	add.w	r1, sp, #75	@ 0x4b
2000691c:	2201      	movs	r2, #1
2000691e:	4648      	mov	r0, r9
20006920:	4798      	blx	r3
20006922:	2378      	movs	r3, #120	@ 0x78
20006924:	2201      	movs	r2, #1
20006926:	f88d 304b 	strb.w	r3, [sp, #75]	@ 0x4b
2000692a:	4648      	mov	r0, r9
2000692c:	f8d9 3014 	ldr.w	r3, [r9, #20]
20006930:	f10d 014b 	add.w	r1, sp, #75	@ 0x4b
20006934:	4798      	blx	r3
20006936:	9b02      	ldr	r3, [sp, #8]
20006938:	3302      	adds	r3, #2
2000693a:	9302      	str	r3, [sp, #8]
2000693c:	1333      	asrs	r3, r6, #12
2000693e:	5cfb      	ldrb	r3, [r7, r3]
20006940:	2201      	movs	r2, #1
20006942:	f88d 304b 	strb.w	r3, [sp, #75]	@ 0x4b
20006946:	f10d 014b 	add.w	r1, sp, #75	@ 0x4b
2000694a:	f8d9 3014 	ldr.w	r3, [r9, #20]
2000694e:	4648      	mov	r0, r9
20006950:	4798      	blx	r3
20006952:	f3c6 2303 	ubfx	r3, r6, #8, #4
20006956:	5cfb      	ldrb	r3, [r7, r3]
20006958:	2201      	movs	r2, #1
2000695a:	f88d 304b 	strb.w	r3, [sp, #75]	@ 0x4b
2000695e:	f10d 014b 	add.w	r1, sp, #75	@ 0x4b
20006962:	f8d9 3014 	ldr.w	r3, [r9, #20]
20006966:	4648      	mov	r0, r9
20006968:	4798      	blx	r3
2000696a:	f3c6 1303 	ubfx	r3, r6, #4, #4
2000696e:	5cfb      	ldrb	r3, [r7, r3]
20006970:	2201      	movs	r2, #1
20006972:	f88d 304b 	strb.w	r3, [sp, #75]	@ 0x4b
20006976:	f10d 014b 	add.w	r1, sp, #75	@ 0x4b
2000697a:	f8d9 3014 	ldr.w	r3, [r9, #20]
2000697e:	4648      	mov	r0, r9
20006980:	f006 060f 	and.w	r6, r6, #15
20006984:	4798      	blx	r3
20006986:	5dbb      	ldrb	r3, [r7, r6]
20006988:	2201      	movs	r2, #1
2000698a:	f88d 304b 	strb.w	r3, [sp, #75]	@ 0x4b
2000698e:	4648      	mov	r0, r9
20006990:	f8d9 3014 	ldr.w	r3, [r9, #20]
20006994:	f10d 014b 	add.w	r1, sp, #75	@ 0x4b
20006998:	4798      	blx	r3
2000699a:	9b02      	ldr	r3, [sp, #8]
2000699c:	3304      	adds	r3, #4
2000699e:	e775      	b.n	2000688c <StreamPrintArg+0x4a4>
200069a0:	222d      	movs	r2, #45	@ 0x2d
200069a2:	4648      	mov	r0, r9
200069a4:	f88d 204b 	strb.w	r2, [sp, #75]	@ 0x4b
200069a8:	f10d 014b 	add.w	r1, sp, #75	@ 0x4b
200069ac:	2201      	movs	r2, #1
200069ae:	4798      	blx	r3
200069b0:	9b04      	ldr	r3, [sp, #16]
200069b2:	42ab      	cmp	r3, r5
200069b4:	dd82      	ble.n	200068bc <StreamPrintArg+0x4d4>
200069b6:	9b02      	ldr	r3, [sp, #8]
200069b8:	3301      	adds	r3, #1
200069ba:	9302      	str	r3, [sp, #8]
200069bc:	f10b 3bff 	add.w	fp, fp, #4294967295
200069c0:	e748      	b.n	20006854 <StreamPrintArg+0x46c>
200069c2:	2220      	movs	r2, #32
200069c4:	f8d9 3014 	ldr.w	r3, [r9, #20]
200069c8:	f88d 204b 	strb.w	r2, [sp, #75]	@ 0x4b
200069cc:	4648      	mov	r0, r9
200069ce:	2201      	movs	r2, #1
200069d0:	f10d 014b 	add.w	r1, sp, #75	@ 0x4b
200069d4:	4798      	blx	r3
200069d6:	9b02      	ldr	r3, [sp, #8]
200069d8:	3302      	adds	r3, #2
200069da:	e7ee      	b.n	200069ba <StreamPrintArg+0x5d2>
200069dc:	9b01      	ldr	r3, [sp, #4]
200069de:	071e      	lsls	r6, r3, #28
200069e0:	bf51      	iteee	pl
200069e2:	4646      	movpl	r6, r8
200069e4:	f108 0307 	addmi.w	r3, r8, #7
200069e8:	f023 0307 	bicmi.w	r3, r3, #7
200069ec:	461e      	movmi	r6, r3
200069ee:	bf55      	itete	pl
200069f0:	f856 7b04 	ldrpl.w	r7, [r6], #4
200069f4:	685d      	ldrmi	r5, [r3, #4]
200069f6:	17fd      	asrpl	r5, r7, #31
200069f8:	f856 7b08 	ldrmi.w	r7, [r6], #8
200069fc:	2d00      	cmp	r5, #0
200069fe:	da09      	bge.n	20006a14 <StreamPrintArg+0x62c>
20006a00:	2302      	movs	r3, #2
20006a02:	222d      	movs	r2, #45	@ 0x2d
20006a04:	427f      	negs	r7, r7
20006a06:	eb65 0545 	sbc.w	r5, r5, r5, lsl #1
20006a0a:	9203      	str	r2, [sp, #12]
20006a0c:	e003      	b.n	20006a16 <StreamPrintArg+0x62e>
20006a0e:	bf00      	nop
20006a10:	20009a27 	.word	0x20009a27
20006a14:	2302      	movs	r3, #2
20006a16:	f1bb 3fff 	cmp.w	fp, #4294967295
20006a1a:	d00a      	beq.n	20006a32 <StreamPrintArg+0x64a>
20006a1c:	9a01      	ldr	r2, [sp, #4]
20006a1e:	f022 0210 	bic.w	r2, r2, #16
20006a22:	9201      	str	r2, [sp, #4]
20006a24:	ea57 0205 	orrs.w	r2, r7, r5
20006a28:	d103      	bne.n	20006a32 <StreamPrintArg+0x64a>
20006a2a:	f1bb 0f00 	cmp.w	fp, #0
20006a2e:	f000 866c 	beq.w	2000770a <StreamPrintArg+0x1322>
20006a32:	2b02      	cmp	r3, #2
20006a34:	f000 8620 	beq.w	20007678 <StreamPrintArg+0x1290>
20006a38:	2b03      	cmp	r3, #3
20006a3a:	f000 852a 	beq.w	20007492 <StreamPrintArg+0x10aa>
20006a3e:	2b01      	cmp	r3, #1
20006a40:	f04f 0300 	mov.w	r3, #0
20006a44:	9c01      	ldr	r4, [sp, #4]
20006a46:	4638      	mov	r0, r7
20006a48:	f004 0440 	and.w	r4, r4, #64	@ 0x40
20006a4c:	46ac      	mov	ip, r5
20006a4e:	f04f 0a27 	mov.w	sl, #39	@ 0x27
20006a52:	9305      	str	r3, [sp, #20]
20006a54:	f10d 029e 	add.w	r2, sp, #158	@ 0x9e
20006a58:	9406      	str	r4, [sp, #24]
20006a5a:	f000 85a9 	beq.w	200075b0 <StreamPrintArg+0x11c8>
20006a5e:	9905      	ldr	r1, [sp, #20]
20006a60:	f000 0e01 	and.w	lr, r0, #1
20006a64:	f10e 0e30 	add.w	lr, lr, #48	@ 0x30
20006a68:	3101      	adds	r1, #1
20006a6a:	f802 ec01 	strb.w	lr, [r2, #-1]
20006a6e:	9105      	str	r1, [sp, #20]
20006a70:	ea4f 0e50 	mov.w	lr, r0, lsr #1
20006a74:	9906      	ldr	r1, [sp, #24]
20006a76:	ea4e 7ecc 	orr.w	lr, lr, ip, lsl #31
20006a7a:	ea4f 085c 	mov.w	r8, ip, lsr #1
20006a7e:	4670      	mov	r0, lr
20006a80:	46c4      	mov	ip, r8
20006a82:	1e54      	subs	r4, r2, #1
20006a84:	3301      	adds	r3, #1
20006a86:	b161      	cbz	r1, 20006aa2 <StreamPrintArg+0x6ba>
20006a88:	9905      	ldr	r1, [sp, #20]
20006a8a:	2904      	cmp	r1, #4
20006a8c:	d109      	bne.n	20006aa2 <StreamPrintArg+0x6ba>
20006a8e:	ea5e 0108 	orrs.w	r1, lr, r8
20006a92:	d101      	bne.n	20006a98 <StreamPrintArg+0x6b0>
20006a94:	455b      	cmp	r3, fp
20006a96:	da0b      	bge.n	20006ab0 <StreamPrintArg+0x6c8>
20006a98:	1e94      	subs	r4, r2, #2
20006a9a:	f802 ac02 	strb.w	sl, [r2, #-2]
20006a9e:	2200      	movs	r2, #0
20006aa0:	9205      	str	r2, [sp, #20]
20006aa2:	ea5e 0808 	orrs.w	r8, lr, r8
20006aa6:	f040 857f 	bne.w	200075a8 <StreamPrintArg+0x11c0>
20006aaa:	455b      	cmp	r3, fp
20006aac:	f2c0 857c 	blt.w	200075a8 <StreamPrintArg+0x11c0>
20006ab0:	9b01      	ldr	r3, [sp, #4]
20006ab2:	07d8      	lsls	r0, r3, #31
20006ab4:	f140 85ab 	bpl.w	2000760e <StreamPrintArg+0x1226>
20006ab8:	433d      	orrs	r5, r7
20006aba:	f000 85a8 	beq.w	2000760e <StreamPrintArg+0x1226>
20006abe:	2362      	movs	r3, #98	@ 0x62
20006ac0:	f804 3c01 	strb.w	r3, [r4, #-1]
20006ac4:	2330      	movs	r3, #48	@ 0x30
20006ac6:	3c02      	subs	r4, #2
20006ac8:	7023      	strb	r3, [r4, #0]
20006aca:	f000 bda0 	b.w	2000760e <StreamPrintArg+0x1226>
20006ace:	f108 0307 	add.w	r3, r8, #7
20006ad2:	f023 0807 	bic.w	r8, r3, #7
20006ad6:	ecb8 7b02 	vldmia	r8!, {d7}
20006ada:	2200      	movs	r2, #0
20006adc:	2300      	movs	r3, #0
20006ade:	ec51 0b17 	vmov	r0, r1, d7
20006ae2:	ed8d 7b06 	vstr	d7, [sp, #24]
20006ae6:	f7f9 fc67 	bl	200003b8 <__wrap___aeabi_dcmplt>
20006aea:	b928      	cbnz	r0, 20006af8 <StreamPrintArg+0x710>
20006aec:	f641 72ff 	movw	r2, #8191	@ 0x1fff
20006af0:	9b07      	ldr	r3, [sp, #28]
20006af2:	ebb2 4fd3 	cmp.w	r2, r3, lsr #19
20006af6:	d10b      	bne.n	20006b10 <StreamPrintArg+0x728>
20006af8:	9b06      	ldr	r3, [sp, #24]
20006afa:	9310      	str	r3, [sp, #64]	@ 0x40
20006afc:	9b07      	ldr	r3, [sp, #28]
20006afe:	f103 4300 	add.w	r3, r3, #2147483648	@ 0x80000000
20006b02:	9311      	str	r3, [sp, #68]	@ 0x44
20006b04:	ed9d 7b10 	vldr	d7, [sp, #64]	@ 0x40
20006b08:	232d      	movs	r3, #45	@ 0x2d
20006b0a:	ed8d 7b06 	vstr	d7, [sp, #24]
20006b0e:	9303      	str	r3, [sp, #12]
20006b10:	f640 72fe 	movw	r2, #4094	@ 0xffe
20006b14:	9b07      	ldr	r3, [sp, #28]
20006b16:	f3c3 43cb 	ubfx	r3, r3, #19, #12
20006b1a:	4293      	cmp	r3, r2
20006b1c:	d154      	bne.n	20006bc8 <StreamPrintArg+0x7e0>
20006b1e:	4c46      	ldr	r4, [pc, #280]	@ (20006c38 <StreamPrintArg+0x850>)
20006b20:	4b46      	ldr	r3, [pc, #280]	@ (20006c3c <StreamPrintArg+0x854>)
20006b22:	f04f 0b00 	mov.w	fp, #0
20006b26:	2503      	movs	r5, #3
20006b28:	f1ba 0f5a 	cmp.w	sl, #90	@ 0x5a
20006b2c:	bf98      	it	ls
20006b2e:	461c      	movls	r4, r3
20006b30:	9b01      	ldr	r3, [sp, #4]
20006b32:	f023 0310 	bic.w	r3, r3, #16
20006b36:	f043 0320 	orr.w	r3, r3, #32
20006b3a:	9301      	str	r3, [sp, #4]
20006b3c:	f89d 304a 	ldrb.w	r3, [sp, #74]	@ 0x4a
20006b40:	2b00      	cmp	r3, #0
20006b42:	f000 8677 	beq.w	20007834 <StreamPrintArg+0x144c>
20006b46:	9b03      	ldr	r3, [sp, #12]
20006b48:	45ab      	cmp	fp, r5
20006b4a:	465e      	mov	r6, fp
20006b4c:	bfb8      	it	lt
20006b4e:	462e      	movlt	r6, r5
20006b50:	b103      	cbz	r3, 20006b54 <StreamPrintArg+0x76c>
20006b52:	3601      	adds	r6, #1
20006b54:	9b01      	ldr	r3, [sp, #4]
20006b56:	f013 0314 	ands.w	r3, r3, #20
20006b5a:	9305      	str	r3, [sp, #20]
20006b5c:	f040 8608 	bne.w	20007770 <StreamPrintArg+0x1388>
20006b60:	9b04      	ldr	r3, [sp, #16]
20006b62:	f04f 0a20 	mov.w	sl, #32
20006b66:	1b9b      	subs	r3, r3, r6
20006b68:	461f      	mov	r7, r3
20006b6a:	2f00      	cmp	r7, #0
20006b6c:	f300 85eb 	bgt.w	20007746 <StreamPrintArg+0x135e>
20006b70:	9a02      	ldr	r2, [sp, #8]
20006b72:	2b00      	cmp	r3, #0
20006b74:	bfa8      	it	ge
20006b76:	18d2      	addge	r2, r2, r3
20006b78:	9b03      	ldr	r3, [sp, #12]
20006b7a:	9202      	str	r2, [sp, #8]
20006b7c:	2b00      	cmp	r3, #0
20006b7e:	f040 85f9 	bne.w	20007774 <StreamPrintArg+0x138c>
20006b82:	ebab 0705 	sub.w	r7, fp, r5
20006b86:	46ba      	mov	sl, r7
20006b88:	f04f 0b30 	mov.w	fp, #48	@ 0x30
20006b8c:	f1ba 0f00 	cmp.w	sl, #0
20006b90:	f300 861c 	bgt.w	200077cc <StreamPrintArg+0x13e4>
20006b94:	46a2      	mov	sl, r4
20006b96:	192b      	adds	r3, r5, r4
20006b98:	ea27 7be7 	bic.w	fp, r7, r7, asr #31
20006b9c:	9303      	str	r3, [sp, #12]
20006b9e:	9b03      	ldr	r3, [sp, #12]
20006ba0:	eba3 030a 	sub.w	r3, r3, sl
20006ba4:	2b00      	cmp	r3, #0
20006ba6:	f300 861e 	bgt.w	200077e6 <StreamPrintArg+0x13fe>
20006baa:	9b02      	ldr	r3, [sp, #8]
20006bac:	ea25 75e5 	bic.w	r5, r5, r5, asr #31
20006bb0:	442c      	add	r4, r5
20006bb2:	445d      	add	r5, fp
20006bb4:	442b      	add	r3, r5
20006bb6:	9302      	str	r3, [sp, #8]
20006bb8:	9b01      	ldr	r3, [sp, #4]
20006bba:	075b      	lsls	r3, r3, #29
20006bbc:	f100 8620 	bmi.w	20007800 <StreamPrintArg+0x1418>
20006bc0:	3f01      	subs	r7, #1
20006bc2:	eba7 030b 	sub.w	r3, r7, fp
20006bc6:	e422      	b.n	2000640e <StreamPrintArg+0x26>
20006bc8:	f640 72ff 	movw	r2, #4095	@ 0xfff
20006bcc:	4293      	cmp	r3, r2
20006bce:	d102      	bne.n	20006bd6 <StreamPrintArg+0x7ee>
20006bd0:	4c1b      	ldr	r4, [pc, #108]	@ (20006c40 <StreamPrintArg+0x858>)
20006bd2:	4b1c      	ldr	r3, [pc, #112]	@ (20006c44 <StreamPrintArg+0x85c>)
20006bd4:	e7a5      	b.n	20006b22 <StreamPrintArg+0x73a>
20006bd6:	f1bb 3fff 	cmp.w	fp, #4294967295
20006bda:	bf08      	it	eq
20006bdc:	f04f 0b06 	moveq.w	fp, #6
20006be0:	f1ba 0f54 	cmp.w	sl, #84	@ 0x54
20006be4:	d80c      	bhi.n	20006c00 <StreamPrintArg+0x818>
20006be6:	4b18      	ldr	r3, [pc, #96]	@ (20006c48 <StreamPrintArg+0x860>)
20006be8:	f1aa 0242 	sub.w	r2, sl, #66	@ 0x42
20006bec:	b2d2      	uxtb	r2, r2
20006bee:	40d3      	lsrs	r3, r2
20006bf0:	f013 0301 	ands.w	r3, r3, #1
20006bf4:	d113      	bne.n	20006c1e <StreamPrintArg+0x836>
20006bf6:	e9dd 6706 	ldrd	r6, r7, [sp, #24]
20006bfa:	461c      	mov	r4, r3
20006bfc:	930e      	str	r3, [sp, #56]	@ 0x38
20006bfe:	e03f      	b.n	20006c80 <StreamPrintArg+0x898>
20006c00:	f1ba 0f67 	cmp.w	sl, #103	@ 0x67
20006c04:	d105      	bne.n	20006c12 <StreamPrintArg+0x82a>
20006c06:	f1bb 0f01 	cmp.w	fp, #1
20006c0a:	bfb8      	it	lt
20006c0c:	f04f 0b01 	movlt.w	fp, #1
20006c10:	e002      	b.n	20006c18 <StreamPrintArg+0x830>
20006c12:	f1ba 0f74 	cmp.w	sl, #116	@ 0x74
20006c16:	d0f6      	beq.n	20006c06 <StreamPrintArg+0x81e>
20006c18:	e9dd 6706 	ldrd	r6, r7, [sp, #24]
20006c1c:	e00a      	b.n	20006c34 <StreamPrintArg+0x84c>
20006c1e:	f1bb 0f01 	cmp.w	fp, #1
20006c22:	bfb8      	it	lt
20006c24:	f04f 0b01 	movlt.w	fp, #1
20006c28:	e9dd 6706 	ldrd	r6, r7, [sp, #24]
20006c2c:	f1ba 0f42 	cmp.w	sl, #66	@ 0x42
20006c30:	f000 8101 	beq.w	20006e36 <StreamPrintArg+0xa4e>
20006c34:	2300      	movs	r3, #0
20006c36:	e7e0      	b.n	20006bfa <StreamPrintArg+0x812>
20006c38:	20009617 	.word	0x20009617
20006c3c:	20009613 	.word	0x20009613
20006c40:	2000961f 	.word	0x2000961f
20006c44:	2000961b 	.word	0x2000961b
20006c48:	00040021 	.word	0x00040021
20006c4c:	4630      	mov	r0, r6
20006c4e:	4639      	mov	r1, r7
20006c50:	4b9b      	ldr	r3, [pc, #620]	@ (20006ec0 <StreamPrintArg+0xad8>)
20006c52:	f7f9 fb55 	bl	20000300 <__wrap___aeabi_dmul>
20006c56:	4606      	mov	r6, r0
20006c58:	460f      	mov	r7, r1
20006c5a:	3403      	adds	r4, #3
20006c5c:	2200      	movs	r2, #0
20006c5e:	4630      	mov	r0, r6
20006c60:	4639      	mov	r1, r7
20006c62:	4b98      	ldr	r3, [pc, #608]	@ (20006ec4 <StreamPrintArg+0xadc>)
20006c64:	f7f9 fbbc 	bl	200003e0 <__wrap___aeabi_dcmpge>
20006c68:	2200      	movs	r2, #0
20006c6a:	2800      	cmp	r0, #0
20006c6c:	d1ee      	bne.n	20006c4c <StreamPrintArg+0x864>
20006c6e:	4b96      	ldr	r3, [pc, #600]	@ (20006ec8 <StreamPrintArg+0xae0>)
20006c70:	4630      	mov	r0, r6
20006c72:	4639      	mov	r1, r7
20006c74:	f7f9 fbb4 	bl	200003e0 <__wrap___aeabi_dcmpge>
20006c78:	1e03      	subs	r3, r0, #0
20006c7a:	bf18      	it	ne
20006c7c:	2301      	movne	r3, #1
20006c7e:	930e      	str	r3, [sp, #56]	@ 0x38
20006c80:	2200      	movs	r2, #0
20006c82:	e9dd 0106 	ldrd	r0, r1, [sp, #24]
20006c86:	2300      	movs	r3, #0
20006c88:	f7f9 fb84 	bl	20000394 <__wrap___aeabi_dcmpeq>
20006c8c:	2800      	cmp	r0, #0
20006c8e:	f040 80aa 	bne.w	20006de6 <StreamPrintArg+0x9fe>
20006c92:	2200      	movs	r2, #0
20006c94:	4630      	mov	r0, r6
20006c96:	4639      	mov	r1, r7
20006c98:	4b8c      	ldr	r3, [pc, #560]	@ (20006ecc <StreamPrintArg+0xae4>)
20006c9a:	f7f9 fba1 	bl	200003e0 <__wrap___aeabi_dcmpge>
20006c9e:	2800      	cmp	r0, #0
20006ca0:	f000 811a 	beq.w	20006ed8 <StreamPrintArg+0xaf0>
20006ca4:	a366      	add	r3, pc, #408	@ (adr r3, 20006e40 <StreamPrintArg+0xa58>)
20006ca6:	e9d3 2300 	ldrd	r2, r3, [r3]
20006caa:	4630      	mov	r0, r6
20006cac:	4639      	mov	r1, r7
20006cae:	f7f9 fb97 	bl	200003e0 <__wrap___aeabi_dcmpge>
20006cb2:	b150      	cbz	r0, 20006cca <StreamPrintArg+0x8e2>
20006cb4:	a364      	add	r3, pc, #400	@ (adr r3, 20006e48 <StreamPrintArg+0xa60>)
20006cb6:	e9d3 2300 	ldrd	r2, r3, [r3]
20006cba:	4630      	mov	r0, r6
20006cbc:	4639      	mov	r1, r7
20006cbe:	f7f9 fb1f 	bl	20000300 <__wrap___aeabi_dmul>
20006cc2:	4606      	mov	r6, r0
20006cc4:	460f      	mov	r7, r1
20006cc6:	f504 7480 	add.w	r4, r4, #256	@ 0x100
20006cca:	4630      	mov	r0, r6
20006ccc:	a360      	add	r3, pc, #384	@ (adr r3, 20006e50 <StreamPrintArg+0xa68>)
20006cce:	e9d3 2300 	ldrd	r2, r3, [r3]
20006cd2:	4639      	mov	r1, r7
20006cd4:	f7f9 fb84 	bl	200003e0 <__wrap___aeabi_dcmpge>
20006cd8:	b148      	cbz	r0, 20006cee <StreamPrintArg+0x906>
20006cda:	a35f      	add	r3, pc, #380	@ (adr r3, 20006e58 <StreamPrintArg+0xa70>)
20006cdc:	e9d3 2300 	ldrd	r2, r3, [r3]
20006ce0:	4630      	mov	r0, r6
20006ce2:	4639      	mov	r1, r7
20006ce4:	f7f9 fb0c 	bl	20000300 <__wrap___aeabi_dmul>
20006ce8:	4606      	mov	r6, r0
20006cea:	460f      	mov	r7, r1
20006cec:	3480      	adds	r4, #128	@ 0x80
20006cee:	4630      	mov	r0, r6
20006cf0:	a35b      	add	r3, pc, #364	@ (adr r3, 20006e60 <StreamPrintArg+0xa78>)
20006cf2:	e9d3 2300 	ldrd	r2, r3, [r3]
20006cf6:	4639      	mov	r1, r7
20006cf8:	f7f9 fb72 	bl	200003e0 <__wrap___aeabi_dcmpge>
20006cfc:	b148      	cbz	r0, 20006d12 <StreamPrintArg+0x92a>
20006cfe:	a35a      	add	r3, pc, #360	@ (adr r3, 20006e68 <StreamPrintArg+0xa80>)
20006d00:	e9d3 2300 	ldrd	r2, r3, [r3]
20006d04:	4630      	mov	r0, r6
20006d06:	4639      	mov	r1, r7
20006d08:	f7f9 fafa 	bl	20000300 <__wrap___aeabi_dmul>
20006d0c:	4606      	mov	r6, r0
20006d0e:	460f      	mov	r7, r1
20006d10:	3440      	adds	r4, #64	@ 0x40
20006d12:	4630      	mov	r0, r6
20006d14:	a356      	add	r3, pc, #344	@ (adr r3, 20006e70 <StreamPrintArg+0xa88>)
20006d16:	e9d3 2300 	ldrd	r2, r3, [r3]
20006d1a:	4639      	mov	r1, r7
20006d1c:	f7f9 fb60 	bl	200003e0 <__wrap___aeabi_dcmpge>
20006d20:	b148      	cbz	r0, 20006d36 <StreamPrintArg+0x94e>
20006d22:	a355      	add	r3, pc, #340	@ (adr r3, 20006e78 <StreamPrintArg+0xa90>)
20006d24:	e9d3 2300 	ldrd	r2, r3, [r3]
20006d28:	4630      	mov	r0, r6
20006d2a:	4639      	mov	r1, r7
20006d2c:	f7f9 fae8 	bl	20000300 <__wrap___aeabi_dmul>
20006d30:	4606      	mov	r6, r0
20006d32:	460f      	mov	r7, r1
20006d34:	3420      	adds	r4, #32
20006d36:	4630      	mov	r0, r6
20006d38:	a351      	add	r3, pc, #324	@ (adr r3, 20006e80 <StreamPrintArg+0xa98>)
20006d3a:	e9d3 2300 	ldrd	r2, r3, [r3]
20006d3e:	4639      	mov	r1, r7
20006d40:	f7f9 fb4e 	bl	200003e0 <__wrap___aeabi_dcmpge>
20006d44:	b148      	cbz	r0, 20006d5a <StreamPrintArg+0x972>
20006d46:	a350      	add	r3, pc, #320	@ (adr r3, 20006e88 <StreamPrintArg+0xaa0>)
20006d48:	e9d3 2300 	ldrd	r2, r3, [r3]
20006d4c:	4630      	mov	r0, r6
20006d4e:	4639      	mov	r1, r7
20006d50:	f7f9 fad6 	bl	20000300 <__wrap___aeabi_dmul>
20006d54:	4606      	mov	r6, r0
20006d56:	460f      	mov	r7, r1
20006d58:	3410      	adds	r4, #16
20006d5a:	4630      	mov	r0, r6
20006d5c:	a34c      	add	r3, pc, #304	@ (adr r3, 20006e90 <StreamPrintArg+0xaa8>)
20006d5e:	e9d3 2300 	ldrd	r2, r3, [r3]
20006d62:	4639      	mov	r1, r7
20006d64:	f7f9 fb3c 	bl	200003e0 <__wrap___aeabi_dcmpge>
20006d68:	b148      	cbz	r0, 20006d7e <StreamPrintArg+0x996>
20006d6a:	a34b      	add	r3, pc, #300	@ (adr r3, 20006e98 <StreamPrintArg+0xab0>)
20006d6c:	e9d3 2300 	ldrd	r2, r3, [r3]
20006d70:	4630      	mov	r0, r6
20006d72:	4639      	mov	r1, r7
20006d74:	f7f9 fac4 	bl	20000300 <__wrap___aeabi_dmul>
20006d78:	4606      	mov	r6, r0
20006d7a:	460f      	mov	r7, r1
20006d7c:	3408      	adds	r4, #8
20006d7e:	4630      	mov	r0, r6
20006d80:	a347      	add	r3, pc, #284	@ (adr r3, 20006ea0 <StreamPrintArg+0xab8>)
20006d82:	e9d3 2300 	ldrd	r2, r3, [r3]
20006d86:	4639      	mov	r1, r7
20006d88:	f7f9 fb2a 	bl	200003e0 <__wrap___aeabi_dcmpge>
20006d8c:	b148      	cbz	r0, 20006da2 <StreamPrintArg+0x9ba>
20006d8e:	a346      	add	r3, pc, #280	@ (adr r3, 20006ea8 <StreamPrintArg+0xac0>)
20006d90:	e9d3 2300 	ldrd	r2, r3, [r3]
20006d94:	4630      	mov	r0, r6
20006d96:	4639      	mov	r1, r7
20006d98:	f7f9 fab2 	bl	20000300 <__wrap___aeabi_dmul>
20006d9c:	4606      	mov	r6, r0
20006d9e:	460f      	mov	r7, r1
20006da0:	3404      	adds	r4, #4
20006da2:	2200      	movs	r2, #0
20006da4:	4630      	mov	r0, r6
20006da6:	4639      	mov	r1, r7
20006da8:	4b49      	ldr	r3, [pc, #292]	@ (20006ed0 <StreamPrintArg+0xae8>)
20006daa:	f7f9 fb19 	bl	200003e0 <__wrap___aeabi_dcmpge>
20006dae:	b148      	cbz	r0, 20006dc4 <StreamPrintArg+0x9dc>
20006db0:	a33f      	add	r3, pc, #252	@ (adr r3, 20006eb0 <StreamPrintArg+0xac8>)
20006db2:	e9d3 2300 	ldrd	r2, r3, [r3]
20006db6:	4630      	mov	r0, r6
20006db8:	4639      	mov	r1, r7
20006dba:	f7f9 faa1 	bl	20000300 <__wrap___aeabi_dmul>
20006dbe:	4606      	mov	r6, r0
20006dc0:	460f      	mov	r7, r1
20006dc2:	3402      	adds	r4, #2
20006dc4:	2200      	movs	r2, #0
20006dc6:	4630      	mov	r0, r6
20006dc8:	4639      	mov	r1, r7
20006dca:	4b42      	ldr	r3, [pc, #264]	@ (20006ed4 <StreamPrintArg+0xaec>)
20006dcc:	f7f9 fb08 	bl	200003e0 <__wrap___aeabi_dcmpge>
20006dd0:	b148      	cbz	r0, 20006de6 <StreamPrintArg+0x9fe>
20006dd2:	a339      	add	r3, pc, #228	@ (adr r3, 20006eb8 <StreamPrintArg+0xad0>)
20006dd4:	e9d3 2300 	ldrd	r2, r3, [r3]
20006dd8:	4630      	mov	r0, r6
20006dda:	4639      	mov	r1, r7
20006ddc:	f7f9 fa90 	bl	20000300 <__wrap___aeabi_dmul>
20006de0:	4606      	mov	r6, r0
20006de2:	460f      	mov	r7, r1
20006de4:	3401      	adds	r4, #1
20006de6:	2300      	movs	r3, #0
20006de8:	4655      	mov	r5, sl
20006dea:	2202      	movs	r2, #2
20006dec:	930f      	str	r3, [sp, #60]	@ 0x3c
20006dee:	f005 03df 	and.w	r3, r5, #223	@ 0xdf
20006df2:	2b45      	cmp	r3, #69	@ 0x45
20006df4:	f000 8133 	beq.w	2000705e <StreamPrintArg+0xc76>
20006df8:	2d74      	cmp	r5, #116	@ 0x74
20006dfa:	f000 8159 	beq.w	200070b0 <StreamPrintArg+0xcc8>
20006dfe:	2d47      	cmp	r5, #71	@ 0x47
20006e00:	d002      	beq.n	20006e08 <StreamPrintArg+0xa20>
20006e02:	2d67      	cmp	r5, #103	@ 0x67
20006e04:	f040 811d 	bne.w	20007042 <StreamPrintArg+0xc5a>
20006e08:	1ce0      	adds	r0, r4, #3
20006e0a:	f2c0 8126 	blt.w	2000705a <StreamPrintArg+0xc72>
20006e0e:	45a3      	cmp	fp, r4
20006e10:	da03      	bge.n	20006e1a <StreamPrintArg+0xa32>
20006e12:	9b04      	ldr	r3, [sp, #16]
20006e14:	429c      	cmp	r4, r3
20006e16:	f300 8120 	bgt.w	2000705a <StreamPrintArg+0xc72>
20006e1a:	2c00      	cmp	r4, #0
20006e1c:	f2c0 813e 	blt.w	2000709c <StreamPrintArg+0xcb4>
20006e20:	1c63      	adds	r3, r4, #1
20006e22:	459b      	cmp	fp, r3
20006e24:	9306      	str	r3, [sp, #24]
20006e26:	f280 851a 	bge.w	2000785e <StreamPrintArg+0x1476>
20006e2a:	eba3 030b 	sub.w	r3, r3, fp
20006e2e:	930b      	str	r3, [sp, #44]	@ 0x2c
20006e30:	2300      	movs	r3, #0
20006e32:	930a      	str	r3, [sp, #40]	@ 0x28
20006e34:	e138      	b.n	200070a8 <StreamPrintArg+0xcc0>
20006e36:	2400      	movs	r4, #0
20006e38:	e710      	b.n	20006c5c <StreamPrintArg+0x874>
20006e3a:	bf00      	nop
20006e3c:	f3af 8000 	nop.w
20006e40:	7f73bf3c 	.word	0x7f73bf3c
20006e44:	75154fdd 	.word	0x75154fdd
20006e48:	64ac6f43 	.word	0x64ac6f43
20006e4c:	0ac80628 	.word	0x0ac80628
20006e50:	f9301d32 	.word	0xf9301d32
20006e54:	5a827748 	.word	0x5a827748
20006e58:	cf8c979d 	.word	0xcf8c979d
20006e5c:	255bba08 	.word	0x255bba08
20006e60:	e93ff9f5 	.word	0xe93ff9f5
20006e64:	4d384f03 	.word	0x4d384f03
20006e68:	44f4a73d 	.word	0x44f4a73d
20006e6c:	32a50ffd 	.word	0x32a50ffd
20006e70:	b5056e17 	.word	0xb5056e17
20006e74:	4693b8b5 	.word	0x4693b8b5
20006e78:	d5a8a733 	.word	0xd5a8a733
20006e7c:	3949f623 	.word	0x3949f623
20006e80:	37e08000 	.word	0x37e08000
20006e84:	4341c379 	.word	0x4341c379
20006e88:	97d889bc 	.word	0x97d889bc
20006e8c:	3c9cd2b2 	.word	0x3c9cd2b2
20006e90:	00000000 	.word	0x00000000
20006e94:	4197d784 	.word	0x4197d784
20006e98:	e2308c3a 	.word	0xe2308c3a
20006e9c:	3e45798e 	.word	0x3e45798e
20006ea0:	00000000 	.word	0x00000000
20006ea4:	40c38800 	.word	0x40c38800
20006ea8:	eb1c432d 	.word	0xeb1c432d
20006eac:	3f1a36e2 	.word	0x3f1a36e2
20006eb0:	47ae147b 	.word	0x47ae147b
20006eb4:	3f847ae1 	.word	0x3f847ae1
20006eb8:	9999999a 	.word	0x9999999a
20006ebc:	3fb99999 	.word	0x3fb99999
20006ec0:	3f500000 	.word	0x3f500000
20006ec4:	40900000 	.word	0x40900000
20006ec8:	408f4000 	.word	0x408f4000
20006ecc:	3ff00000 	.word	0x3ff00000
20006ed0:	40590000 	.word	0x40590000
20006ed4:	40240000 	.word	0x40240000
20006ed8:	4630      	mov	r0, r6
20006eda:	a3f1      	add	r3, pc, #964	@ (adr r3, 200072a0 <StreamPrintArg+0xeb8>)
20006edc:	e9d3 2300 	ldrd	r2, r3, [r3]
20006ee0:	4639      	mov	r1, r7
20006ee2:	f7f9 fa69 	bl	200003b8 <__wrap___aeabi_dcmplt>
20006ee6:	b158      	cbz	r0, 20006f00 <StreamPrintArg+0xb18>
20006ee8:	a3ef      	add	r3, pc, #956	@ (adr r3, 200072a8 <StreamPrintArg+0xec0>)
20006eea:	e9d3 2300 	ldrd	r2, r3, [r3]
20006eee:	4630      	mov	r0, r6
20006ef0:	4639      	mov	r1, r7
20006ef2:	f7f9 fa05 	bl	20000300 <__wrap___aeabi_dmul>
20006ef6:	f46f 7580 	mvn.w	r5, #256	@ 0x100
20006efa:	4606      	mov	r6, r0
20006efc:	460f      	mov	r7, r1
20006efe:	442c      	add	r4, r5
20006f00:	4630      	mov	r0, r6
20006f02:	a3eb      	add	r3, pc, #940	@ (adr r3, 200072b0 <StreamPrintArg+0xec8>)
20006f04:	e9d3 2300 	ldrd	r2, r3, [r3]
20006f08:	4639      	mov	r1, r7
20006f0a:	f7f9 fa55 	bl	200003b8 <__wrap___aeabi_dcmplt>
20006f0e:	b148      	cbz	r0, 20006f24 <StreamPrintArg+0xb3c>
20006f10:	a3e9      	add	r3, pc, #932	@ (adr r3, 200072b8 <StreamPrintArg+0xed0>)
20006f12:	e9d3 2300 	ldrd	r2, r3, [r3]
20006f16:	4630      	mov	r0, r6
20006f18:	4639      	mov	r1, r7
20006f1a:	f7f9 f9f1 	bl	20000300 <__wrap___aeabi_dmul>
20006f1e:	4606      	mov	r6, r0
20006f20:	460f      	mov	r7, r1
20006f22:	3c81      	subs	r4, #129	@ 0x81
20006f24:	4630      	mov	r0, r6
20006f26:	a3e6      	add	r3, pc, #920	@ (adr r3, 200072c0 <StreamPrintArg+0xed8>)
20006f28:	e9d3 2300 	ldrd	r2, r3, [r3]
20006f2c:	4639      	mov	r1, r7
20006f2e:	f7f9 fa43 	bl	200003b8 <__wrap___aeabi_dcmplt>
20006f32:	b148      	cbz	r0, 20006f48 <StreamPrintArg+0xb60>
20006f34:	a3e4      	add	r3, pc, #912	@ (adr r3, 200072c8 <StreamPrintArg+0xee0>)
20006f36:	e9d3 2300 	ldrd	r2, r3, [r3]
20006f3a:	4630      	mov	r0, r6
20006f3c:	4639      	mov	r1, r7
20006f3e:	f7f9 f9df 	bl	20000300 <__wrap___aeabi_dmul>
20006f42:	4606      	mov	r6, r0
20006f44:	460f      	mov	r7, r1
20006f46:	3c41      	subs	r4, #65	@ 0x41
20006f48:	4630      	mov	r0, r6
20006f4a:	a3e1      	add	r3, pc, #900	@ (adr r3, 200072d0 <StreamPrintArg+0xee8>)
20006f4c:	e9d3 2300 	ldrd	r2, r3, [r3]
20006f50:	4639      	mov	r1, r7
20006f52:	f7f9 fa31 	bl	200003b8 <__wrap___aeabi_dcmplt>
20006f56:	b148      	cbz	r0, 20006f6c <StreamPrintArg+0xb84>
20006f58:	a3df      	add	r3, pc, #892	@ (adr r3, 200072d8 <StreamPrintArg+0xef0>)
20006f5a:	e9d3 2300 	ldrd	r2, r3, [r3]
20006f5e:	4630      	mov	r0, r6
20006f60:	4639      	mov	r1, r7
20006f62:	f7f9 f9cd 	bl	20000300 <__wrap___aeabi_dmul>
20006f66:	4606      	mov	r6, r0
20006f68:	460f      	mov	r7, r1
20006f6a:	3c21      	subs	r4, #33	@ 0x21
20006f6c:	4630      	mov	r0, r6
20006f6e:	a3dc      	add	r3, pc, #880	@ (adr r3, 200072e0 <StreamPrintArg+0xef8>)
20006f70:	e9d3 2300 	ldrd	r2, r3, [r3]
20006f74:	4639      	mov	r1, r7
20006f76:	f7f9 fa1f 	bl	200003b8 <__wrap___aeabi_dcmplt>
20006f7a:	b148      	cbz	r0, 20006f90 <StreamPrintArg+0xba8>
20006f7c:	a3da      	add	r3, pc, #872	@ (adr r3, 200072e8 <StreamPrintArg+0xf00>)
20006f7e:	e9d3 2300 	ldrd	r2, r3, [r3]
20006f82:	4630      	mov	r0, r6
20006f84:	4639      	mov	r1, r7
20006f86:	f7f9 f9bb 	bl	20000300 <__wrap___aeabi_dmul>
20006f8a:	4606      	mov	r6, r0
20006f8c:	460f      	mov	r7, r1
20006f8e:	3c11      	subs	r4, #17
20006f90:	4630      	mov	r0, r6
20006f92:	a3d7      	add	r3, pc, #860	@ (adr r3, 200072f0 <StreamPrintArg+0xf08>)
20006f94:	e9d3 2300 	ldrd	r2, r3, [r3]
20006f98:	4639      	mov	r1, r7
20006f9a:	f7f9 fa0d 	bl	200003b8 <__wrap___aeabi_dcmplt>
20006f9e:	b148      	cbz	r0, 20006fb4 <StreamPrintArg+0xbcc>
20006fa0:	a3d5      	add	r3, pc, #852	@ (adr r3, 200072f8 <StreamPrintArg+0xf10>)
20006fa2:	e9d3 2300 	ldrd	r2, r3, [r3]
20006fa6:	4630      	mov	r0, r6
20006fa8:	4639      	mov	r1, r7
20006faa:	f7f9 f9a9 	bl	20000300 <__wrap___aeabi_dmul>
20006fae:	4606      	mov	r6, r0
20006fb0:	460f      	mov	r7, r1
20006fb2:	3c09      	subs	r4, #9
20006fb4:	4630      	mov	r0, r6
20006fb6:	a3d2      	add	r3, pc, #840	@ (adr r3, 20007300 <StreamPrintArg+0xf18>)
20006fb8:	e9d3 2300 	ldrd	r2, r3, [r3]
20006fbc:	4639      	mov	r1, r7
20006fbe:	f7f9 f9fb 	bl	200003b8 <__wrap___aeabi_dcmplt>
20006fc2:	b148      	cbz	r0, 20006fd8 <StreamPrintArg+0xbf0>
20006fc4:	a3d0      	add	r3, pc, #832	@ (adr r3, 20007308 <StreamPrintArg+0xf20>)
20006fc6:	e9d3 2300 	ldrd	r2, r3, [r3]
20006fca:	4630      	mov	r0, r6
20006fcc:	4639      	mov	r1, r7
20006fce:	f7f9 f997 	bl	20000300 <__wrap___aeabi_dmul>
20006fd2:	4606      	mov	r6, r0
20006fd4:	460f      	mov	r7, r1
20006fd6:	3c05      	subs	r4, #5
20006fd8:	4630      	mov	r0, r6
20006fda:	a3cd      	add	r3, pc, #820	@ (adr r3, 20007310 <StreamPrintArg+0xf28>)
20006fdc:	e9d3 2300 	ldrd	r2, r3, [r3]
20006fe0:	4639      	mov	r1, r7
20006fe2:	f7f9 f9e9 	bl	200003b8 <__wrap___aeabi_dcmplt>
20006fe6:	b140      	cbz	r0, 20006ffa <StreamPrintArg+0xc12>
20006fe8:	4630      	mov	r0, r6
20006fea:	4639      	mov	r1, r7
20006fec:	2200      	movs	r2, #0
20006fee:	4ba6      	ldr	r3, [pc, #664]	@ (20007288 <StreamPrintArg+0xea0>)
20006ff0:	f7f9 f986 	bl	20000300 <__wrap___aeabi_dmul>
20006ff4:	4606      	mov	r6, r0
20006ff6:	460f      	mov	r7, r1
20006ff8:	3c03      	subs	r4, #3
20006ffa:	4630      	mov	r0, r6
20006ffc:	a3a0      	add	r3, pc, #640	@ (adr r3, 20007280 <StreamPrintArg+0xe98>)
20006ffe:	e9d3 2300 	ldrd	r2, r3, [r3]
20007002:	4639      	mov	r1, r7
20007004:	f7f9 f9d8 	bl	200003b8 <__wrap___aeabi_dcmplt>
20007008:	b140      	cbz	r0, 2000701c <StreamPrintArg+0xc34>
2000700a:	4630      	mov	r0, r6
2000700c:	4639      	mov	r1, r7
2000700e:	2200      	movs	r2, #0
20007010:	4b9e      	ldr	r3, [pc, #632]	@ (2000728c <StreamPrintArg+0xea4>)
20007012:	f7f9 f975 	bl	20000300 <__wrap___aeabi_dmul>
20007016:	4606      	mov	r6, r0
20007018:	460f      	mov	r7, r1
2000701a:	3c02      	subs	r4, #2
2000701c:	2200      	movs	r2, #0
2000701e:	4630      	mov	r0, r6
20007020:	4639      	mov	r1, r7
20007022:	4b9b      	ldr	r3, [pc, #620]	@ (20007290 <StreamPrintArg+0xea8>)
20007024:	f7f9 f9c8 	bl	200003b8 <__wrap___aeabi_dcmplt>
20007028:	2800      	cmp	r0, #0
2000702a:	f43f aedc 	beq.w	20006de6 <StreamPrintArg+0x9fe>
2000702e:	4630      	mov	r0, r6
20007030:	4639      	mov	r1, r7
20007032:	2200      	movs	r2, #0
20007034:	4b97      	ldr	r3, [pc, #604]	@ (20007294 <StreamPrintArg+0xeac>)
20007036:	f7f9 f963 	bl	20000300 <__wrap___aeabi_dmul>
2000703a:	3c01      	subs	r4, #1
2000703c:	4606      	mov	r6, r0
2000703e:	460f      	mov	r7, r1
20007040:	e6d1      	b.n	20006de6 <StreamPrintArg+0x9fe>
20007042:	f10b 0101 	add.w	r1, fp, #1
20007046:	2b46      	cmp	r3, #70	@ 0x46
20007048:	910c      	str	r1, [sp, #48]	@ 0x30
2000704a:	d012      	beq.n	20007072 <StreamPrintArg+0xc8a>
2000704c:	2300      	movs	r3, #0
2000704e:	2d42      	cmp	r5, #66	@ 0x42
20007050:	930a      	str	r3, [sp, #40]	@ 0x28
20007052:	d030      	beq.n	200070b6 <StreamPrintArg+0xcce>
20007054:	2301      	movs	r3, #1
20007056:	9306      	str	r3, [sp, #24]
20007058:	e01a      	b.n	20007090 <StreamPrintArg+0xca8>
2000705a:	f10b 3bff 	add.w	fp, fp, #4294967295
2000705e:	f10b 0301 	add.w	r3, fp, #1
20007062:	930c      	str	r3, [sp, #48]	@ 0x30
20007064:	2300      	movs	r3, #0
20007066:	e9cd 330a 	strd	r3, r3, [sp, #40]	@ 0x28
2000706a:	2301      	movs	r3, #1
2000706c:	9306      	str	r3, [sp, #24]
2000706e:	9309      	str	r3, [sp, #36]	@ 0x24
20007070:	e03d      	b.n	200070ee <StreamPrintArg+0xd06>
20007072:	2c00      	cmp	r4, #0
20007074:	bfab      	itete	ge
20007076:	1c63      	addge	r3, r4, #1
20007078:	4263      	neglt	r3, r4
2000707a:	9306      	strge	r3, [sp, #24]
2000707c:	930a      	strlt	r3, [sp, #40]	@ 0x28
2000707e:	bfab      	itete	ge
20007080:	2300      	movge	r3, #0
20007082:	2301      	movlt	r3, #1
20007084:	930a      	strge	r3, [sp, #40]	@ 0x28
20007086:	9306      	strlt	r3, [sp, #24]
20007088:	f10b 0301 	add.w	r3, fp, #1
2000708c:	4423      	add	r3, r4
2000708e:	930c      	str	r3, [sp, #48]	@ 0x30
20007090:	2d54      	cmp	r5, #84	@ 0x54
20007092:	f04f 0300 	mov.w	r3, #0
20007096:	d00e      	beq.n	200070b6 <StreamPrintArg+0xcce>
20007098:	930b      	str	r3, [sp, #44]	@ 0x2c
2000709a:	e7e8      	b.n	2000706e <StreamPrintArg+0xc86>
2000709c:	4263      	negs	r3, r4
2000709e:	930a      	str	r3, [sp, #40]	@ 0x28
200070a0:	2300      	movs	r3, #0
200070a2:	930b      	str	r3, [sp, #44]	@ 0x2c
200070a4:	2301      	movs	r3, #1
200070a6:	9306      	str	r3, [sp, #24]
200070a8:	2300      	movs	r3, #0
200070aa:	f8cd b030 	str.w	fp, [sp, #48]	@ 0x30
200070ae:	e7de      	b.n	2000706e <StreamPrintArg+0xc86>
200070b0:	2300      	movs	r3, #0
200070b2:	930a      	str	r3, [sp, #40]	@ 0x28
200070b4:	2301      	movs	r3, #1
200070b6:	9309      	str	r3, [sp, #36]	@ 0x24
200070b8:	9b0e      	ldr	r3, [sp, #56]	@ 0x38
200070ba:	bb2b      	cbnz	r3, 20007108 <StreamPrintArg+0xd20>
200070bc:	2303      	movs	r3, #3
200070be:	f204 114d 	addw	r1, r4, #333	@ 0x14d
200070c2:	fb91 f3f3 	sdiv	r3, r1, r3
200070c6:	eb03 0343 	add.w	r3, r3, r3, lsl #1
200070ca:	1acb      	subs	r3, r1, r3
200070cc:	9305      	str	r3, [sp, #20]
200070ce:	9b05      	ldr	r3, [sp, #20]
200070d0:	f8cd b030 	str.w	fp, [sp, #48]	@ 0x30
200070d4:	1ae4      	subs	r4, r4, r3
200070d6:	3301      	adds	r3, #1
200070d8:	459b      	cmp	fp, r3
200070da:	9306      	str	r3, [sp, #24]
200070dc:	bfac      	ite	ge
200070de:	2300      	movge	r3, #0
200070e0:	eba3 030b 	sublt.w	r3, r3, fp
200070e4:	930b      	str	r3, [sp, #44]	@ 0x2c
200070e6:	f104 031e 	add.w	r3, r4, #30
200070ea:	2b3e      	cmp	r3, #62	@ 0x3e
200070ec:	d80e      	bhi.n	2000710c <StreamPrintArg+0xd24>
200070ee:	2a01      	cmp	r2, #1
200070f0:	d110      	bne.n	20007114 <StreamPrintArg+0xd2c>
200070f2:	9b0f      	ldr	r3, [sp, #60]	@ 0x3c
200070f4:	b113      	cbz	r3, 200070fc <StreamPrintArg+0xd14>
200070f6:	46aa      	mov	sl, r5
200070f8:	f88d 504a 	strb.w	r5, [sp, #74]	@ 0x4a
200070fc:	9b01      	ldr	r3, [sp, #4]
200070fe:	ad13      	add	r5, sp, #76	@ 0x4c
20007100:	f003 0340 	and.w	r3, r3, #64	@ 0x40
20007104:	9305      	str	r3, [sp, #20]
20007106:	e073      	b.n	200071f0 <StreamPrintArg+0xe08>
20007108:	2303      	movs	r3, #3
2000710a:	e7df      	b.n	200070cc <StreamPrintArg+0xce4>
2000710c:	2301      	movs	r3, #1
2000710e:	2574      	movs	r5, #116	@ 0x74
20007110:	930f      	str	r3, [sp, #60]	@ 0x3c
20007112:	e7ac      	b.n	2000706e <StreamPrintArg+0xc86>
20007114:	9b0c      	ldr	r3, [sp, #48]	@ 0x30
20007116:	2b12      	cmp	r3, #18
20007118:	dceb      	bgt.n	200070f2 <StreamPrintArg+0xd0a>
2000711a:	9a0c      	ldr	r2, [sp, #48]	@ 0x30
2000711c:	4b5e      	ldr	r3, [pc, #376]	@ (20007298 <StreamPrintArg+0xeb0>)
2000711e:	4630      	mov	r0, r6
20007120:	eb03 03c2 	add.w	r3, r3, r2, lsl #3
20007124:	e9d3 2300 	ldrd	r2, r3, [r3]
20007128:	4639      	mov	r1, r7
2000712a:	f7f9 f8c1 	bl	200002b0 <__wrap___aeabi_dadd>
2000712e:	2200      	movs	r2, #0
20007130:	4b58      	ldr	r3, [pc, #352]	@ (20007294 <StreamPrintArg+0xeac>)
20007132:	4606      	mov	r6, r0
20007134:	460f      	mov	r7, r1
20007136:	f7f9 f953 	bl	200003e0 <__wrap___aeabi_dcmpge>
2000713a:	2800      	cmp	r0, #0
2000713c:	d0d9      	beq.n	200070f2 <StreamPrintArg+0xd0a>
2000713e:	a350      	add	r3, pc, #320	@ (adr r3, 20007280 <StreamPrintArg+0xe98>)
20007140:	e9d3 2300 	ldrd	r2, r3, [r3]
20007144:	4630      	mov	r0, r6
20007146:	4639      	mov	r1, r7
20007148:	f7f9 f8da 	bl	20000300 <__wrap___aeabi_dmul>
2000714c:	2d42      	cmp	r5, #66	@ 0x42
2000714e:	4606      	mov	r6, r0
20007150:	460f      	mov	r7, r1
20007152:	f104 0401 	add.w	r4, r4, #1
20007156:	d003      	beq.n	20007160 <StreamPrintArg+0xd78>
20007158:	f005 03df 	and.w	r3, r5, #223	@ 0xdf
2000715c:	2b54      	cmp	r3, #84	@ 0x54
2000715e:	d101      	bne.n	20007164 <StreamPrintArg+0xd7c>
20007160:	9b05      	ldr	r3, [sp, #20]
20007162:	441c      	add	r4, r3
20007164:	2201      	movs	r2, #1
20007166:	e642      	b.n	20006dee <StreamPrintArg+0xa06>
20007168:	9b0a      	ldr	r3, [sp, #40]	@ 0x28
2000716a:	2b00      	cmp	r3, #0
2000716c:	dd04      	ble.n	20007178 <StreamPrintArg+0xd90>
2000716e:	3b01      	subs	r3, #1
20007170:	930a      	str	r3, [sp, #40]	@ 0x28
20007172:	2330      	movs	r3, #48	@ 0x30
20007174:	930d      	str	r3, [sp, #52]	@ 0x34
20007176:	e01f      	b.n	200071b8 <StreamPrintArg+0xdd0>
20007178:	9b0c      	ldr	r3, [sp, #48]	@ 0x30
2000717a:	2b00      	cmp	r3, #0
2000717c:	dd77      	ble.n	2000726e <StreamPrintArg+0xe86>
2000717e:	4639      	mov	r1, r7
20007180:	4630      	mov	r0, r6
20007182:	f7f9 f8f5 	bl	20000370 <__wrap___aeabi_d2uiz>
20007186:	fa5f fb80 	uxtb.w	fp, r0
2000718a:	4658      	mov	r0, fp
2000718c:	f7f9 f8de 	bl	2000034c <__wrap___aeabi_i2d>
20007190:	4602      	mov	r2, r0
20007192:	460b      	mov	r3, r1
20007194:	4630      	mov	r0, r6
20007196:	4639      	mov	r1, r7
20007198:	f7f9 f89e 	bl	200002d8 <__wrap___aeabi_dsub>
2000719c:	4b3d      	ldr	r3, [pc, #244]	@ (20007294 <StreamPrintArg+0xeac>)
2000719e:	2200      	movs	r2, #0
200071a0:	f7f9 f8ae 	bl	20000300 <__wrap___aeabi_dmul>
200071a4:	4606      	mov	r6, r0
200071a6:	460f      	mov	r7, r1
200071a8:	f10b 0b30 	add.w	fp, fp, #48	@ 0x30
200071ac:	fa5f f38b 	uxtb.w	r3, fp
200071b0:	930d      	str	r3, [sp, #52]	@ 0x34
200071b2:	9b0c      	ldr	r3, [sp, #48]	@ 0x30
200071b4:	3b01      	subs	r3, #1
200071b6:	930c      	str	r3, [sp, #48]	@ 0x30
200071b8:	9b0d      	ldr	r3, [sp, #52]	@ 0x34
200071ba:	702b      	strb	r3, [r5, #0]
200071bc:	9b06      	ldr	r3, [sp, #24]
200071be:	3b01      	subs	r3, #1
200071c0:	9306      	str	r3, [sp, #24]
200071c2:	bf04      	itt	eq
200071c4:	232e      	moveq	r3, #46	@ 0x2e
200071c6:	706b      	strbeq	r3, [r5, #1]
200071c8:	9b05      	ldr	r3, [sp, #20]
200071ca:	bf14      	ite	ne
200071cc:	3501      	addne	r5, #1
200071ce:	3502      	addeq	r5, #2
200071d0:	b173      	cbz	r3, 200071f0 <StreamPrintArg+0xe08>
200071d2:	9b06      	ldr	r3, [sp, #24]
200071d4:	2b00      	cmp	r3, #0
200071d6:	dd0b      	ble.n	200071f0 <StreamPrintArg+0xe08>
200071d8:	2203      	movs	r2, #3
200071da:	fb93 f3f2 	sdiv	r3, r3, r2
200071de:	9a06      	ldr	r2, [sp, #24]
200071e0:	eb03 0343 	add.w	r3, r3, r3, lsl #1
200071e4:	429a      	cmp	r2, r3
200071e6:	d103      	bne.n	200071f0 <StreamPrintArg+0xe08>
200071e8:	f04f 0327 	mov.w	r3, #39	@ 0x27
200071ec:	f805 3b01 	strb.w	r3, [r5], #1
200071f0:	9a0a      	ldr	r2, [sp, #40]	@ 0x28
200071f2:	9b0c      	ldr	r3, [sp, #48]	@ 0x30
200071f4:	4413      	add	r3, r2
200071f6:	9a0b      	ldr	r2, [sp, #44]	@ 0x2c
200071f8:	4413      	add	r3, r2
200071fa:	2b00      	cmp	r3, #0
200071fc:	dcb4      	bgt.n	20007168 <StreamPrintArg+0xd80>
200071fe:	f00a 03df 	and.w	r3, sl, #223	@ 0xdf
20007202:	2b47      	cmp	r3, #71	@ 0x47
20007204:	f040 8088 	bne.w	20007318 <StreamPrintArg+0xf30>
20007208:	9b01      	ldr	r3, [sp, #4]
2000720a:	07da      	lsls	r2, r3, #31
2000720c:	f100 80ad 	bmi.w	2000736a <StreamPrintArg+0xf82>
20007210:	462b      	mov	r3, r5
20007212:	a913      	add	r1, sp, #76	@ 0x4c
20007214:	428b      	cmp	r3, r1
20007216:	461d      	mov	r5, r3
20007218:	f240 8325 	bls.w	20007866 <StreamPrintArg+0x147e>
2000721c:	f815 2c01 	ldrb.w	r2, [r5, #-1]
20007220:	3b01      	subs	r3, #1
20007222:	2a30      	cmp	r2, #48	@ 0x30
20007224:	d0f6      	beq.n	20007214 <StreamPrintArg+0xe2c>
20007226:	2a2e      	cmp	r2, #46	@ 0x2e
20007228:	bf08      	it	eq
2000722a:	461d      	moveq	r5, r3
2000722c:	f1ba 0f74 	cmp.w	sl, #116	@ 0x74
20007230:	d07d      	beq.n	2000732e <StreamPrintArg+0xf46>
20007232:	f1ba 0f42 	cmp.w	sl, #66	@ 0x42
20007236:	f040 8098 	bne.w	2000736a <StreamPrintArg+0xf82>
2000723a:	9b01      	ldr	r3, [sp, #4]
2000723c:	2203      	movs	r2, #3
2000723e:	07de      	lsls	r6, r3, #31
20007240:	bf44      	itt	mi
20007242:	2320      	movmi	r3, #32
20007244:	f805 3b01 	strbmi.w	r3, [r5], #1
20007248:	f104 031e 	add.w	r3, r4, #30
2000724c:	fb93 f3f2 	sdiv	r3, r3, r2
20007250:	4a12      	ldr	r2, [pc, #72]	@ (2000729c <StreamPrintArg+0xeb4>)
20007252:	5cd3      	ldrb	r3, [r2, r3]
20007254:	2b6b      	cmp	r3, #107	@ 0x6b
20007256:	930d      	str	r3, [sp, #52]	@ 0x34
20007258:	f040 80bd 	bne.w	200073d6 <StreamPrintArg+0xfee>
2000725c:	f1ba 0f42 	cmp.w	sl, #66	@ 0x42
20007260:	bf08      	it	eq
20007262:	234b      	moveq	r3, #75	@ 0x4b
20007264:	930d      	str	r3, [sp, #52]	@ 0x34
20007266:	9b0d      	ldr	r3, [sp, #52]	@ 0x34
20007268:	f805 3b01 	strb.w	r3, [r5], #1
2000726c:	e0b7      	b.n	200073de <StreamPrintArg+0xff6>
2000726e:	9b0b      	ldr	r3, [sp, #44]	@ 0x2c
20007270:	2b00      	cmp	r3, #0
20007272:	dda1      	ble.n	200071b8 <StreamPrintArg+0xdd0>
20007274:	3b01      	subs	r3, #1
20007276:	930b      	str	r3, [sp, #44]	@ 0x2c
20007278:	e77b      	b.n	20007172 <StreamPrintArg+0xd8a>
2000727a:	bf00      	nop
2000727c:	f3af 8000 	nop.w
20007280:	9999999a 	.word	0x9999999a
20007284:	3fb99999 	.word	0x3fb99999
20007288:	408f4000 	.word	0x408f4000
2000728c:	40590000 	.word	0x40590000
20007290:	3ff00000 	.word	0x3ff00000
20007294:	40240000 	.word	0x40240000
20007298:	200098b8 	.word	0x200098b8
2000729c:	20009a12 	.word	0x20009a12
200072a0:	64ac6f43 	.word	0x64ac6f43
200072a4:	0ac80628 	.word	0x0ac80628
200072a8:	df50af0b 	.word	0xdf50af0b
200072ac:	754aa3d4 	.word	0x754aa3d4
200072b0:	cf8c979d 	.word	0xcf8c979d
200072b4:	255bba08 	.word	0x255bba08
200072b8:	377c247e 	.word	0x377c247e
200072bc:	5ab7151b 	.word	0x5ab7151b
200072c0:	44f4a73d 	.word	0x44f4a73d
200072c4:	32a50ffd 	.word	0x32a50ffd
200072c8:	e38ff872 	.word	0xe38ff872
200072cc:	4d6e62c4 	.word	0x4d6e62c4
200072d0:	d5a8a733 	.word	0xd5a8a733
200072d4:	3949f623 	.word	0x3949f623
200072d8:	2246c99c 	.word	0x2246c99c
200072dc:	46c8a6e3 	.word	0x46c8a6e3
200072e0:	97d889bc 	.word	0x97d889bc
200072e4:	3c9cd2b2 	.word	0x3c9cd2b2
200072e8:	85d8a000 	.word	0x85d8a000
200072ec:	43763457 	.word	0x43763457
200072f0:	e2308c3a 	.word	0xe2308c3a
200072f4:	3e45798e 	.word	0x3e45798e
200072f8:	00000000 	.word	0x00000000
200072fc:	41cdcd65 	.word	0x41cdcd65
20007300:	eb1c432d 	.word	0xeb1c432d
20007304:	3f1a36e2 	.word	0x3f1a36e2
20007308:	00000000 	.word	0x00000000
2000730c:	40f86a00 	.word	0x40f86a00
20007310:	47ae147b 	.word	0x47ae147b
20007314:	3f847ae1 	.word	0x3f847ae1
20007318:	f1ba 0f42 	cmp.w	sl, #66	@ 0x42
2000731c:	f43f af78 	beq.w	20007210 <StreamPrintArg+0xe28>
20007320:	f1ba 0f74 	cmp.w	sl, #116	@ 0x74
20007324:	d11a      	bne.n	2000735c <StreamPrintArg+0xf74>
20007326:	9b01      	ldr	r3, [sp, #4]
20007328:	07db      	lsls	r3, r3, #31
2000732a:	f53f af71 	bmi.w	20007210 <StreamPrintArg+0xe28>
2000732e:	ab13      	add	r3, sp, #76	@ 0x4c
20007330:	429d      	cmp	r5, r3
20007332:	d909      	bls.n	20007348 <StreamPrintArg+0xf60>
20007334:	f815 3c01 	ldrb.w	r3, [r5, #-1]
20007338:	2b2e      	cmp	r3, #46	@ 0x2e
2000733a:	bf08      	it	eq
2000733c:	f105 35ff 	addeq.w	r5, r5, #4294967295
20007340:	f1ba 0f54 	cmp.w	sl, #84	@ 0x54
20007344:	f000 8288 	beq.w	20007858 <StreamPrintArg+0x1470>
20007348:	b924      	cbnz	r4, 20007354 <StreamPrintArg+0xf6c>
2000734a:	9b09      	ldr	r3, [sp, #36]	@ 0x24
2000734c:	9a01      	ldr	r2, [sp, #4]
2000734e:	ea23 0302 	bic.w	r3, r3, r2
20007352:	9309      	str	r3, [sp, #36]	@ 0x24
20007354:	9b09      	ldr	r3, [sp, #36]	@ 0x24
20007356:	b37b      	cbz	r3, 200073b8 <StreamPrintArg+0xfd0>
20007358:	2365      	movs	r3, #101	@ 0x65
2000735a:	e00d      	b.n	20007378 <StreamPrintArg+0xf90>
2000735c:	3b45      	subs	r3, #69	@ 0x45
2000735e:	2b01      	cmp	r3, #1
20007360:	d935      	bls.n	200073ce <StreamPrintArg+0xfe6>
20007362:	f1ba 0f54 	cmp.w	sl, #84	@ 0x54
20007366:	f000 8273 	beq.w	20007850 <StreamPrintArg+0x1468>
2000736a:	9b09      	ldr	r3, [sp, #36]	@ 0x24
2000736c:	b323      	cbz	r3, 200073b8 <StreamPrintArg+0xfd0>
2000736e:	f1ba 0f5a 	cmp.w	sl, #90	@ 0x5a
20007372:	bf8c      	ite	hi
20007374:	2365      	movhi	r3, #101	@ 0x65
20007376:	2345      	movls	r3, #69	@ 0x45
20007378:	2c00      	cmp	r4, #0
2000737a:	702b      	strb	r3, [r5, #0]
2000737c:	bfac      	ite	ge
2000737e:	232b      	movge	r3, #43	@ 0x2b
20007380:	232d      	movlt	r3, #45	@ 0x2d
20007382:	2c00      	cmp	r4, #0
20007384:	bfb8      	it	lt
20007386:	4264      	neglt	r4, r4
20007388:	2c63      	cmp	r4, #99	@ 0x63
2000738a:	706b      	strb	r3, [r5, #1]
2000738c:	dd31      	ble.n	200073f2 <StreamPrintArg+0x100a>
2000738e:	2264      	movs	r2, #100	@ 0x64
20007390:	fbb4 f3f2 	udiv	r3, r4, r2
20007394:	f103 0130 	add.w	r1, r3, #48	@ 0x30
20007398:	fb02 4313 	mls	r3, r2, r3, r4
2000739c:	220a      	movs	r2, #10
2000739e:	fbb3 f4f2 	udiv	r4, r3, r2
200073a2:	f104 0030 	add.w	r0, r4, #48	@ 0x30
200073a6:	fb02 3414 	mls	r4, r2, r4, r3
200073aa:	70a9      	strb	r1, [r5, #2]
200073ac:	70e8      	strb	r0, [r5, #3]
200073ae:	1d29      	adds	r1, r5, #4
200073b0:	460d      	mov	r5, r1
200073b2:	3430      	adds	r4, #48	@ 0x30
200073b4:	f805 4b01 	strb.w	r4, [r5], #1
200073b8:	9b01      	ldr	r3, [sp, #4]
200073ba:	ac13      	add	r4, sp, #76	@ 0x4c
200073bc:	f043 0320 	orr.w	r3, r3, #32
200073c0:	9301      	str	r3, [sp, #4]
200073c2:	2300      	movs	r3, #0
200073c4:	702b      	strb	r3, [r5, #0]
200073c6:	469b      	mov	fp, r3
200073c8:	1b2d      	subs	r5, r5, r4
200073ca:	f7ff bbb7 	b.w	20006b3c <StreamPrintArg+0x754>
200073ce:	9b01      	ldr	r3, [sp, #4]
200073d0:	07df      	lsls	r7, r3, #31
200073d2:	d5ca      	bpl.n	2000736a <StreamPrintArg+0xf82>
200073d4:	e71c      	b.n	20007210 <StreamPrintArg+0xe28>
200073d6:	9b0d      	ldr	r3, [sp, #52]	@ 0x34
200073d8:	2b00      	cmp	r3, #0
200073da:	f47f af44 	bne.w	20007266 <StreamPrintArg+0xe7e>
200073de:	f1ba 0f42 	cmp.w	sl, #66	@ 0x42
200073e2:	d101      	bne.n	200073e8 <StreamPrintArg+0x1000>
200073e4:	f805 ab01 	strb.w	sl, [r5], #1
200073e8:	9b09      	ldr	r3, [sp, #36]	@ 0x24
200073ea:	2b00      	cmp	r3, #0
200073ec:	d0e4      	beq.n	200073b8 <StreamPrintArg+0xfd0>
200073ee:	2345      	movs	r3, #69	@ 0x45
200073f0:	e7c2      	b.n	20007378 <StreamPrintArg+0xf90>
200073f2:	2c09      	cmp	r4, #9
200073f4:	bfc1      	itttt	gt
200073f6:	220a      	movgt	r2, #10
200073f8:	fbb4 f3f2 	udivgt	r3, r4, r2
200073fc:	f103 0030 	addgt.w	r0, r3, #48	@ 0x30
20007400:	fb02 4413 	mlsgt	r4, r2, r3, r4
20007404:	bfd2      	itee	le
20007406:	1ca9      	addle	r1, r5, #2
20007408:	1ce9      	addgt	r1, r5, #3
2000740a:	70a8      	strbgt	r0, [r5, #2]
2000740c:	e7d0      	b.n	200073b0 <StreamPrintArg+0xfc8>
2000740e:	9b01      	ldr	r3, [sp, #4]
20007410:	f013 0508 	ands.w	r5, r3, #8
20007414:	d00b      	beq.n	2000742e <StreamPrintArg+0x1046>
20007416:	f108 0307 	add.w	r3, r8, #7
2000741a:	f023 0307 	bic.w	r3, r3, #7
2000741e:	461e      	mov	r6, r3
20007420:	685d      	ldr	r5, [r3, #4]
20007422:	2301      	movs	r3, #1
20007424:	f856 7b08 	ldr.w	r7, [r6], #8
20007428:	2200      	movs	r2, #0
2000742a:	f7ff baee 	b.w	20006a0a <StreamPrintArg+0x622>
2000742e:	4646      	mov	r6, r8
20007430:	2301      	movs	r3, #1
20007432:	f856 7b04 	ldr.w	r7, [r6], #4
20007436:	9503      	str	r5, [sp, #12]
20007438:	f7ff baed 	b.w	20006a16 <StreamPrintArg+0x62e>
2000743c:	9b01      	ldr	r3, [sp, #4]
2000743e:	f013 0308 	ands.w	r3, r3, #8
20007442:	d00b      	beq.n	2000745c <StreamPrintArg+0x1074>
20007444:	f108 0307 	add.w	r3, r8, #7
20007448:	f023 0307 	bic.w	r3, r3, #7
2000744c:	461e      	mov	r6, r3
2000744e:	685d      	ldr	r5, [r3, #4]
20007450:	2300      	movs	r3, #0
20007452:	f856 7b08 	ldr.w	r7, [r6], #8
20007456:	9303      	str	r3, [sp, #12]
20007458:	f7ff badd 	b.w	20006a16 <StreamPrintArg+0x62e>
2000745c:	4646      	mov	r6, r8
2000745e:	461d      	mov	r5, r3
20007460:	f856 7b04 	ldr.w	r7, [r6], #4
20007464:	e7f7      	b.n	20007456 <StreamPrintArg+0x106e>
20007466:	9b01      	ldr	r3, [sp, #4]
20007468:	f043 0302 	orr.w	r3, r3, #2
2000746c:	9301      	str	r3, [sp, #4]
2000746e:	4646      	mov	r6, r8
20007470:	f856 7b04 	ldr.w	r7, [r6], #4
20007474:	2500      	movs	r5, #0
20007476:	2f00      	cmp	r7, #0
20007478:	d059      	beq.n	2000752e <StreamPrintArg+0x1146>
2000747a:	2278      	movs	r2, #120	@ 0x78
2000747c:	f04f 0b08 	mov.w	fp, #8
20007480:	9b01      	ldr	r3, [sp, #4]
20007482:	f88d 204a 	strb.w	r2, [sp, #74]	@ 0x4a
20007486:	f083 0301 	eor.w	r3, r3, #1
2000748a:	f023 0310 	bic.w	r3, r3, #16
2000748e:	9301      	str	r3, [sp, #4]
20007490:	9503      	str	r5, [sp, #12]
20007492:	9b01      	ldr	r3, [sp, #4]
20007494:	f013 0302 	ands.w	r3, r3, #2
20007498:	f040 812a 	bne.w	200076f0 <StreamPrintArg+0x1308>
2000749c:	4638      	mov	r0, r7
2000749e:	46ac      	mov	ip, r5
200074a0:	f04f 0a27 	mov.w	sl, #39	@ 0x27
200074a4:	9c01      	ldr	r4, [sp, #4]
200074a6:	9305      	str	r3, [sp, #20]
200074a8:	f004 0440 	and.w	r4, r4, #64	@ 0x40
200074ac:	f10d 029e 	add.w	r2, sp, #158	@ 0x9e
200074b0:	9406      	str	r4, [sp, #24]
200074b2:	49ac      	ldr	r1, [pc, #688]	@ (20007764 <StreamPrintArg+0x137c>)
200074b4:	f000 0e0f 	and.w	lr, r0, #15
200074b8:	f811 e00e 	ldrb.w	lr, [r1, lr]
200074bc:	9905      	ldr	r1, [sp, #20]
200074be:	f802 ec01 	strb.w	lr, [r2, #-1]
200074c2:	3101      	adds	r1, #1
200074c4:	ea4f 1e10 	mov.w	lr, r0, lsr #4
200074c8:	9105      	str	r1, [sp, #20]
200074ca:	9906      	ldr	r1, [sp, #24]
200074cc:	ea4e 7e0c 	orr.w	lr, lr, ip, lsl #28
200074d0:	ea4f 181c 	mov.w	r8, ip, lsr #4
200074d4:	4670      	mov	r0, lr
200074d6:	46c4      	mov	ip, r8
200074d8:	1e54      	subs	r4, r2, #1
200074da:	3301      	adds	r3, #1
200074dc:	b169      	cbz	r1, 200074fa <StreamPrintArg+0x1112>
200074de:	9905      	ldr	r1, [sp, #20]
200074e0:	2904      	cmp	r1, #4
200074e2:	d10a      	bne.n	200074fa <StreamPrintArg+0x1112>
200074e4:	ea5e 0108 	orrs.w	r1, lr, r8
200074e8:	d102      	bne.n	200074f0 <StreamPrintArg+0x1108>
200074ea:	455b      	cmp	r3, fp
200074ec:	f280 80f8 	bge.w	200076e0 <StreamPrintArg+0x12f8>
200074f0:	1e94      	subs	r4, r2, #2
200074f2:	f802 ac02 	strb.w	sl, [r2, #-2]
200074f6:	2200      	movs	r2, #0
200074f8:	9205      	str	r2, [sp, #20]
200074fa:	ea5e 0808 	orrs.w	r8, lr, r8
200074fe:	d102      	bne.n	20007506 <StreamPrintArg+0x111e>
20007500:	455b      	cmp	r3, fp
20007502:	f280 80ed 	bge.w	200076e0 <StreamPrintArg+0x12f8>
20007506:	4622      	mov	r2, r4
20007508:	e7d3      	b.n	200074b2 <StreamPrintArg+0x10ca>
2000750a:	4643      	mov	r3, r8
2000750c:	f853 4b04 	ldr.w	r4, [r3], #4
20007510:	4698      	mov	r8, r3
20007512:	4b95      	ldr	r3, [pc, #596]	@ (20007768 <StreamPrintArg+0x1380>)
20007514:	2c00      	cmp	r4, #0
20007516:	bf08      	it	eq
20007518:	461c      	moveq	r4, r3
2000751a:	f1bb 3fff 	cmp.w	fp, #4294967295
2000751e:	d117      	bne.n	20007550 <StreamPrintArg+0x1168>
20007520:	4620      	mov	r0, r4
20007522:	f7fe ff57 	bl	200063d4 <StrLen>
20007526:	4605      	mov	r5, r0
20007528:	e00c      	b.n	20007544 <StreamPrintArg+0x115c>
2000752a:	46d0      	mov	r8, sl
2000752c:	e7f1      	b.n	20007512 <StreamPrintArg+0x112a>
2000752e:	46b0      	mov	r8, r6
20007530:	4c8d      	ldr	r4, [pc, #564]	@ (20007768 <StreamPrintArg+0x1380>)
20007532:	e7f2      	b.n	2000751a <StreamPrintArg+0x1132>
20007534:	5d63      	ldrb	r3, [r4, r5]
20007536:	9303      	str	r3, [sp, #12]
20007538:	2b00      	cmp	r3, #0
2000753a:	f000 8100 	beq.w	2000773e <StreamPrintArg+0x1356>
2000753e:	3501      	adds	r5, #1
20007540:	455d      	cmp	r5, fp
20007542:	d1f7      	bne.n	20007534 <StreamPrintArg+0x114c>
20007544:	f04f 0b00 	mov.w	fp, #0
20007548:	f8cd b00c 	str.w	fp, [sp, #12]
2000754c:	f7ff baf6 	b.w	20006b3c <StreamPrintArg+0x754>
20007550:	2500      	movs	r5, #0
20007552:	e7f5      	b.n	20007540 <StreamPrintArg+0x1158>
20007554:	9b01      	ldr	r3, [sp, #4]
20007556:	f013 0508 	ands.w	r5, r3, #8
2000755a:	d009      	beq.n	20007570 <StreamPrintArg+0x1188>
2000755c:	f108 0307 	add.w	r3, r8, #7
20007560:	f023 0307 	bic.w	r3, r3, #7
20007564:	461e      	mov	r6, r3
20007566:	685d      	ldr	r5, [r3, #4]
20007568:	f856 7b08 	ldr.w	r7, [r6], #8
2000756c:	2302      	movs	r3, #2
2000756e:	e75b      	b.n	20007428 <StreamPrintArg+0x1040>
20007570:	4646      	mov	r6, r8
20007572:	2302      	movs	r3, #2
20007574:	f856 7b04 	ldr.w	r7, [r6], #4
20007578:	e75d      	b.n	20007436 <StreamPrintArg+0x104e>
2000757a:	9b01      	ldr	r3, [sp, #4]
2000757c:	f043 0302 	orr.w	r3, r3, #2
20007580:	9301      	str	r3, [sp, #4]
20007582:	9b01      	ldr	r3, [sp, #4]
20007584:	f013 0508 	ands.w	r5, r3, #8
20007588:	d009      	beq.n	2000759e <StreamPrintArg+0x11b6>
2000758a:	f108 0307 	add.w	r3, r8, #7
2000758e:	f023 0307 	bic.w	r3, r3, #7
20007592:	461e      	mov	r6, r3
20007594:	685d      	ldr	r5, [r3, #4]
20007596:	f856 7b08 	ldr.w	r7, [r6], #8
2000759a:	2303      	movs	r3, #3
2000759c:	e744      	b.n	20007428 <StreamPrintArg+0x1040>
2000759e:	4646      	mov	r6, r8
200075a0:	2303      	movs	r3, #3
200075a2:	f856 7b04 	ldr.w	r7, [r6], #4
200075a6:	e746      	b.n	20007436 <StreamPrintArg+0x104e>
200075a8:	4622      	mov	r2, r4
200075aa:	f7ff ba58 	b.w	20006a5e <StreamPrintArg+0x676>
200075ae:	4622      	mov	r2, r4
200075b0:	9905      	ldr	r1, [sp, #20]
200075b2:	f000 0e07 	and.w	lr, r0, #7
200075b6:	f10e 0e30 	add.w	lr, lr, #48	@ 0x30
200075ba:	3101      	adds	r1, #1
200075bc:	f802 ec01 	strb.w	lr, [r2, #-1]
200075c0:	9105      	str	r1, [sp, #20]
200075c2:	ea4f 0ed0 	mov.w	lr, r0, lsr #3
200075c6:	9906      	ldr	r1, [sp, #24]
200075c8:	ea4e 7e4c 	orr.w	lr, lr, ip, lsl #29
200075cc:	ea4f 08dc 	mov.w	r8, ip, lsr #3
200075d0:	4670      	mov	r0, lr
200075d2:	46c4      	mov	ip, r8
200075d4:	1e54      	subs	r4, r2, #1
200075d6:	3301      	adds	r3, #1
200075d8:	b161      	cbz	r1, 200075f4 <StreamPrintArg+0x120c>
200075da:	9905      	ldr	r1, [sp, #20]
200075dc:	2903      	cmp	r1, #3
200075de:	d109      	bne.n	200075f4 <StreamPrintArg+0x120c>
200075e0:	ea5e 0108 	orrs.w	r1, lr, r8
200075e4:	d101      	bne.n	200075ea <StreamPrintArg+0x1202>
200075e6:	455b      	cmp	r3, fp
200075e8:	da09      	bge.n	200075fe <StreamPrintArg+0x1216>
200075ea:	1e94      	subs	r4, r2, #2
200075ec:	f802 ac02 	strb.w	sl, [r2, #-2]
200075f0:	2200      	movs	r2, #0
200075f2:	9205      	str	r2, [sp, #20]
200075f4:	ea5e 0808 	orrs.w	r8, lr, r8
200075f8:	d1d9      	bne.n	200075ae <StreamPrintArg+0x11c6>
200075fa:	455b      	cmp	r3, fp
200075fc:	dbd7      	blt.n	200075ae <StreamPrintArg+0x11c6>
200075fe:	9b01      	ldr	r3, [sp, #4]
20007600:	07d9      	lsls	r1, r3, #31
20007602:	d504      	bpl.n	2000760e <StreamPrintArg+0x1226>
20007604:	433d      	orrs	r5, r7
20007606:	d002      	beq.n	2000760e <StreamPrintArg+0x1226>
20007608:	2330      	movs	r3, #48	@ 0x30
2000760a:	3c01      	subs	r4, #1
2000760c:	7023      	strb	r3, [r4, #0]
2000760e:	f10d 059e 	add.w	r5, sp, #158	@ 0x9e
20007612:	46b0      	mov	r8, r6
20007614:	1b2d      	subs	r5, r5, r4
20007616:	f7ff ba91 	b.w	20006b3c <StreamPrintArg+0x754>
2000761a:	4607      	mov	r7, r0
2000761c:	460d      	mov	r5, r1
2000761e:	46a2      	mov	sl, r4
20007620:	220a      	movs	r2, #10
20007622:	2300      	movs	r3, #0
20007624:	4638      	mov	r0, r7
20007626:	4629      	mov	r1, r5
20007628:	f001 fc52 	bl	20008ed0 <__aeabi_uldivmod>
2000762c:	9b05      	ldr	r3, [sp, #20]
2000762e:	3230      	adds	r2, #48	@ 0x30
20007630:	3301      	adds	r3, #1
20007632:	9305      	str	r3, [sp, #20]
20007634:	9b06      	ldr	r3, [sp, #24]
20007636:	f10a 34ff 	add.w	r4, sl, #4294967295
2000763a:	f80a 2c01 	strb.w	r2, [sl, #-1]
2000763e:	f108 0801 	add.w	r8, r8, #1
20007642:	b183      	cbz	r3, 20007666 <StreamPrintArg+0x127e>
20007644:	9b05      	ldr	r3, [sp, #20]
20007646:	2b03      	cmp	r3, #3
20007648:	d10d      	bne.n	20007666 <StreamPrintArg+0x127e>
2000764a:	2f0a      	cmp	r7, #10
2000764c:	f175 0300 	sbcs.w	r3, r5, #0
20007650:	d201      	bcs.n	20007656 <StreamPrintArg+0x126e>
20007652:	45d8      	cmp	r8, fp
20007654:	dadb      	bge.n	2000760e <StreamPrintArg+0x1226>
20007656:	f04f 0327 	mov.w	r3, #39	@ 0x27
2000765a:	f80a 3c02 	strb.w	r3, [sl, #-2]
2000765e:	2300      	movs	r3, #0
20007660:	f1aa 0402 	sub.w	r4, sl, #2
20007664:	9305      	str	r3, [sp, #20]
20007666:	2f0a      	cmp	r7, #10
20007668:	f175 0500 	sbcs.w	r5, r5, #0
2000766c:	d2d5      	bcs.n	2000761a <StreamPrintArg+0x1232>
2000766e:	45d8      	cmp	r8, fp
20007670:	dacd      	bge.n	2000760e <StreamPrintArg+0x1226>
20007672:	2700      	movs	r7, #0
20007674:	463d      	mov	r5, r7
20007676:	e7d2      	b.n	2000761e <StreamPrintArg+0x1236>
20007678:	f04f 0800 	mov.w	r8, #0
2000767c:	9b01      	ldr	r3, [sp, #4]
2000767e:	f8cd 8014 	str.w	r8, [sp, #20]
20007682:	f003 0340 	and.w	r3, r3, #64	@ 0x40
20007686:	f10d 0a9e 	add.w	sl, sp, #158	@ 0x9e
2000768a:	9306      	str	r3, [sp, #24]
2000768c:	e7c8      	b.n	20007620 <StreamPrintArg+0x1238>
2000768e:	4622      	mov	r2, r4
20007690:	4936      	ldr	r1, [pc, #216]	@ (2000776c <StreamPrintArg+0x1384>)
20007692:	f000 0e0f 	and.w	lr, r0, #15
20007696:	f811 e00e 	ldrb.w	lr, [r1, lr]
2000769a:	9905      	ldr	r1, [sp, #20]
2000769c:	f802 ec01 	strb.w	lr, [r2, #-1]
200076a0:	3101      	adds	r1, #1
200076a2:	ea4f 1e10 	mov.w	lr, r0, lsr #4
200076a6:	9105      	str	r1, [sp, #20]
200076a8:	9906      	ldr	r1, [sp, #24]
200076aa:	ea4e 7e0c 	orr.w	lr, lr, ip, lsl #28
200076ae:	ea4f 181c 	mov.w	r8, ip, lsr #4
200076b2:	4670      	mov	r0, lr
200076b4:	46c4      	mov	ip, r8
200076b6:	1e54      	subs	r4, r2, #1
200076b8:	3301      	adds	r3, #1
200076ba:	b161      	cbz	r1, 200076d6 <StreamPrintArg+0x12ee>
200076bc:	9905      	ldr	r1, [sp, #20]
200076be:	2904      	cmp	r1, #4
200076c0:	d109      	bne.n	200076d6 <StreamPrintArg+0x12ee>
200076c2:	ea5e 0108 	orrs.w	r1, lr, r8
200076c6:	d101      	bne.n	200076cc <StreamPrintArg+0x12e4>
200076c8:	455b      	cmp	r3, fp
200076ca:	da09      	bge.n	200076e0 <StreamPrintArg+0x12f8>
200076cc:	1e94      	subs	r4, r2, #2
200076ce:	f802 ac02 	strb.w	sl, [r2, #-2]
200076d2:	2200      	movs	r2, #0
200076d4:	9205      	str	r2, [sp, #20]
200076d6:	ea5e 0808 	orrs.w	r8, lr, r8
200076da:	d1d8      	bne.n	2000768e <StreamPrintArg+0x12a6>
200076dc:	455b      	cmp	r3, fp
200076de:	dbd6      	blt.n	2000768e <StreamPrintArg+0x12a6>
200076e0:	9b01      	ldr	r3, [sp, #4]
200076e2:	07da      	lsls	r2, r3, #31
200076e4:	d593      	bpl.n	2000760e <StreamPrintArg+0x1226>
200076e6:	433d      	orrs	r5, r7
200076e8:	d091      	beq.n	2000760e <StreamPrintArg+0x1226>
200076ea:	2378      	movs	r3, #120	@ 0x78
200076ec:	f7ff b9e8 	b.w	20006ac0 <StreamPrintArg+0x6d8>
200076f0:	2300      	movs	r3, #0
200076f2:	9c01      	ldr	r4, [sp, #4]
200076f4:	4638      	mov	r0, r7
200076f6:	f004 0440 	and.w	r4, r4, #64	@ 0x40
200076fa:	46ac      	mov	ip, r5
200076fc:	f04f 0a27 	mov.w	sl, #39	@ 0x27
20007700:	9305      	str	r3, [sp, #20]
20007702:	f10d 029e 	add.w	r2, sp, #158	@ 0x9e
20007706:	9406      	str	r4, [sp, #24]
20007708:	e7c2      	b.n	20007690 <StreamPrintArg+0x12a8>
2000770a:	f10d 049e 	add.w	r4, sp, #158	@ 0x9e
2000770e:	e77e      	b.n	2000760e <StreamPrintArg+0x1226>
20007710:	f88d a04c 	strb.w	sl, [sp, #76]	@ 0x4c
20007714:	f7fe bfb3 	b.w	2000667e <StreamPrintArg+0x296>
20007718:	2300      	movs	r3, #0
2000771a:	f88d 304a 	strb.w	r3, [sp, #74]	@ 0x4a
2000771e:	f8cd a00c 	str.w	sl, [sp, #12]
20007722:	f7fe bea0 	b.w	20006466 <StreamPrintArg+0x7e>
20007726:	2200      	movs	r2, #0
20007728:	4698      	mov	r8, r3
2000772a:	f88d 204a 	strb.w	r2, [sp, #74]	@ 0x4a
2000772e:	f7fe be9a 	b.w	20006466 <StreamPrintArg+0x7e>
20007732:	9b03      	ldr	r3, [sp, #12]
20007734:	e7f1      	b.n	2000771a <StreamPrintArg+0x1332>
20007736:	46d3      	mov	fp, sl
20007738:	4655      	mov	r5, sl
2000773a:	f7ff b9ff 	b.w	20006b3c <StreamPrintArg+0x754>
2000773e:	f8dd b00c 	ldr.w	fp, [sp, #12]
20007742:	f7ff b9fb 	b.w	20006b3c <StreamPrintArg+0x754>
20007746:	9306      	str	r3, [sp, #24]
20007748:	2201      	movs	r2, #1
2000774a:	f8d9 3014 	ldr.w	r3, [r9, #20]
2000774e:	4648      	mov	r0, r9
20007750:	f10d 014b 	add.w	r1, sp, #75	@ 0x4b
20007754:	f88d a04b 	strb.w	sl, [sp, #75]	@ 0x4b
20007758:	3f01      	subs	r7, #1
2000775a:	4798      	blx	r3
2000775c:	9b06      	ldr	r3, [sp, #24]
2000775e:	f7ff ba04 	b.w	20006b6a <StreamPrintArg+0x782>
20007762:	bf00      	nop
20007764:	20009a27 	.word	0x20009a27
20007768:	20009623 	.word	0x20009623
2000776c:	20009a38 	.word	0x20009a38
20007770:	9b03      	ldr	r3, [sp, #12]
20007772:	b163      	cbz	r3, 2000778e <StreamPrintArg+0x13a6>
20007774:	9b03      	ldr	r3, [sp, #12]
20007776:	2201      	movs	r2, #1
20007778:	f88d 304b 	strb.w	r3, [sp, #75]	@ 0x4b
2000777c:	4648      	mov	r0, r9
2000777e:	f8d9 3014 	ldr.w	r3, [r9, #20]
20007782:	f10d 014b 	add.w	r1, sp, #75	@ 0x4b
20007786:	4798      	blx	r3
20007788:	9b02      	ldr	r3, [sp, #8]
2000778a:	3301      	adds	r3, #1
2000778c:	9302      	str	r3, [sp, #8]
2000778e:	9b05      	ldr	r3, [sp, #20]
20007790:	2b10      	cmp	r3, #16
20007792:	f47f a9f6 	bne.w	20006b82 <StreamPrintArg+0x79a>
20007796:	9b04      	ldr	r3, [sp, #16]
20007798:	eba3 0a06 	sub.w	sl, r3, r6
2000779c:	4657      	mov	r7, sl
2000779e:	2f00      	cmp	r7, #0
200077a0:	dc07      	bgt.n	200077b2 <StreamPrintArg+0x13ca>
200077a2:	9b02      	ldr	r3, [sp, #8]
200077a4:	f1ba 0f00 	cmp.w	sl, #0
200077a8:	bfa8      	it	ge
200077aa:	4453      	addge	r3, sl
200077ac:	9302      	str	r3, [sp, #8]
200077ae:	f7ff b9e8 	b.w	20006b82 <StreamPrintArg+0x79a>
200077b2:	f04f 0330 	mov.w	r3, #48	@ 0x30
200077b6:	2201      	movs	r2, #1
200077b8:	f88d 304b 	strb.w	r3, [sp, #75]	@ 0x4b
200077bc:	4648      	mov	r0, r9
200077be:	f8d9 3014 	ldr.w	r3, [r9, #20]
200077c2:	f10d 014b 	add.w	r1, sp, #75	@ 0x4b
200077c6:	4798      	blx	r3
200077c8:	3f01      	subs	r7, #1
200077ca:	e7e8      	b.n	2000779e <StreamPrintArg+0x13b6>
200077cc:	2201      	movs	r2, #1
200077ce:	4648      	mov	r0, r9
200077d0:	f8d9 3014 	ldr.w	r3, [r9, #20]
200077d4:	f10d 014b 	add.w	r1, sp, #75	@ 0x4b
200077d8:	f88d b04b 	strb.w	fp, [sp, #75]	@ 0x4b
200077dc:	f10a 3aff 	add.w	sl, sl, #4294967295
200077e0:	4798      	blx	r3
200077e2:	f7ff b9d3 	b.w	20006b8c <StreamPrintArg+0x7a4>
200077e6:	f81a 3b01 	ldrb.w	r3, [sl], #1
200077ea:	2201      	movs	r2, #1
200077ec:	f88d 304b 	strb.w	r3, [sp, #75]	@ 0x4b
200077f0:	4648      	mov	r0, r9
200077f2:	f8d9 3014 	ldr.w	r3, [r9, #20]
200077f6:	f10d 014b 	add.w	r1, sp, #75	@ 0x4b
200077fa:	4798      	blx	r3
200077fc:	f7ff b9cf 	b.w	20006b9e <StreamPrintArg+0x7b6>
20007800:	9b04      	ldr	r3, [sp, #16]
20007802:	2720      	movs	r7, #32
20007804:	1b9e      	subs	r6, r3, r6
20007806:	4635      	mov	r5, r6
20007808:	2d00      	cmp	r5, #0
2000780a:	dc08      	bgt.n	2000781e <StreamPrintArg+0x1436>
2000780c:	9a02      	ldr	r2, [sp, #8]
2000780e:	ea26 73e6 	bic.w	r3, r6, r6, asr #31
20007812:	441a      	add	r2, r3
20007814:	3e01      	subs	r6, #1
20007816:	9202      	str	r2, [sp, #8]
20007818:	1af3      	subs	r3, r6, r3
2000781a:	f7fe bdf8 	b.w	2000640e <StreamPrintArg+0x26>
2000781e:	2201      	movs	r2, #1
20007820:	4648      	mov	r0, r9
20007822:	f8d9 3014 	ldr.w	r3, [r9, #20]
20007826:	f10d 014b 	add.w	r1, sp, #75	@ 0x4b
2000782a:	f88d 704b 	strb.w	r7, [sp, #75]	@ 0x4b
2000782e:	3d01      	subs	r5, #1
20007830:	4798      	blx	r3
20007832:	e7e9      	b.n	20007808 <StreamPrintArg+0x1420>
20007834:	f8d9 3010 	ldr.w	r3, [r9, #16]
20007838:	b10b      	cbz	r3, 2000783e <StreamPrintArg+0x1456>
2000783a:	4648      	mov	r0, r9
2000783c:	4798      	blx	r3
2000783e:	9b08      	ldr	r3, [sp, #32]
20007840:	691b      	ldr	r3, [r3, #16]
20007842:	b10b      	cbz	r3, 20007848 <StreamPrintArg+0x1460>
20007844:	9808      	ldr	r0, [sp, #32]
20007846:	4798      	blx	r3
20007848:	9802      	ldr	r0, [sp, #8]
2000784a:	b029      	add	sp, #164	@ 0xa4
2000784c:	e8bd 8ff0 	ldmia.w	sp!, {r4, r5, r6, r7, r8, r9, sl, fp, pc}
20007850:	ab13      	add	r3, sp, #76	@ 0x4c
20007852:	429d      	cmp	r5, r3
20007854:	f63f ad6e 	bhi.w	20007334 <StreamPrintArg+0xf4c>
20007858:	2300      	movs	r3, #0
2000785a:	9309      	str	r3, [sp, #36]	@ 0x24
2000785c:	e4ed      	b.n	2000723a <StreamPrintArg+0xe52>
2000785e:	2300      	movs	r3, #0
20007860:	930b      	str	r3, [sp, #44]	@ 0x2c
20007862:	f7ff bae6 	b.w	20006e32 <StreamPrintArg+0xa4a>
20007866:	f1ba 0f74 	cmp.w	sl, #116	@ 0x74
2000786a:	f47f ace2 	bne.w	20007232 <StreamPrintArg+0xe4a>
2000786e:	e56b      	b.n	20007348 <StreamPrintArg+0xf60>

20007870 <MemPrintArg>:
20007870:	b5f0      	push	{r4, r5, r6, r7, lr}
20007872:	4606      	mov	r6, r0
20007874:	b08f      	sub	sp, #60	@ 0x3c
20007876:	4610      	mov	r0, r2
20007878:	461f      	mov	r7, r3
2000787a:	2400      	movs	r4, #0
2000787c:	460d      	mov	r5, r1
2000787e:	4611      	mov	r1, r2
20007880:	f7fe fda8 	bl	200063d4 <StrLen>
20007884:	4b0f      	ldr	r3, [pc, #60]	@ (200078c4 <MemPrintArg+0x54>)
20007886:	e9cd 440a 	strd	r4, r4, [sp, #40]	@ 0x28
2000788a:	930c      	str	r3, [sp, #48]	@ 0x30
2000788c:	4b0e      	ldr	r3, [pc, #56]	@ (200078c8 <MemPrintArg+0x58>)
2000788e:	e9cd 0108 	strd	r0, r1, [sp, #32]
20007892:	9407      	str	r4, [sp, #28]
20007894:	930d      	str	r3, [sp, #52]	@ 0x34
20007896:	b19d      	cbz	r5, 200078c0 <MemPrintArg+0x50>
20007898:	1e6b      	subs	r3, r5, #1
2000789a:	4a0c      	ldr	r2, [pc, #48]	@ (200078cc <MemPrintArg+0x5c>)
2000789c:	e9cd 3601 	strd	r3, r6, [sp, #4]
200078a0:	4b0b      	ldr	r3, [pc, #44]	@ (200078d0 <MemPrintArg+0x60>)
200078a2:	9206      	str	r2, [sp, #24]
200078a4:	4668      	mov	r0, sp
200078a6:	463a      	mov	r2, r7
200078a8:	a907      	add	r1, sp, #28
200078aa:	e9cd 4403 	strd	r4, r4, [sp, #12]
200078ae:	9400      	str	r4, [sp, #0]
200078b0:	9305      	str	r3, [sp, #20]
200078b2:	f7fe fd99 	bl	200063e8 <StreamPrintArg>
200078b6:	b10d      	cbz	r5, 200078bc <MemPrintArg+0x4c>
200078b8:	9b00      	ldr	r3, [sp, #0]
200078ba:	54f4      	strb	r4, [r6, r3]
200078bc:	b00f      	add	sp, #60	@ 0x3c
200078be:	bdf0      	pop	{r4, r5, r6, r7, pc}
200078c0:	462b      	mov	r3, r5
200078c2:	e7ea      	b.n	2000789a <MemPrintArg+0x2a>
200078c4:	20003e29 	.word	0x20003e29
200078c8:	20003e65 	.word	0x20003e65
200078cc:	20003e2d 	.word	0x20003e2d
200078d0:	20003e31 	.word	0x20003e31

200078d4 <MemPrint>:
200078d4:	b40c      	push	{r2, r3}
200078d6:	b507      	push	{r0, r1, r2, lr}
200078d8:	ab04      	add	r3, sp, #16
200078da:	f853 2b04 	ldr.w	r2, [r3], #4
200078de:	9301      	str	r3, [sp, #4]
200078e0:	f7ff ffc6 	bl	20007870 <MemPrintArg>
200078e4:	b003      	add	sp, #12
200078e6:	f85d eb04 	ldr.w	lr, [sp], #4
200078ea:	b002      	add	sp, #8
200078ec:	4770      	bx	lr
	...

200078f0 <DispWriteCmd>:
200078f0:	b513      	push	{r0, r1, r4, lr}
200078f2:	2415      	movs	r4, #21
200078f4:	f88d 0007 	strb.w	r0, [sp, #7]
200078f8:	eee0 4010 			@ <UNDEFINED> instruction: 0xeee04010
200078fc:	2311      	movs	r3, #17
200078fe:	eee0 3010 			@ <UNDEFINED> instruction: 0xeee03010
20007902:	2201      	movs	r2, #1
20007904:	4804      	ldr	r0, [pc, #16]	@ (20007918 <DispWriteCmd+0x28>)
20007906:	f10d 0107 	add.w	r1, sp, #7
2000790a:	f7fa f927 	bl	20001b5c <SPI_Send8_hw>
2000790e:	eec0 4010 			@ <UNDEFINED> instruction: 0xeec04010
20007912:	b002      	add	sp, #8
20007914:	bd10      	pop	{r4, pc}
20007916:	bf00      	nop
20007918:	40080000 	.word	0x40080000

2000791c <DispWriteData>:
2000791c:	b510      	push	{r4, lr}
2000791e:	460a      	mov	r2, r1
20007920:	2415      	movs	r4, #21
20007922:	eee0 4010 			@ <UNDEFINED> instruction: 0xeee04010
20007926:	2311      	movs	r3, #17
20007928:	eec0 3010 			@ <UNDEFINED> instruction: 0xeec03010
2000792c:	4601      	mov	r1, r0
2000792e:	4803      	ldr	r0, [pc, #12]	@ (2000793c <DispWriteData+0x20>)
20007930:	f7fa f914 	bl	20001b5c <SPI_Send8_hw>
20007934:	eec0 4010 			@ <UNDEFINED> instruction: 0xeec04010
20007938:	bd10      	pop	{r4, pc}
2000793a:	bf00      	nop
2000793c:	40080000 	.word	0x40080000

20007940 <DispWriteDataDMA>:
20007940:	b510      	push	{r4, lr}
20007942:	4602      	mov	r2, r0
20007944:	460b      	mov	r3, r1
20007946:	2415      	movs	r4, #21
20007948:	eee0 4010 			@ <UNDEFINED> instruction: 0xeee04010
2000794c:	2111      	movs	r1, #17
2000794e:	eec0 1010 			@ <UNDEFINED> instruction: 0xeec01010
20007952:	f04f 4150 	mov.w	r1, #3489660928	@ 0xd0000000
20007956:	6809      	ldr	r1, [r1, #0]
20007958:	4803      	ldr	r0, [pc, #12]	@ (20007968 <DispWriteDataDMA+0x28>)
2000795a:	f1c1 010b 	rsb	r1, r1, #11
2000795e:	f7fa f91d 	bl	20001b9c <SPI_Send8DMA_hw>
20007962:	eec0 4010 			@ <UNDEFINED> instruction: 0xeec04010
20007966:	bd10      	pop	{r4, pc}
20007968:	40080000 	.word	0x40080000

2000796c <DispWriteCmdData>:
2000796c:	b5f7      	push	{r0, r1, r2, r4, r5, r6, r7, lr}
2000796e:	460c      	mov	r4, r1
20007970:	4615      	mov	r5, r2
20007972:	2615      	movs	r6, #21
20007974:	f88d 0007 	strb.w	r0, [sp, #7]
20007978:	eee0 6010 			@ <UNDEFINED> instruction: 0xeee06010
2000797c:	2711      	movs	r7, #17
2000797e:	eee0 7010 			@ <UNDEFINED> instruction: 0xeee07010
20007982:	2201      	movs	r2, #1
20007984:	4807      	ldr	r0, [pc, #28]	@ (200079a4 <DispWriteCmdData+0x38>)
20007986:	f10d 0107 	add.w	r1, sp, #7
2000798a:	f7fa f8e7 	bl	20001b5c <SPI_Send8_hw>
2000798e:	eec0 7010 			@ <UNDEFINED> instruction: 0xeec07010
20007992:	4804      	ldr	r0, [pc, #16]	@ (200079a4 <DispWriteCmdData+0x38>)
20007994:	462a      	mov	r2, r5
20007996:	4621      	mov	r1, r4
20007998:	f7fa f8e0 	bl	20001b5c <SPI_Send8_hw>
2000799c:	eec0 6010 			@ <UNDEFINED> instruction: 0xeec06010
200079a0:	b003      	add	sp, #12
200079a2:	bdf0      	pop	{r4, r5, r6, r7, pc}
200079a4:	40080000 	.word	0x40080000

200079a8 <DispHardReset>:
200079a8:	b538      	push	{r3, r4, r5, lr}
200079aa:	2515      	movs	r5, #21
200079ac:	eee0 5010 			@ <UNDEFINED> instruction: 0xeee05010
200079b0:	2414      	movs	r4, #20
200079b2:	eec0 4010 			@ <UNDEFINED> instruction: 0xeec04010
200079b6:	2032      	movs	r0, #50	@ 0x32
200079b8:	f7fa f994 	bl	20001ce4 <WaitMs>
200079bc:	eee0 4010 			@ <UNDEFINED> instruction: 0xeee04010
200079c0:	2032      	movs	r0, #50	@ 0x32
200079c2:	f7fa f98f 	bl	20001ce4 <WaitMs>
200079c6:	eec0 4010 			@ <UNDEFINED> instruction: 0xeec04010
200079ca:	2096      	movs	r0, #150	@ 0x96
200079cc:	f7fa f98a 	bl	20001ce4 <WaitMs>
200079d0:	eec0 5010 			@ <UNDEFINED> instruction: 0xeec05010
200079d4:	bd38      	pop	{r3, r4, r5, pc}

200079d6 <DispSoftReset>:
200079d6:	b508      	push	{r3, lr}
200079d8:	2001      	movs	r0, #1
200079da:	f7ff ff89 	bl	200078f0 <DispWriteCmd>
200079de:	e8bd 4008 	ldmia.w	sp!, {r3, lr}
200079e2:	2096      	movs	r0, #150	@ 0x96
200079e4:	f7fa b97e 	b.w	20001ce4 <WaitMs>

200079e8 <DispSleepDisable>:
200079e8:	2011      	movs	r0, #17
200079ea:	f7ff bf81 	b.w	200078f0 <DispWriteCmd>

200079ee <DispInvDisable>:
200079ee:	2020      	movs	r0, #32
200079f0:	f7ff bf7e 	b.w	200078f0 <DispWriteCmd>

200079f4 <DispColorMode>:
200079f4:	b507      	push	{r0, r1, r2, lr}
200079f6:	2201      	movs	r2, #1
200079f8:	f88d 0007 	strb.w	r0, [sp, #7]
200079fc:	f10d 0107 	add.w	r1, sp, #7
20007a00:	203a      	movs	r0, #58	@ 0x3a
20007a02:	f7ff ffb3 	bl	2000796c <DispWriteCmdData>
20007a06:	b003      	add	sp, #12
20007a08:	f85d fb04 	ldr.w	pc, [sp], #4

20007a0c <DispRotation>:
20007a0c:	4902      	ldr	r1, [pc, #8]	@ (20007a18 <DispRotation+0xc>)
20007a0e:	2201      	movs	r2, #1
20007a10:	4401      	add	r1, r0
20007a12:	2036      	movs	r0, #54	@ 0x36
20007a14:	f7ff bfaa 	b.w	2000796c <DispWriteCmdData>
20007a18:	2000aa7c 	.word	0x2000aa7c

20007a1c <DispWindow>:
20007a1c:	b537      	push	{r0, r1, r2, r4, r5, lr}
20007a1e:	4615      	mov	r5, r2
20007a20:	2204      	movs	r2, #4
20007a22:	3901      	subs	r1, #1
20007a24:	ba40      	rev16	r0, r0
20007a26:	ba49      	rev16	r1, r1
20007a28:	461c      	mov	r4, r3
20007a2a:	f8ad 0004 	strh.w	r0, [sp, #4]
20007a2e:	f8ad 1006 	strh.w	r1, [sp, #6]
20007a32:	202a      	movs	r0, #42	@ 0x2a
20007a34:	eb0d 0102 	add.w	r1, sp, r2
20007a38:	f7ff ff98 	bl	2000796c <DispWriteCmdData>
20007a3c:	2204      	movs	r2, #4
20007a3e:	3c01      	subs	r4, #1
20007a40:	eb0d 0102 	add.w	r1, sp, r2
20007a44:	202b      	movs	r0, #43	@ 0x2b
20007a46:	ba6d      	rev16	r5, r5
20007a48:	ba64      	rev16	r4, r4
20007a4a:	f8ad 5004 	strh.w	r5, [sp, #4]
20007a4e:	f8ad 4006 	strh.w	r4, [sp, #6]
20007a52:	f7ff ff8b 	bl	2000796c <DispWriteCmdData>
20007a56:	202c      	movs	r0, #44	@ 0x2c
20007a58:	f7ff ff4a 	bl	200078f0 <DispWriteCmd>
20007a5c:	b003      	add	sp, #12
20007a5e:	bd30      	pop	{r4, r5, pc}

20007a60 <DispStartImg>:
20007a60:	e92d 43f7 	stmdb	sp!, {r0, r1, r2, r4, r5, r6, r7, r8, r9, lr}
20007a64:	461f      	mov	r7, r3
20007a66:	23ff      	movs	r3, #255	@ 0xff
20007a68:	4604      	mov	r4, r0
20007a6a:	460d      	mov	r5, r1
20007a6c:	4616      	mov	r6, r2
20007a6e:	f88d 3007 	strb.w	r3, [sp, #7]
20007a72:	f04f 0915 	mov.w	r9, #21
20007a76:	eec0 9010 			@ <UNDEFINED> instruction: 0xeec09010
20007a7a:	f04f 0811 	mov.w	r8, #17
20007a7e:	eee0 8010 			@ <UNDEFINED> instruction: 0xeee08010
20007a82:	2201      	movs	r2, #1
20007a84:	f10d 0107 	add.w	r1, sp, #7
20007a88:	4807      	ldr	r0, [pc, #28]	@ (20007aa8 <DispStartImg+0x48>)
20007a8a:	f7fa f867 	bl	20001b5c <SPI_Send8_hw>
20007a8e:	463b      	mov	r3, r7
20007a90:	4632      	mov	r2, r6
20007a92:	4629      	mov	r1, r5
20007a94:	4620      	mov	r0, r4
20007a96:	f7ff ffc1 	bl	20007a1c <DispWindow>
20007a9a:	eee0 9010 			@ <UNDEFINED> instruction: 0xeee09010
20007a9e:	eec0 8010 			@ <UNDEFINED> instruction: 0xeec08010
20007aa2:	b003      	add	sp, #12
20007aa4:	e8bd 83f0 	ldmia.w	sp!, {r4, r5, r6, r7, r8, r9, pc}
20007aa8:	40080000 	.word	0x40080000

20007aac <DispSendImg2>:
20007aac:	4b0b      	ldr	r3, [pc, #44]	@ (20007adc <DispSendImg2+0x30>)
20007aae:	68da      	ldr	r2, [r3, #12]
20007ab0:	0791      	lsls	r1, r2, #30
20007ab2:	d5fc      	bpl.n	20007aae <DispSendImg2+0x2>
20007ab4:	b2c2      	uxtb	r2, r0
20007ab6:	609a      	str	r2, [r3, #8]
20007ab8:	68da      	ldr	r2, [r3, #12]
20007aba:	0752      	lsls	r2, r2, #29
20007abc:	d409      	bmi.n	20007ad2 <DispSendImg2+0x26>
20007abe:	4b07      	ldr	r3, [pc, #28]	@ (20007adc <DispSendImg2+0x30>)
20007ac0:	68da      	ldr	r2, [r3, #12]
20007ac2:	0791      	lsls	r1, r2, #30
20007ac4:	d5fc      	bpl.n	20007ac0 <DispSendImg2+0x14>
20007ac6:	0a00      	lsrs	r0, r0, #8
20007ac8:	6098      	str	r0, [r3, #8]
20007aca:	68da      	ldr	r2, [r3, #12]
20007acc:	0752      	lsls	r2, r2, #29
20007ace:	d402      	bmi.n	20007ad6 <DispSendImg2+0x2a>
20007ad0:	4770      	bx	lr
20007ad2:	689a      	ldr	r2, [r3, #8]
20007ad4:	e7f0      	b.n	20007ab8 <DispSendImg2+0xc>
20007ad6:	689a      	ldr	r2, [r3, #8]
20007ad8:	e7f7      	b.n	20007aca <DispSendImg2+0x1e>
20007ada:	bf00      	nop
20007adc:	40080000 	.word	0x40080000

20007ae0 <DispStopImg>:
20007ae0:	4b09      	ldr	r3, [pc, #36]	@ (20007b08 <DispStopImg+0x28>)
20007ae2:	68da      	ldr	r2, [r3, #12]
20007ae4:	06d1      	lsls	r1, r2, #27
20007ae6:	d409      	bmi.n	20007afc <DispStopImg+0x1c>
20007ae8:	68da      	ldr	r2, [r3, #12]
20007aea:	0752      	lsls	r2, r2, #29
20007aec:	d40a      	bmi.n	20007b04 <DispStopImg+0x24>
20007aee:	2201      	movs	r2, #1
20007af0:	621a      	str	r2, [r3, #32]
20007af2:	2315      	movs	r3, #21
20007af4:	eec0 3010 			@ <UNDEFINED> instruction: 0xeec03010
20007af8:	4770      	bx	lr
20007afa:	689a      	ldr	r2, [r3, #8]
20007afc:	68da      	ldr	r2, [r3, #12]
20007afe:	0750      	lsls	r0, r2, #29
20007b00:	d4fb      	bmi.n	20007afa <DispStopImg+0x1a>
20007b02:	e7ee      	b.n	20007ae2 <DispStopImg+0x2>
20007b04:	689a      	ldr	r2, [r3, #8]
20007b06:	e7ef      	b.n	20007ae8 <DispStopImg+0x8>
20007b08:	40080000 	.word	0x40080000

20007b0c <DispDirtyAll>:
20007b0c:	2300      	movs	r3, #0
20007b0e:	f44f 71a0 	mov.w	r1, #320	@ 0x140
20007b12:	4a05      	ldr	r2, [pc, #20]	@ (20007b28 <DispDirtyAll+0x1c>)
20007b14:	6013      	str	r3, [r2, #0]
20007b16:	4a05      	ldr	r2, [pc, #20]	@ (20007b2c <DispDirtyAll+0x20>)
20007b18:	6011      	str	r1, [r2, #0]
20007b1a:	4a05      	ldr	r2, [pc, #20]	@ (20007b30 <DispDirtyAll+0x24>)
20007b1c:	6013      	str	r3, [r2, #0]
20007b1e:	22f0      	movs	r2, #240	@ 0xf0
20007b20:	4b04      	ldr	r3, [pc, #16]	@ (20007b34 <DispDirtyAll+0x28>)
20007b22:	601a      	str	r2, [r3, #0]
20007b24:	4770      	bx	lr
20007b26:	bf00      	nop
20007b28:	2000adcc 	.word	0x2000adcc
20007b2c:	2000add0 	.word	0x2000add0
20007b30:	2000add4 	.word	0x2000add4
20007b34:	2000add8 	.word	0x2000add8

20007b38 <DispDirtyNone>:
20007b38:	f44f 72a0 	mov.w	r2, #320	@ 0x140
20007b3c:	4b05      	ldr	r3, [pc, #20]	@ (20007b54 <DispDirtyNone+0x1c>)
20007b3e:	21f0      	movs	r1, #240	@ 0xf0
20007b40:	601a      	str	r2, [r3, #0]
20007b42:	2300      	movs	r3, #0
20007b44:	4a04      	ldr	r2, [pc, #16]	@ (20007b58 <DispDirtyNone+0x20>)
20007b46:	6013      	str	r3, [r2, #0]
20007b48:	4a04      	ldr	r2, [pc, #16]	@ (20007b5c <DispDirtyNone+0x24>)
20007b4a:	6011      	str	r1, [r2, #0]
20007b4c:	4a04      	ldr	r2, [pc, #16]	@ (20007b60 <DispDirtyNone+0x28>)
20007b4e:	6013      	str	r3, [r2, #0]
20007b50:	4770      	bx	lr
20007b52:	bf00      	nop
20007b54:	2000adcc 	.word	0x2000adcc
20007b58:	2000add0 	.word	0x2000add0
20007b5c:	2000add4 	.word	0x2000add4
20007b60:	2000add8 	.word	0x2000add8

20007b64 <DispDirtyRect>:
20007b64:	2800      	cmp	r0, #0
20007b66:	bfbc      	itt	lt
20007b68:	1812      	addlt	r2, r2, r0
20007b6a:	2000      	movlt	r0, #0
20007b6c:	b530      	push	{r4, r5, lr}
20007b6e:	1884      	adds	r4, r0, r2
20007b70:	f5b4 7fa0 	cmp.w	r4, #320	@ 0x140
20007b74:	bfc8      	it	gt
20007b76:	f5c0 72a0 	rsbgt	r2, r0, #320	@ 0x140
20007b7a:	2a00      	cmp	r2, #0
20007b7c:	dd20      	ble.n	20007bc0 <DispDirtyRect+0x5c>
20007b7e:	2900      	cmp	r1, #0
20007b80:	bfbc      	itt	lt
20007b82:	185b      	addlt	r3, r3, r1
20007b84:	2100      	movlt	r1, #0
20007b86:	18cc      	adds	r4, r1, r3
20007b88:	2cf0      	cmp	r4, #240	@ 0xf0
20007b8a:	bfc8      	it	gt
20007b8c:	f1c1 03f0 	rsbgt	r3, r1, #240	@ 0xf0
20007b90:	2b00      	cmp	r3, #0
20007b92:	dd15      	ble.n	20007bc0 <DispDirtyRect+0x5c>
20007b94:	4c0b      	ldr	r4, [pc, #44]	@ (20007bc4 <DispDirtyRect+0x60>)
20007b96:	6825      	ldr	r5, [r4, #0]
20007b98:	4285      	cmp	r5, r0
20007b9a:	bfc8      	it	gt
20007b9c:	6020      	strgt	r0, [r4, #0]
20007b9e:	4410      	add	r0, r2
20007ba0:	4a09      	ldr	r2, [pc, #36]	@ (20007bc8 <DispDirtyRect+0x64>)
20007ba2:	6814      	ldr	r4, [r2, #0]
20007ba4:	42a0      	cmp	r0, r4
20007ba6:	bfc8      	it	gt
20007ba8:	6010      	strgt	r0, [r2, #0]
20007baa:	4a08      	ldr	r2, [pc, #32]	@ (20007bcc <DispDirtyRect+0x68>)
20007bac:	6810      	ldr	r0, [r2, #0]
20007bae:	4288      	cmp	r0, r1
20007bb0:	bfc8      	it	gt
20007bb2:	6011      	strgt	r1, [r2, #0]
20007bb4:	4419      	add	r1, r3
20007bb6:	4b06      	ldr	r3, [pc, #24]	@ (20007bd0 <DispDirtyRect+0x6c>)
20007bb8:	681a      	ldr	r2, [r3, #0]
20007bba:	4291      	cmp	r1, r2
20007bbc:	bfc8      	it	gt
20007bbe:	6019      	strgt	r1, [r3, #0]
20007bc0:	bd30      	pop	{r4, r5, pc}
20007bc2:	bf00      	nop
20007bc4:	2000adcc 	.word	0x2000adcc
20007bc8:	2000add0 	.word	0x2000add0
20007bcc:	2000add4 	.word	0x2000add4
20007bd0:	2000add8 	.word	0x2000add8

20007bd4 <DispDirtyPoint>:
20007bd4:	f5b0 7fa0 	cmp.w	r0, #320	@ 0x140
20007bd8:	d217      	bcs.n	20007c0a <DispDirtyPoint+0x36>
20007bda:	29ef      	cmp	r1, #239	@ 0xef
20007bdc:	d815      	bhi.n	20007c0a <DispDirtyPoint+0x36>
20007bde:	4b0b      	ldr	r3, [pc, #44]	@ (20007c0c <DispDirtyPoint+0x38>)
20007be0:	681a      	ldr	r2, [r3, #0]
20007be2:	4282      	cmp	r2, r0
20007be4:	bfc8      	it	gt
20007be6:	6018      	strgt	r0, [r3, #0]
20007be8:	4b09      	ldr	r3, [pc, #36]	@ (20007c10 <DispDirtyPoint+0x3c>)
20007bea:	681a      	ldr	r2, [r3, #0]
20007bec:	4282      	cmp	r2, r0
20007bee:	bfdc      	itt	le
20007bf0:	3001      	addle	r0, #1
20007bf2:	6018      	strle	r0, [r3, #0]
20007bf4:	4b07      	ldr	r3, [pc, #28]	@ (20007c14 <DispDirtyPoint+0x40>)
20007bf6:	681a      	ldr	r2, [r3, #0]
20007bf8:	428a      	cmp	r2, r1
20007bfa:	bfc8      	it	gt
20007bfc:	6019      	strgt	r1, [r3, #0]
20007bfe:	4b06      	ldr	r3, [pc, #24]	@ (20007c18 <DispDirtyPoint+0x44>)
20007c00:	681a      	ldr	r2, [r3, #0]
20007c02:	428a      	cmp	r2, r1
20007c04:	bfdc      	itt	le
20007c06:	3101      	addle	r1, #1
20007c08:	6019      	strle	r1, [r3, #0]
20007c0a:	4770      	bx	lr
20007c0c:	2000adcc 	.word	0x2000adcc
20007c10:	2000add0 	.word	0x2000add0
20007c14:	2000add4 	.word	0x2000add4
20007c18:	2000add8 	.word	0x2000add8

20007c1c <DispUpdate>:
20007c1c:	b5f7      	push	{r0, r1, r2, r4, r5, r6, r7, lr}
20007c1e:	4e27      	ldr	r6, [pc, #156]	@ (20007cbc <DispUpdate+0xa0>)
20007c20:	4f27      	ldr	r7, [pc, #156]	@ (20007cc0 <DispUpdate+0xa4>)
20007c22:	6832      	ldr	r2, [r6, #0]
20007c24:	683b      	ldr	r3, [r7, #0]
20007c26:	429a      	cmp	r2, r3
20007c28:	da45      	bge.n	20007cb6 <DispUpdate+0x9a>
20007c2a:	4d26      	ldr	r5, [pc, #152]	@ (20007cc4 <DispUpdate+0xa8>)
20007c2c:	4c26      	ldr	r4, [pc, #152]	@ (20007cc8 <DispUpdate+0xac>)
20007c2e:	682a      	ldr	r2, [r5, #0]
20007c30:	6823      	ldr	r3, [r4, #0]
20007c32:	429a      	cmp	r2, r3
20007c34:	da3f      	bge.n	20007cb6 <DispUpdate+0x9a>
20007c36:	23ff      	movs	r3, #255	@ 0xff
20007c38:	f88d 3007 	strb.w	r3, [sp, #7]
20007c3c:	2315      	movs	r3, #21
20007c3e:	eec0 3010 			@ <UNDEFINED> instruction: 0xeec03010
20007c42:	2311      	movs	r3, #17
20007c44:	eee0 3010 			@ <UNDEFINED> instruction: 0xeee03010
20007c48:	2201      	movs	r2, #1
20007c4a:	4820      	ldr	r0, [pc, #128]	@ (20007ccc <DispUpdate+0xb0>)
20007c4c:	f10d 0107 	add.w	r1, sp, #7
20007c50:	f7f9 ff84 	bl	20001b5c <SPI_Send8_hw>
20007c54:	8823      	ldrh	r3, [r4, #0]
20007c56:	882a      	ldrh	r2, [r5, #0]
20007c58:	8839      	ldrh	r1, [r7, #0]
20007c5a:	8830      	ldrh	r0, [r6, #0]
20007c5c:	f7ff fede 	bl	20007a1c <DispWindow>
20007c60:	f44f 73a0 	mov.w	r3, #320	@ 0x140
20007c64:	6829      	ldr	r1, [r5, #0]
20007c66:	6832      	ldr	r2, [r6, #0]
20007c68:	4d19      	ldr	r5, [pc, #100]	@ (20007cd0 <DispUpdate+0xb4>)
20007c6a:	fb03 2301 	mla	r3, r3, r1, r2
20007c6e:	eb05 0543 	add.w	r5, r5, r3, lsl #1
20007c72:	683b      	ldr	r3, [r7, #0]
20007c74:	6824      	ldr	r4, [r4, #0]
20007c76:	1a9b      	subs	r3, r3, r2
20007c78:	2b14      	cmp	r3, #20
20007c7a:	eba4 0401 	sub.w	r4, r4, r1
20007c7e:	dc16      	bgt.n	20007cae <DispUpdate+0x92>
20007c80:	2c00      	cmp	r4, #0
20007c82:	dd16      	ble.n	20007cb2 <DispUpdate+0x96>
20007c84:	6839      	ldr	r1, [r7, #0]
20007c86:	6833      	ldr	r3, [r6, #0]
20007c88:	4628      	mov	r0, r5
20007c8a:	1ac9      	subs	r1, r1, r3
20007c8c:	0049      	lsls	r1, r1, #1
20007c8e:	f7ff fe45 	bl	2000791c <DispWriteData>
20007c92:	f505 7520 	add.w	r5, r5, #640	@ 0x280
20007c96:	3c01      	subs	r4, #1
20007c98:	e7f2      	b.n	20007c80 <DispUpdate+0x64>
20007c9a:	6839      	ldr	r1, [r7, #0]
20007c9c:	6833      	ldr	r3, [r6, #0]
20007c9e:	4628      	mov	r0, r5
20007ca0:	1ac9      	subs	r1, r1, r3
20007ca2:	0049      	lsls	r1, r1, #1
20007ca4:	f7ff fe4c 	bl	20007940 <DispWriteDataDMA>
20007ca8:	f505 7520 	add.w	r5, r5, #640	@ 0x280
20007cac:	3c01      	subs	r4, #1
20007cae:	2c00      	cmp	r4, #0
20007cb0:	dcf3      	bgt.n	20007c9a <DispUpdate+0x7e>
20007cb2:	f7ff ff41 	bl	20007b38 <DispDirtyNone>
20007cb6:	b003      	add	sp, #12
20007cb8:	bdf0      	pop	{r4, r5, r6, r7, pc}
20007cba:	bf00      	nop
20007cbc:	2000adcc 	.word	0x2000adcc
20007cc0:	2000add0 	.word	0x2000add0
20007cc4:	2000add4 	.word	0x2000add4
20007cc8:	2000add8 	.word	0x2000add8
20007ccc:	40080000 	.word	0x40080000
20007cd0:	2000be58 	.word	0x2000be58

20007cd4 <DispUpdateAll>:
20007cd4:	b508      	push	{r3, lr}
20007cd6:	f7ff ff19 	bl	20007b0c <DispDirtyAll>
20007cda:	e8bd 4008 	ldmia.w	sp!, {r3, lr}
20007cde:	f7ff bf9d 	b.w	20007c1c <DispUpdate>
	...

20007ce4 <DispBacklight>:
20007ce4:	4b03      	ldr	r3, [pc, #12]	@ (20007cf4 <DispBacklight+0x10>)
20007ce6:	68db      	ldr	r3, [r3, #12]
20007ce8:	4058      	eors	r0, r3
20007cea:	4b03      	ldr	r3, [pc, #12]	@ (20007cf8 <DispBacklight+0x14>)
20007cec:	b280      	uxth	r0, r0
20007cee:	60d8      	str	r0, [r3, #12]
20007cf0:	4770      	bx	lr
20007cf2:	bf00      	nop
20007cf4:	400a8000 	.word	0x400a8000
20007cf8:	400a9000 	.word	0x400a9000

20007cfc <DispBacklightUpdate>:
20007cfc:	4b01      	ldr	r3, [pc, #4]	@ (20007d04 <DispBacklightUpdate+0x8>)
20007cfe:	78d8      	ldrb	r0, [r3, #3]
20007d00:	f7ff bff0 	b.w	20007ce4 <DispBacklight>
20007d04:	2000ab1c 	.word	0x2000ab1c

20007d08 <DispInit>:
20007d08:	b537      	push	{r0, r1, r2, r4, r5, lr}
20007d0a:	4d41      	ldr	r5, [pc, #260]	@ (20007e10 <DispInit+0x108>)
20007d0c:	4941      	ldr	r1, [pc, #260]	@ (20007e14 <DispInit+0x10c>)
20007d0e:	4604      	mov	r4, r0
20007d10:	4628      	mov	r0, r5
20007d12:	f7f9 feff 	bl	20001b14 <SPI_Init_hw>
20007d16:	682b      	ldr	r3, [r5, #0]
20007d18:	4a3f      	ldr	r2, [pc, #252]	@ (20007e18 <DispInit+0x110>)
20007d1a:	43db      	mvns	r3, r3
20007d1c:	f003 0340 	and.w	r3, r3, #64	@ 0x40
20007d20:	6013      	str	r3, [r2, #0]
20007d22:	682b      	ldr	r3, [r5, #0]
20007d24:	2000      	movs	r0, #0
20007d26:	43db      	mvns	r3, r3
20007d28:	f003 0380 	and.w	r3, r3, #128	@ 0x80
20007d2c:	6013      	str	r3, [r2, #0]
20007d2e:	f7f9 fd45 	bl	200017bc <PWM_Reset>
20007d32:	2104      	movs	r1, #4
20007d34:	2010      	movs	r0, #16
20007d36:	f7f9 fbf3 	bl	20001520 <GPIO_Fnc>
20007d3a:	2000      	movs	r0, #0
20007d3c:	4937      	ldr	r1, [pc, #220]	@ (20007e1c <DispInit+0x114>)
20007d3e:	f7f9 fd59 	bl	200017f4 <PWM_Clock>
20007d42:	22ff      	movs	r2, #255	@ 0xff
20007d44:	2501      	movs	r5, #1
20007d46:	4b36      	ldr	r3, [pc, #216]	@ (20007e20 <DispInit+0x118>)
20007d48:	2000      	movs	r0, #0
20007d4a:	611a      	str	r2, [r3, #16]
20007d4c:	f7ff ffca 	bl	20007ce4 <DispBacklight>
20007d50:	4b34      	ldr	r3, [pc, #208]	@ (20007e24 <DispInit+0x11c>)
20007d52:	2011      	movs	r0, #17
20007d54:	601d      	str	r5, [r3, #0]
20007d56:	eec0 0010 			@ <UNDEFINED> instruction: 0xeec00010
20007d5a:	eec0 0014 			@ <UNDEFINED> instruction: 0xeec00014
20007d5e:	2105      	movs	r1, #5
20007d60:	f7f9 fbde 	bl	20001520 <GPIO_Fnc>
20007d64:	2012      	movs	r0, #18
20007d66:	eec0 0010 			@ <UNDEFINED> instruction: 0xeec00010
20007d6a:	eec0 0014 			@ <UNDEFINED> instruction: 0xeec00014
20007d6e:	4629      	mov	r1, r5
20007d70:	f7f9 fbd6 	bl	20001520 <GPIO_Fnc>
20007d74:	4b2c      	ldr	r3, [pc, #176]	@ (20007e28 <DispInit+0x120>)
20007d76:	4a2d      	ldr	r2, [pc, #180]	@ (20007e2c <DispInit+0x124>)
20007d78:	6cdb      	ldr	r3, [r3, #76]	@ 0x4c
20007d7a:	2013      	movs	r0, #19
20007d7c:	f083 0320 	eor.w	r3, r3, #32
20007d80:	f003 0330 	and.w	r3, r3, #48	@ 0x30
20007d84:	64d3      	str	r3, [r2, #76]	@ 0x4c
20007d86:	eec0 0010 			@ <UNDEFINED> instruction: 0xeec00010
20007d8a:	eec0 0014 			@ <UNDEFINED> instruction: 0xeec00014
20007d8e:	4629      	mov	r1, r5
20007d90:	f7f9 fbc6 	bl	20001520 <GPIO_Fnc>
20007d94:	2014      	movs	r0, #20
20007d96:	eec0 0010 			@ <UNDEFINED> instruction: 0xeec00010
20007d9a:	eec0 0014 			@ <UNDEFINED> instruction: 0xeec00014
20007d9e:	2105      	movs	r1, #5
20007da0:	f7f9 fbbe 	bl	20001520 <GPIO_Fnc>
20007da4:	2015      	movs	r0, #21
20007da6:	eec0 0010 			@ <UNDEFINED> instruction: 0xeec00010
20007daa:	eec0 0014 			@ <UNDEFINED> instruction: 0xeec00014
20007dae:	2105      	movs	r1, #5
20007db0:	f7f9 fbb6 	bl	20001520 <GPIO_Fnc>
20007db4:	f7ff fdf8 	bl	200079a8 <DispHardReset>
20007db8:	f7ff fe0d 	bl	200079d6 <DispSoftReset>
20007dbc:	f7ff fe14 	bl	200079e8 <DispSleepDisable>
20007dc0:	f44f 4368 	mov.w	r3, #59392	@ 0xe800
20007dc4:	a901      	add	r1, sp, #4
20007dc6:	2202      	movs	r2, #2
20007dc8:	20b0      	movs	r0, #176	@ 0xb0
20007dca:	f8ad 3004 	strh.w	r3, [sp, #4]
20007dce:	f7ff fdcd 	bl	2000796c <DispWriteCmdData>
20007dd2:	2055      	movs	r0, #85	@ 0x55
20007dd4:	f7ff fe0e 	bl	200079f4 <DispColorMode>
20007dd8:	2032      	movs	r0, #50	@ 0x32
20007dda:	f7f9 ff83 	bl	20001ce4 <WaitMs>
20007dde:	4620      	mov	r0, r4
20007de0:	f7ff fe14 	bl	20007a0c <DispRotation>
20007de4:	f7ff fe03 	bl	200079ee <DispInvDisable>
20007de8:	200a      	movs	r0, #10
20007dea:	f7f9 ff7b 	bl	20001ce4 <WaitMs>
20007dee:	f44f 3216 	mov.w	r2, #153600	@ 0x25800
20007df2:	2100      	movs	r1, #0
20007df4:	f7ff ff82 	bl	20007cfc <DispBacklightUpdate>
20007df8:	480d      	ldr	r0, [pc, #52]	@ (20007e30 <DispInit+0x128>)
20007dfa:	f001 fa57 	bl	200092ac <memset>
20007dfe:	f7ff ff69 	bl	20007cd4 <DispUpdateAll>
20007e02:	2029      	movs	r0, #41	@ 0x29
20007e04:	f7ff fd74 	bl	200078f0 <DispWriteCmd>
20007e08:	f7ff ff64 	bl	20007cd4 <DispUpdateAll>
20007e0c:	b003      	add	sp, #12
20007e0e:	bd30      	pop	{r4, r5, pc}
20007e10:	40080000 	.word	0x40080000
20007e14:	016e3600 	.word	0x016e3600
20007e18:	40081000 	.word	0x40081000
20007e1c:	00562200 	.word	0x00562200
20007e20:	400a8000 	.word	0x400a8000
20007e24:	400aa000 	.word	0x400aa000
20007e28:	40038000 	.word	0x40038000
20007e2c:	40039000 	.word	0x40039000
20007e30:	2000be58 	.word	0x2000be58

20007e34 <DispTerm>:
20007e34:	b508      	push	{r3, lr}
20007e36:	2100      	movs	r1, #0
20007e38:	f44f 3216 	mov.w	r2, #153600	@ 0x25800
20007e3c:	4810      	ldr	r0, [pc, #64]	@ (20007e80 <DispTerm+0x4c>)
20007e3e:	f001 fa35 	bl	200092ac <memset>
20007e42:	f7ff ff47 	bl	20007cd4 <DispUpdateAll>
20007e46:	2028      	movs	r0, #40	@ 0x28
20007e48:	f7ff fd52 	bl	200078f0 <DispWriteCmd>
20007e4c:	2201      	movs	r2, #1
20007e4e:	4b0d      	ldr	r3, [pc, #52]	@ (20007e84 <DispTerm+0x50>)
20007e50:	2000      	movs	r0, #0
20007e52:	601a      	str	r2, [r3, #0]
20007e54:	f7f9 fcb2 	bl	200017bc <PWM_Reset>
20007e58:	2010      	movs	r0, #16
20007e5a:	f7f9 fbbb 	bl	200015d4 <GPIO_Reset>
20007e5e:	2011      	movs	r0, #17
20007e60:	f7f9 fbb8 	bl	200015d4 <GPIO_Reset>
20007e64:	2012      	movs	r0, #18
20007e66:	f7f9 fbb5 	bl	200015d4 <GPIO_Reset>
20007e6a:	2013      	movs	r0, #19
20007e6c:	f7f9 fbb2 	bl	200015d4 <GPIO_Reset>
20007e70:	2014      	movs	r0, #20
20007e72:	f7f9 fbaf 	bl	200015d4 <GPIO_Reset>
20007e76:	e8bd 4008 	ldmia.w	sp!, {r3, lr}
20007e7a:	2015      	movs	r0, #21
20007e7c:	f7f9 bbaa 	b.w	200015d4 <GPIO_Reset>
20007e80:	2000be58 	.word	0x2000be58
20007e84:	400ab000 	.word	0x400ab000

20007e88 <DispDrawText>:
20007e88:	e92d 4ff0 	stmdb	sp!, {r4, r5, r6, r7, r8, r9, sl, fp, lr}
20007e8c:	b085      	sub	sp, #20
20007e8e:	461d      	mov	r5, r3
20007e90:	f8bd 303c 	ldrh.w	r3, [sp, #60]	@ 0x3c
20007e94:	468a      	mov	sl, r1
20007e96:	4681      	mov	r9, r0
20007e98:	9f0e      	ldr	r7, [sp, #56]	@ 0x38
20007e9a:	9201      	str	r2, [sp, #4]
20007e9c:	9300      	str	r3, [sp, #0]
20007e9e:	f8bd b040 	ldrh.w	fp, [sp, #64]	@ 0x40
20007ea2:	f7fe fa97 	bl	200063d4 <StrLen>
20007ea6:	4b36      	ldr	r3, [pc, #216]	@ (20007f80 <DispDrawText+0xf8>)
20007ea8:	4604      	mov	r4, r0
20007eaa:	f8d3 8000 	ldr.w	r8, [r3]
20007eae:	ea25 75e5 	bic.w	r5, r5, r5, asr #31
20007eb2:	fb08 f300 	mul.w	r3, r8, r0
20007eb6:	f5b3 7fa0 	cmp.w	r3, #320	@ 0x140
20007eba:	bfc4      	itt	gt
20007ebc:	f44f 74a0 	movgt.w	r4, #320	@ 0x140
20007ec0:	fb94 f4f8 	sdivgt	r4, r4, r8
20007ec4:	fb08 f104 	mul.w	r1, r8, r4
20007ec8:	f5c1 76a0 	rsb	r6, r1, #320	@ 0x140
20007ecc:	42b5      	cmp	r5, r6
20007ece:	bfa8      	it	ge
20007ed0:	4635      	movge	r5, r6
20007ed2:	ea27 77e7 	bic.w	r7, r7, r7, asr #31
20007ed6:	1b76      	subs	r6, r6, r5
20007ed8:	42be      	cmp	r6, r7
20007eda:	bfa8      	it	ge
20007edc:	463e      	movge	r6, r7
20007ede:	4b29      	ldr	r3, [pc, #164]	@ (20007f84 <DispDrawText+0xfc>)
20007ee0:	9a01      	ldr	r2, [sp, #4]
20007ee2:	681f      	ldr	r7, [r3, #0]
20007ee4:	4429      	add	r1, r5
20007ee6:	4431      	add	r1, r6
20007ee8:	fa17 f382 	uxtah	r3, r7, r2
20007eec:	fa11 f18a 	uxtah	r1, r1, sl
20007ef0:	b29b      	uxth	r3, r3
20007ef2:	fa1f f08a 	uxth.w	r0, sl
20007ef6:	b292      	uxth	r2, r2
20007ef8:	b289      	uxth	r1, r1
20007efa:	f7ff fdb1 	bl	20007a60 <DispStartImg>
20007efe:	4b22      	ldr	r3, [pc, #136]	@ (20007f88 <DispDrawText+0x100>)
20007f00:	444c      	add	r4, r9
20007f02:	f8d3 a000 	ldr.w	sl, [r3]
20007f06:	2f00      	cmp	r7, #0
20007f08:	dc17      	bgt.n	20007f3a <DispDrawText+0xb2>
20007f0a:	b005      	add	sp, #20
20007f0c:	e8bd 4ff0 	ldmia.w	sp!, {r4, r5, r6, r7, r8, r9, sl, fp, lr}
20007f10:	f7ff bde6 	b.w	20007ae0 <DispStopImg>
20007f14:	4658      	mov	r0, fp
20007f16:	9301      	str	r3, [sp, #4]
20007f18:	f7ff fdc8 	bl	20007aac <DispSendImg2>
20007f1c:	9b01      	ldr	r3, [sp, #4]
20007f1e:	3b01      	subs	r3, #1
20007f20:	2b00      	cmp	r3, #0
20007f22:	dcf7      	bgt.n	20007f14 <DispDrawText+0x8c>
20007f24:	464a      	mov	r2, r9
20007f26:	1aa3      	subs	r3, r4, r2
20007f28:	2b00      	cmp	r3, #0
20007f2a:	dc08      	bgt.n	20007f3e <DispDrawText+0xb6>
20007f2c:	4633      	mov	r3, r6
20007f2e:	2b00      	cmp	r3, #0
20007f30:	dc1e      	bgt.n	20007f70 <DispDrawText+0xe8>
20007f32:	f50a 7a80 	add.w	sl, sl, #256	@ 0x100
20007f36:	3f01      	subs	r7, #1
20007f38:	e7e5      	b.n	20007f06 <DispDrawText+0x7e>
20007f3a:	462b      	mov	r3, r5
20007f3c:	e7f0      	b.n	20007f20 <DispDrawText+0x98>
20007f3e:	4641      	mov	r1, r8
20007f40:	f812 3b01 	ldrb.w	r3, [r2], #1
20007f44:	f81a 3003 	ldrb.w	r3, [sl, r3]
20007f48:	2900      	cmp	r1, #0
20007f4a:	ddec      	ble.n	20007f26 <DispDrawText+0x9e>
20007f4c:	f013 0f80 	tst.w	r3, #128	@ 0x80
20007f50:	9301      	str	r3, [sp, #4]
20007f52:	9b00      	ldr	r3, [sp, #0]
20007f54:	bf0c      	ite	eq
20007f56:	4658      	moveq	r0, fp
20007f58:	4618      	movne	r0, r3
20007f5a:	e9cd 1202 	strd	r1, r2, [sp, #8]
20007f5e:	f7ff fda5 	bl	20007aac <DispSendImg2>
20007f62:	9b01      	ldr	r3, [sp, #4]
20007f64:	9902      	ldr	r1, [sp, #8]
20007f66:	005b      	lsls	r3, r3, #1
20007f68:	9a03      	ldr	r2, [sp, #12]
20007f6a:	b2db      	uxtb	r3, r3
20007f6c:	3901      	subs	r1, #1
20007f6e:	e7eb      	b.n	20007f48 <DispDrawText+0xc0>
20007f70:	4658      	mov	r0, fp
20007f72:	9301      	str	r3, [sp, #4]
20007f74:	f7ff fd9a 	bl	20007aac <DispSendImg2>
20007f78:	9b01      	ldr	r3, [sp, #4]
20007f7a:	3b01      	subs	r3, #1
20007f7c:	e7d7      	b.n	20007f2e <DispDrawText+0xa6>
20007f7e:	bf00      	nop
20007f80:	2000aac8 	.word	0x2000aac8
20007f84:	2000aacc 	.word	0x2000aacc
20007f88:	2000aad0 	.word	0x2000aad0

20007f8c <DispDrawTextRow>:
20007f8c:	b5f0      	push	{r4, r5, r6, r7, lr}
20007f8e:	461f      	mov	r7, r3
20007f90:	b085      	sub	sp, #20
20007f92:	460c      	mov	r4, r1
20007f94:	4616      	mov	r6, r2
20007f96:	4605      	mov	r5, r0
20007f98:	f7fe fa1c 	bl	200063d4 <StrLen>
20007f9c:	f8bd 3028 	ldrh.w	r3, [sp, #40]	@ 0x28
20007fa0:	4a08      	ldr	r2, [pc, #32]	@ (20007fc4 <DispDrawTextRow+0x38>)
20007fa2:	e9cd 7301 	strd	r7, r3, [sp, #4]
20007fa6:	6812      	ldr	r2, [r2, #0]
20007fa8:	f5c4 73a0 	rsb	r3, r4, #320	@ 0x140
20007fac:	fb02 3310 	mls	r3, r2, r0, r3
20007fb0:	2100      	movs	r1, #0
20007fb2:	9300      	str	r3, [sp, #0]
20007fb4:	4632      	mov	r2, r6
20007fb6:	4623      	mov	r3, r4
20007fb8:	4628      	mov	r0, r5
20007fba:	f7ff ff65 	bl	20007e88 <DispDrawText>
20007fbe:	b005      	add	sp, #20
20007fc0:	bdf0      	pop	{r4, r5, r6, r7, pc}
20007fc2:	bf00      	nop
20007fc4:	2000aac8 	.word	0x2000aac8

20007fc8 <_Z8DispTextPKc>:
20007fc8:	b537      	push	{r0, r1, r2, r4, r5, lr}
20007fca:	4605      	mov	r5, r0
20007fcc:	4b0a      	ldr	r3, [pc, #40]	@ (20007ff8 <_Z8DispTextPKc+0x30>)
20007fce:	4c0b      	ldr	r4, [pc, #44]	@ (20007ffc <_Z8DispTextPKc+0x34>)
20007fd0:	681a      	ldr	r2, [r3, #0]
20007fd2:	4b0b      	ldr	r3, [pc, #44]	@ (20008000 <_Z8DispTextPKc+0x38>)
20007fd4:	6821      	ldr	r1, [r4, #0]
20007fd6:	881b      	ldrh	r3, [r3, #0]
20007fd8:	0112      	lsls	r2, r2, #4
20007fda:	9300      	str	r3, [sp, #0]
20007fdc:	4b09      	ldr	r3, [pc, #36]	@ (20008004 <_Z8DispTextPKc+0x3c>)
20007fde:	00c9      	lsls	r1, r1, #3
20007fe0:	881b      	ldrh	r3, [r3, #0]
20007fe2:	f7fc fba1 	bl	20004728 <DrawTextBg>
20007fe6:	4628      	mov	r0, r5
20007fe8:	f7fe f9f4 	bl	200063d4 <StrLen>
20007fec:	6823      	ldr	r3, [r4, #0]
20007fee:	4403      	add	r3, r0
20007ff0:	6023      	str	r3, [r4, #0]
20007ff2:	b003      	add	sp, #12
20007ff4:	bd30      	pop	{r4, r5, pc}
20007ff6:	bf00      	nop
20007ff8:	2000ade0 	.word	0x2000ade0
20007ffc:	2000addc 	.word	0x2000addc
20008000:	20032274 	.word	0x20032274
20008004:	20032278 	.word	0x20032278

20008008 <_Z8DispCharc>:
20008008:	2300      	movs	r3, #0
2000800a:	b507      	push	{r0, r1, r2, lr}
2000800c:	f88d 0004 	strb.w	r0, [sp, #4]
20008010:	a801      	add	r0, sp, #4
20008012:	f88d 3005 	strb.w	r3, [sp, #5]
20008016:	f7ff ffd7 	bl	20007fc8 <_Z8DispTextPKc>
2000801a:	b003      	add	sp, #12
2000801c:	f85d fb04 	ldr.w	pc, [sp], #4

20008020 <_Z7DispSpcv>:
20008020:	2020      	movs	r0, #32
20008022:	f7ff bff1 	b.w	20008008 <_Z8DispCharc>

20008026 <_Z11DispCharRepci>:
20008026:	b538      	push	{r3, r4, r5, lr}
20008028:	4605      	mov	r5, r0
2000802a:	460c      	mov	r4, r1
2000802c:	2c00      	cmp	r4, #0
2000802e:	dc00      	bgt.n	20008032 <_Z11DispCharRepci+0xc>
20008030:	bd38      	pop	{r3, r4, r5, pc}
20008032:	4628      	mov	r0, r5
20008034:	f7ff ffe8 	bl	20008008 <_Z8DispCharc>
20008038:	3c01      	subs	r4, #1
2000803a:	e7f7      	b.n	2000802c <_Z11DispCharRepci+0x6>

2000803c <_Z10DispSpcRepi>:
2000803c:	b510      	push	{r4, lr}
2000803e:	4604      	mov	r4, r0
20008040:	2c00      	cmp	r4, #0
20008042:	dc00      	bgt.n	20008046 <_Z10DispSpcRepi+0xa>
20008044:	bd10      	pop	{r4, pc}
20008046:	f7ff ffeb 	bl	20008020 <_Z7DispSpcv>
2000804a:	3c01      	subs	r4, #1
2000804c:	e7f8      	b.n	20008040 <_Z10DispSpcRepi+0x4>
	...

20008050 <_Z13FrameFileListv>:
20008050:	e92d 43f8 	stmdb	sp!, {r3, r4, r5, r6, r7, r8, r9, lr}
20008054:	231f      	movs	r3, #31
20008056:	2500      	movs	r5, #0
20008058:	f240 78ff 	movw	r8, #2047	@ 0x7ff
2000805c:	4a1e      	ldr	r2, [pc, #120]	@ (200080d8 <_Z13FrameFileListv+0x88>)
2000805e:	4c1f      	ldr	r4, [pc, #124]	@ (200080dc <_Z13FrameFileListv+0x8c>)
20008060:	4f1f      	ldr	r7, [pc, #124]	@ (200080e0 <_Z13FrameFileListv+0x90>)
20008062:	4e20      	ldr	r6, [pc, #128]	@ (200080e4 <_Z13FrameFileListv+0x94>)
20008064:	209c      	movs	r0, #156	@ 0x9c
20008066:	6015      	str	r5, [r2, #0]
20008068:	803b      	strh	r3, [r7, #0]
2000806a:	6025      	str	r5, [r4, #0]
2000806c:	f8a6 8000 	strh.w	r8, [r6]
20008070:	f7ff ffca 	bl	20008008 <_Z8DispCharc>
20008074:	2112      	movs	r1, #18
20008076:	2095      	movs	r0, #149	@ 0x95
20008078:	f7ff ffd5 	bl	20008026 <_Z11DispCharRepci>
2000807c:	2099      	movs	r0, #153	@ 0x99
2000807e:	f7ff ffc3 	bl	20008008 <_Z8DispCharc>
20008082:	6823      	ldr	r3, [r4, #0]
20008084:	4a14      	ldr	r2, [pc, #80]	@ (200080d8 <_Z13FrameFileListv+0x88>)
20008086:	3301      	adds	r3, #1
20008088:	6023      	str	r3, [r4, #0]
2000808a:	f04f 091f 	mov.w	r9, #31
2000808e:	209a      	movs	r0, #154	@ 0x9a
20008090:	6015      	str	r5, [r2, #0]
20008092:	f7ff ffb9 	bl	20008008 <_Z8DispCharc>
20008096:	2012      	movs	r0, #18
20008098:	f8a7 8000 	strh.w	r8, [r7]
2000809c:	f8a6 9000 	strh.w	r9, [r6]
200080a0:	f7ff ffcc 	bl	2000803c <_Z10DispSpcRepi>
200080a4:	209a      	movs	r0, #154	@ 0x9a
200080a6:	f8a7 9000 	strh.w	r9, [r7]
200080aa:	f8a6 8000 	strh.w	r8, [r6]
200080ae:	f7ff ffab 	bl	20008008 <_Z8DispCharc>
200080b2:	6823      	ldr	r3, [r4, #0]
200080b4:	4a08      	ldr	r2, [pc, #32]	@ (200080d8 <_Z13FrameFileListv+0x88>)
200080b6:	3301      	adds	r3, #1
200080b8:	2b0e      	cmp	r3, #14
200080ba:	6023      	str	r3, [r4, #0]
200080bc:	d1e5      	bne.n	2000808a <_Z13FrameFileListv+0x3a>
200080be:	2096      	movs	r0, #150	@ 0x96
200080c0:	6015      	str	r5, [r2, #0]
200080c2:	f7ff ffa1 	bl	20008008 <_Z8DispCharc>
200080c6:	2095      	movs	r0, #149	@ 0x95
200080c8:	2112      	movs	r1, #18
200080ca:	f7ff ffac 	bl	20008026 <_Z11DispCharRepci>
200080ce:	e8bd 43f8 	ldmia.w	sp!, {r3, r4, r5, r6, r7, r8, r9, lr}
200080d2:	2093      	movs	r0, #147	@ 0x93
200080d4:	f7ff bf98 	b.w	20008008 <_Z8DispCharc>
200080d8:	2000addc 	.word	0x2000addc
200080dc:	2000ade0 	.word	0x2000ade0
200080e0:	20032278 	.word	0x20032278
200080e4:	20032274 	.word	0x20032274

200080e8 <_Z12PathFileListv>:
200080e8:	b5f8      	push	{r3, r4, r5, r6, r7, lr}
200080ea:	2700      	movs	r7, #0
200080ec:	2201      	movs	r2, #1
200080ee:	4b21      	ldr	r3, [pc, #132]	@ (20008174 <_Z12PathFileListv+0x8c>)
200080f0:	4e21      	ldr	r6, [pc, #132]	@ (20008178 <_Z12PathFileListv+0x90>)
200080f2:	681c      	ldr	r4, [r3, #0]
200080f4:	4b21      	ldr	r3, [pc, #132]	@ (2000817c <_Z12PathFileListv+0x94>)
200080f6:	2c10      	cmp	r4, #16
200080f8:	601f      	str	r7, [r3, #0]
200080fa:	4b21      	ldr	r3, [pc, #132]	@ (20008180 <_Z12PathFileListv+0x98>)
200080fc:	4d21      	ldr	r5, [pc, #132]	@ (20008184 <_Z12PathFileListv+0x9c>)
200080fe:	601a      	str	r2, [r3, #0]
20008100:	dc10      	bgt.n	20008124 <_Z12PathFileListv+0x3c>
20008102:	231f      	movs	r3, #31
20008104:	8033      	strh	r3, [r6, #0]
20008106:	f240 73ff 	movw	r3, #2047	@ 0x7ff
2000810a:	f1c4 0110 	rsb	r1, r4, #16
2000810e:	2095      	movs	r0, #149	@ 0x95
20008110:	4111      	asrs	r1, r2
20008112:	802b      	strh	r3, [r5, #0]
20008114:	f7ff ff87 	bl	20008026 <_Z11DispCharRepci>
20008118:	f64f 73ff 	movw	r3, #65535	@ 0xffff
2000811c:	8037      	strh	r7, [r6, #0]
2000811e:	802b      	strh	r3, [r5, #0]
20008120:	f7ff ff7e 	bl	20008020 <_Z7DispSpcv>
20008124:	2300      	movs	r3, #0
20008126:	8033      	strh	r3, [r6, #0]
20008128:	f64f 73ff 	movw	r3, #65535	@ 0xffff
2000812c:	2c12      	cmp	r4, #18
2000812e:	802b      	strh	r3, [r5, #0]
20008130:	dc05      	bgt.n	2000813e <_Z12PathFileListv+0x56>
20008132:	4815      	ldr	r0, [pc, #84]	@ (20008188 <_Z12PathFileListv+0xa0>)
20008134:	f7ff ff48 	bl	20007fc8 <_Z8DispTextPKc>
20008138:	2c12      	cmp	r4, #18
2000813a:	d10a      	bne.n	20008152 <_Z12PathFileListv+0x6a>
2000813c:	bdf8      	pop	{r3, r4, r5, r6, r7, pc}
2000813e:	202e      	movs	r0, #46	@ 0x2e
20008140:	2103      	movs	r1, #3
20008142:	f7ff ff70 	bl	20008026 <_Z11DispCharRepci>
20008146:	4811      	ldr	r0, [pc, #68]	@ (2000818c <_Z12PathFileListv+0xa4>)
20008148:	4420      	add	r0, r4
2000814a:	e8bd 40f8 	ldmia.w	sp!, {r3, r4, r5, r6, r7, lr}
2000814e:	f7ff bf3b 	b.w	20007fc8 <_Z8DispTextPKc>
20008152:	f7ff ff65 	bl	20008020 <_Z7DispSpcv>
20008156:	2c11      	cmp	r4, #17
20008158:	d0f0      	beq.n	2000813c <_Z12PathFileListv+0x54>
2000815a:	231f      	movs	r3, #31
2000815c:	8033      	strh	r3, [r6, #0]
2000815e:	f240 73ff 	movw	r3, #2047	@ 0x7ff
20008162:	f1c4 0111 	rsb	r1, r4, #17
20008166:	802b      	strh	r3, [r5, #0]
20008168:	2095      	movs	r0, #149	@ 0x95
2000816a:	e8bd 40f8 	ldmia.w	sp!, {r3, r4, r5, r6, r7, lr}
2000816e:	1049      	asrs	r1, r1, #1
20008170:	f7ff bf59 	b.w	20008026 <_Z11DispCharRepci>
20008174:	2003167c 	.word	0x2003167c
20008178:	20032278 	.word	0x20032278
2000817c:	2000ade0 	.word	0x2000ade0
20008180:	2000addc 	.word	0x2000addc
20008184:	20032274 	.word	0x20032274
20008188:	2003243f 	.word	0x2003243f
2000818c:	20032430 	.word	0x20032430

20008190 <_Z11InxFileListv>:
20008190:	e92d 43f8 	stmdb	sp!, {r3, r4, r5, r6, r7, r8, r9, lr}
20008194:	4e23      	ldr	r6, [pc, #140]	@ (20008224 <_Z11InxFileListv+0x94>)
20008196:	6833      	ldr	r3, [r6, #0]
20008198:	2b00      	cmp	r3, #0
2000819a:	d040      	beq.n	2000821e <_Z11InxFileListv+0x8e>
2000819c:	4b22      	ldr	r3, [pc, #136]	@ (20008228 <_Z11InxFileListv+0x98>)
2000819e:	4c23      	ldr	r4, [pc, #140]	@ (2000822c <_Z11InxFileListv+0x9c>)
200081a0:	6819      	ldr	r1, [r3, #0]
200081a2:	2200      	movs	r2, #0
200081a4:	4620      	mov	r0, r4
200081a6:	3101      	adds	r1, #1
200081a8:	f7fb ff4b 	bl	20004042 <DecNum>
200081ac:	232f      	movs	r3, #47	@ 0x2f
200081ae:	f100 0901 	add.w	r9, r0, #1
200081b2:	5423      	strb	r3, [r4, r0]
200081b4:	6831      	ldr	r1, [r6, #0]
200081b6:	eb04 0009 	add.w	r0, r4, r9
200081ba:	2200      	movs	r2, #0
200081bc:	f7fb ff41 	bl	20004042 <DecNum>
200081c0:	220e      	movs	r2, #14
200081c2:	4b1b      	ldr	r3, [pc, #108]	@ (20008230 <_Z11InxFileListv+0xa0>)
200081c4:	f04f 081f 	mov.w	r8, #31
200081c8:	601a      	str	r2, [r3, #0]
200081ca:	2201      	movs	r2, #1
200081cc:	f240 76ff 	movw	r6, #2047	@ 0x7ff
200081d0:	4481      	add	r9, r0
200081d2:	f1c9 0110 	rsb	r1, r9, #16
200081d6:	4b17      	ldr	r3, [pc, #92]	@ (20008234 <_Z11InxFileListv+0xa4>)
200081d8:	4f17      	ldr	r7, [pc, #92]	@ (20008238 <_Z11InxFileListv+0xa8>)
200081da:	4d18      	ldr	r5, [pc, #96]	@ (2000823c <_Z11InxFileListv+0xac>)
200081dc:	eb01 71d1 	add.w	r1, r1, r1, lsr #31
200081e0:	4111      	asrs	r1, r2
200081e2:	2095      	movs	r0, #149	@ 0x95
200081e4:	601a      	str	r2, [r3, #0]
200081e6:	f8a7 8000 	strh.w	r8, [r7]
200081ea:	802e      	strh	r6, [r5, #0]
200081ec:	f7ff ff1b 	bl	20008026 <_Z11DispCharRepci>
200081f0:	803e      	strh	r6, [r7, #0]
200081f2:	f8a5 8000 	strh.w	r8, [r5]
200081f6:	f7ff ff13 	bl	20008020 <_Z7DispSpcv>
200081fa:	4620      	mov	r0, r4
200081fc:	f7ff fee4 	bl	20007fc8 <_Z8DispTextPKc>
20008200:	f7ff ff0e 	bl	20008020 <_Z7DispSpcv>
20008204:	f1c9 0111 	rsb	r1, r9, #17
20008208:	eb01 71d1 	add.w	r1, r1, r1, lsr #31
2000820c:	f8a7 8000 	strh.w	r8, [r7]
20008210:	802e      	strh	r6, [r5, #0]
20008212:	2095      	movs	r0, #149	@ 0x95
20008214:	e8bd 43f8 	ldmia.w	sp!, {r3, r4, r5, r6, r7, r8, r9, lr}
20008218:	1049      	asrs	r1, r1, #1
2000821a:	f7ff bf04 	b.w	20008026 <_Z11DispCharRepci>
2000821e:	e8bd 83f8 	ldmia.w	sp!, {r3, r4, r5, r6, r7, r8, r9, pc}
20008222:	bf00      	nop
20008224:	2000be3c 	.word	0x2000be3c
20008228:	2000adf4 	.word	0x2000adf4
2000822c:	20032532 	.word	0x20032532
20008230:	2000ade0 	.word	0x2000ade0
20008234:	2000addc 	.word	0x2000addc
20008238:	20032278 	.word	0x20032278
2000823c:	20032274 	.word	0x20032274

20008240 <_Z12DispFileListv>:
20008240:	e92d 4ff7 	stmdb	sp!, {r0, r1, r2, r4, r5, r6, r7, r8, r9, sl, fp, lr}
20008244:	f04f 0801 	mov.w	r8, #1
20008248:	2500      	movs	r5, #0
2000824a:	f240 7aff 	movw	sl, #2047	@ 0x7ff
2000824e:	f8df 9108 	ldr.w	r9, [pc, #264]	@ 20008358 <_Z12DispFileListv+0x118>
20008252:	4e38      	ldr	r6, [pc, #224]	@ (20008334 <_Z12DispFileListv+0xf4>)
20008254:	f8d9 3000 	ldr.w	r3, [r9]
20008258:	4c37      	ldr	r4, [pc, #220]	@ (20008338 <_Z12DispFileListv+0xf8>)
2000825a:	4f38      	ldr	r7, [pc, #224]	@ (2000833c <_Z12DispFileListv+0xfc>)
2000825c:	f8c6 8000 	str.w	r8, [r6]
20008260:	eb04 1403 	add.w	r4, r4, r3, lsl #4
20008264:	4b36      	ldr	r3, [pc, #216]	@ (20008340 <_Z12DispFileListv+0x100>)
20008266:	4937      	ldr	r1, [pc, #220]	@ (20008344 <_Z12DispFileListv+0x104>)
20008268:	f8c3 8000 	str.w	r8, [r3]
2000826c:	f240 73ff 	movw	r3, #2047	@ 0x7ff
20008270:	803b      	strh	r3, [r7, #0]
20008272:	231f      	movs	r3, #31
20008274:	4a34      	ldr	r2, [pc, #208]	@ (20008348 <_Z12DispFileListv+0x108>)
20008276:	800b      	strh	r3, [r1, #0]
20008278:	f8d9 3000 	ldr.w	r3, [r9]
2000827c:	6812      	ldr	r2, [r2, #0]
2000827e:	442b      	add	r3, r5
20008280:	429a      	cmp	r2, r3
20008282:	dd54      	ble.n	2000832e <_Z12DispFileListv+0xee>
20008284:	7922      	ldrb	r2, [r4, #4]
20008286:	f012 0b10 	ands.w	fp, r2, #16
2000828a:	bf1c      	itt	ne
2000828c:	f64f 70ff 	movwne	r0, #65535	@ 0xffff
20008290:	8038      	strhne	r0, [r7, #0]
20008292:	482e      	ldr	r0, [pc, #184]	@ (2000834c <_Z12DispFileListv+0x10c>)
20008294:	6800      	ldr	r0, [r0, #0]
20008296:	4298      	cmp	r0, r3
20008298:	bf02      	ittt	eq
2000829a:	2300      	moveq	r3, #0
2000829c:	f8a1 a000 	strheq.w	sl, [r1]
200082a0:	803b      	strheq	r3, [r7, #0]
200082a2:	f1bb 0f00 	cmp.w	fp, #0
200082a6:	bf0c      	ite	eq
200082a8:	2020      	moveq	r0, #32
200082aa:	205b      	movne	r0, #91	@ 0x5b
200082ac:	f7ff feac 	bl	20008008 <_Z8DispCharc>
200082b0:	f06f 0104 	mvn.w	r1, #4
200082b4:	1d63      	adds	r3, r4, #5
200082b6:	1b09      	subs	r1, r1, r4
200082b8:	f894 c005 	ldrb.w	ip, [r4, #5]
200082bc:	18c8      	adds	r0, r1, r3
200082be:	4584      	cmp	ip, r0
200082c0:	dc0b      	bgt.n	200082da <_Z12DispFileListv+0x9a>
200082c2:	f1bb 0f00 	cmp.w	fp, #0
200082c6:	d011      	beq.n	200082ec <_Z12DispFileListv+0xac>
200082c8:	205d      	movs	r0, #93	@ 0x5d
200082ca:	f7ff fe9d 	bl	20008008 <_Z8DispCharc>
200082ce:	7960      	ldrb	r0, [r4, #5]
200082d0:	f1c0 0010 	rsb	r0, r0, #16
200082d4:	f7ff feb2 	bl	2000803c <_Z10DispSpcRepi>
200082d8:	e01a      	b.n	20008310 <_Z12DispFileListv+0xd0>
200082da:	f813 0f01 	ldrb.w	r0, [r3, #1]!
200082de:	9101      	str	r1, [sp, #4]
200082e0:	9300      	str	r3, [sp, #0]
200082e2:	f7ff fe91 	bl	20008008 <_Z8DispCharc>
200082e6:	e9dd 3100 	ldrd	r3, r1, [sp]
200082ea:	e7e5      	b.n	200082b8 <_Z12DispFileListv+0x78>
200082ec:	6821      	ldr	r1, [r4, #0]
200082ee:	4b18      	ldr	r3, [pc, #96]	@ (20008350 <_Z12DispFileListv+0x110>)
200082f0:	4818      	ldr	r0, [pc, #96]	@ (20008354 <_Z12DispFileListv+0x114>)
200082f2:	4299      	cmp	r1, r3
200082f4:	bf94      	ite	ls
200082f6:	2227      	movls	r2, #39	@ 0x27
200082f8:	465a      	movhi	r2, fp
200082fa:	f7fb fe75 	bl	20003fe8 <DecUNum>
200082fe:	7963      	ldrb	r3, [r4, #5]
20008300:	f1c3 0311 	rsb	r3, r3, #17
20008304:	1a18      	subs	r0, r3, r0
20008306:	f7ff fe99 	bl	2000803c <_Z10DispSpcRepi>
2000830a:	4812      	ldr	r0, [pc, #72]	@ (20008354 <_Z12DispFileListv+0x114>)
2000830c:	f7ff fe5c 	bl	20007fc8 <_Z8DispTextPKc>
20008310:	6833      	ldr	r3, [r6, #0]
20008312:	3501      	adds	r5, #1
20008314:	3301      	adds	r3, #1
20008316:	2d0d      	cmp	r5, #13
20008318:	6033      	str	r3, [r6, #0]
2000831a:	f104 0410 	add.w	r4, r4, #16
2000831e:	d1a1      	bne.n	20008264 <_Z12DispFileListv+0x24>
20008320:	f7ff ff36 	bl	20008190 <_Z11InxFileListv>
20008324:	b003      	add	sp, #12
20008326:	e8bd 4ff0 	ldmia.w	sp!, {r4, r5, r6, r7, r8, r9, sl, fp, lr}
2000832a:	f7ff bedd 	b.w	200080e8 <_Z12PathFileListv>
2000832e:	2012      	movs	r0, #18
20008330:	e7d0      	b.n	200082d4 <_Z12DispFileListv+0x94>
20008332:	bf00      	nop
20008334:	2000ade0 	.word	0x2000ade0
20008338:	2000adf8 	.word	0x2000adf8
2000833c:	20032278 	.word	0x20032278
20008340:	2000addc 	.word	0x2000addc
20008344:	20032274 	.word	0x20032274
20008348:	2000be3c 	.word	0x2000be3c
2000834c:	2000adf4 	.word	0x2000adf4
20008350:	000f423f 	.word	0x000f423f
20008354:	200323eb 	.word	0x200323eb
20008358:	2000be40 	.word	0x2000be40

2000835c <_Z12LoadFileListv>:
2000835c:	e92d 4ff8 	stmdb	sp!, {r3, r4, r5, r6, r7, r8, r9, sl, fp, lr}
20008360:	2300      	movs	r3, #0
20008362:	4d61      	ldr	r5, [pc, #388]	@ (200084e8 <_Z12LoadFileListv+0x18c>)
20008364:	4a61      	ldr	r2, [pc, #388]	@ (200084ec <_Z12LoadFileListv+0x190>)
20008366:	4862      	ldr	r0, [pc, #392]	@ (200084f0 <_Z12LoadFileListv+0x194>)
20008368:	602b      	str	r3, [r5, #0]
2000836a:	6013      	str	r3, [r2, #0]
2000836c:	f7fd fed2 	bl	20006114 <SetDir>
20008370:	2800      	cmp	r0, #0
20008372:	f000 80b7 	beq.w	200084e4 <_Z12LoadFileListv+0x188>
20008376:	495f      	ldr	r1, [pc, #380]	@ (200084f4 <_Z12LoadFileListv+0x198>)
20008378:	485f      	ldr	r0, [pc, #380]	@ (200084f8 <_Z12LoadFileListv+0x19c>)
2000837a:	f7fd fef1 	bl	20006160 <FindOpen>
2000837e:	2800      	cmp	r0, #0
20008380:	f000 80b0 	beq.w	200084e4 <_Z12LoadFileListv+0x188>
20008384:	f44f 7780 	mov.w	r7, #256	@ 0x100
20008388:	4c5c      	ldr	r4, [pc, #368]	@ (200084fc <_Z12LoadFileListv+0x1a0>)
2000838a:	4e5d      	ldr	r6, [pc, #372]	@ (20008500 <_Z12LoadFileListv+0x1a4>)
2000838c:	2237      	movs	r2, #55	@ 0x37
2000838e:	4b5d      	ldr	r3, [pc, #372]	@ (20008504 <_Z12LoadFileListv+0x1a8>)
20008390:	495b      	ldr	r1, [pc, #364]	@ (20008500 <_Z12LoadFileListv+0x1a4>)
20008392:	4859      	ldr	r0, [pc, #356]	@ (200084f8 <_Z12LoadFileListv+0x19c>)
20008394:	f7fd ff22 	bl	200061dc <FindNext>
20008398:	b308      	cbz	r0, 200083de <_Z12LoadFileListv+0x82>
2000839a:	7db3      	ldrb	r3, [r6, #22]
2000839c:	7d72      	ldrb	r2, [r6, #21]
2000839e:	f013 0110 	ands.w	r1, r3, #16
200083a2:	d004      	beq.n	200083ae <_Z12LoadFileListv+0x52>
200083a4:	2a01      	cmp	r2, #1
200083a6:	d102      	bne.n	200083ae <_Z12LoadFileListv+0x52>
200083a8:	7a30      	ldrb	r0, [r6, #8]
200083aa:	282e      	cmp	r0, #46	@ 0x2e
200083ac:	d015      	beq.n	200083da <_Z12LoadFileListv+0x7e>
200083ae:	f003 003f 	and.w	r0, r3, #63	@ 0x3f
200083b2:	7120      	strb	r0, [r4, #4]
200083b4:	6830      	ldr	r0, [r6, #0]
200083b6:	6020      	str	r0, [r4, #0]
200083b8:	b1c1      	cbz	r1, 200083ec <_Z12LoadFileListv+0x90>
200083ba:	2a02      	cmp	r2, #2
200083bc:	d116      	bne.n	200083ec <_Z12LoadFileListv+0x90>
200083be:	7a30      	ldrb	r0, [r6, #8]
200083c0:	282e      	cmp	r0, #46	@ 0x2e
200083c2:	d113      	bne.n	200083ec <_Z12LoadFileListv+0x90>
200083c4:	7a70      	ldrb	r0, [r6, #9]
200083c6:	282e      	cmp	r0, #46	@ 0x2e
200083c8:	d110      	bne.n	200083ec <_Z12LoadFileListv+0x90>
200083ca:	f642 632e 	movw	r3, #11822	@ 0x2e2e
200083ce:	7162      	strb	r2, [r4, #5]
200083d0:	80e3      	strh	r3, [r4, #6]
200083d2:	682b      	ldr	r3, [r5, #0]
200083d4:	3410      	adds	r4, #16
200083d6:	3301      	adds	r3, #1
200083d8:	602b      	str	r3, [r5, #0]
200083da:	3f01      	subs	r7, #1
200083dc:	d1d6      	bne.n	2000838c <_Z12LoadFileListv+0x30>
200083de:	682c      	ldr	r4, [r5, #0]
200083e0:	2000      	movs	r0, #0
200083e2:	4b46      	ldr	r3, [pc, #280]	@ (200084fc <_Z12LoadFileListv+0x1a0>)
200083e4:	f8df c128 	ldr.w	ip, [pc, #296]	@ 20008510 <_Z12LoadFileListv+0x1b4>
200083e8:	3c01      	subs	r4, #1
200083ea:	e079      	b.n	200084e0 <_Z12LoadFileListv+0x184>
200083ec:	f013 0302 	ands.w	r3, r3, #2
200083f0:	d1f3      	bne.n	200083da <_Z12LoadFileListv+0x7e>
200083f2:	b191      	cbz	r1, 2000841a <_Z12LoadFileListv+0xbe>
200083f4:	4844      	ldr	r0, [pc, #272]	@ (20008508 <_Z12LoadFileListv+0x1ac>)
200083f6:	1d61      	adds	r1, r4, #5
200083f8:	429a      	cmp	r2, r3
200083fa:	dd01      	ble.n	20008400 <_Z12LoadFileListv+0xa4>
200083fc:	2b08      	cmp	r3, #8
200083fe:	d103      	bne.n	20008408 <_Z12LoadFileListv+0xac>
20008400:	429a      	cmp	r2, r3
20008402:	d1ea      	bne.n	200083da <_Z12LoadFileListv+0x7e>
20008404:	7162      	strb	r2, [r4, #5]
20008406:	e7e4      	b.n	200083d2 <_Z12LoadFileListv+0x76>
20008408:	f810 cf01 	ldrb.w	ip, [r0, #1]!
2000840c:	f1bc 0f2e 	cmp.w	ip, #46	@ 0x2e
20008410:	d0e3      	beq.n	200083da <_Z12LoadFileListv+0x7e>
20008412:	f801 cf01 	strb.w	ip, [r1, #1]!
20008416:	3301      	adds	r3, #1
20008418:	e7ee      	b.n	200083f8 <_Z12LoadFileListv+0x9c>
2000841a:	2a04      	cmp	r2, #4
2000841c:	dddd      	ble.n	200083da <_Z12LoadFileListv+0x7e>
2000841e:	493b      	ldr	r1, [pc, #236]	@ (2000850c <_Z12LoadFileListv+0x1b0>)
20008420:	5c8b      	ldrb	r3, [r1, r2]
20008422:	2b2e      	cmp	r3, #46	@ 0x2e
20008424:	d1d9      	bne.n	200083da <_Z12LoadFileListv+0x7e>
20008426:	1c4b      	adds	r3, r1, #1
20008428:	5c9b      	ldrb	r3, [r3, r2]
2000842a:	2b55      	cmp	r3, #85	@ 0x55
2000842c:	d1d5      	bne.n	200083da <_Z12LoadFileListv+0x7e>
2000842e:	1c8b      	adds	r3, r1, #2
20008430:	5c9b      	ldrb	r3, [r3, r2]
20008432:	2b46      	cmp	r3, #70	@ 0x46
20008434:	d1d1      	bne.n	200083da <_Z12LoadFileListv+0x7e>
20008436:	1ccb      	adds	r3, r1, #3
20008438:	5c9b      	ldrb	r3, [r3, r2]
2000843a:	2b32      	cmp	r3, #50	@ 0x32
2000843c:	d1cd      	bne.n	200083da <_Z12LoadFileListv+0x7e>
2000843e:	3a04      	subs	r2, #4
20008440:	7162      	strb	r2, [r4, #5]
20008442:	3104      	adds	r1, #4
20008444:	1da0      	adds	r0, r4, #6
20008446:	f000 ff7f 	bl	20009348 <memcpy>
2000844a:	e7c2      	b.n	200083d2 <_Z12LoadFileListv+0x76>
2000844c:	6959      	ldr	r1, [r3, #20]
2000844e:	791d      	ldrb	r5, [r3, #4]
20008450:	f021 01ff 	bic.w	r1, r1, #255	@ 0xff
20008454:	ebb1 010c 	subs.w	r1, r1, ip
20008458:	bf18      	it	ne
2000845a:	2101      	movne	r1, #1
2000845c:	7d1e      	ldrb	r6, [r3, #20]
2000845e:	06ea      	lsls	r2, r5, #27
20008460:	bf5e      	ittt	pl
20008462:	f3c6 1200 	ubfxpl	r2, r6, #4, #1
20008466:	f082 0201 	eorpl.w	r2, r2, #1
2000846a:	4011      	andpl	r1, r2
2000846c:	ea85 0206 	eor.w	r2, r5, r6
20008470:	f012 0210 	ands.w	r2, r2, #16
20008474:	d119      	bne.n	200084aa <_Z12LoadFileListv+0x14e>
20008476:	f893 8005 	ldrb.w	r8, [r3, #5]
2000847a:	f893 e015 	ldrb.w	lr, [r3, #21]
2000847e:	46c1      	mov	r9, r8
20008480:	45f0      	cmp	r8, lr
20008482:	bf28      	it	cs
20008484:	46f1      	movcs	r9, lr
20008486:	1d5f      	adds	r7, r3, #5
20008488:	4591      	cmp	r9, r2
2000848a:	dc01      	bgt.n	20008490 <_Z12LoadFileListv+0x134>
2000848c:	45f0      	cmp	r8, lr
2000848e:	e00b      	b.n	200084a8 <_Z12LoadFileListv+0x14c>
20008490:	f817 bf01 	ldrb.w	fp, [r7, #1]!
20008494:	f897 a010 	ldrb.w	sl, [r7, #16]
20008498:	45d3      	cmp	fp, sl
2000849a:	d101      	bne.n	200084a0 <_Z12LoadFileListv+0x144>
2000849c:	3201      	adds	r2, #1
2000849e:	e7f3      	b.n	20008488 <_Z12LoadFileListv+0x12c>
200084a0:	441a      	add	r2, r3
200084a2:	7997      	ldrb	r7, [r2, #6]
200084a4:	7d92      	ldrb	r2, [r2, #22]
200084a6:	4297      	cmp	r7, r2
200084a8:	d800      	bhi.n	200084ac <_Z12LoadFileListv+0x150>
200084aa:	b9b9      	cbnz	r1, 200084dc <_Z12LoadFileListv+0x180>
200084ac:	795a      	ldrb	r2, [r3, #5]
200084ae:	7d59      	ldrb	r1, [r3, #21]
200084b0:	755a      	strb	r2, [r3, #21]
200084b2:	7159      	strb	r1, [r3, #5]
200084b4:	681a      	ldr	r2, [r3, #0]
200084b6:	6919      	ldr	r1, [r3, #16]
200084b8:	711e      	strb	r6, [r3, #4]
200084ba:	6019      	str	r1, [r3, #0]
200084bc:	611a      	str	r2, [r3, #16]
200084be:	751d      	strb	r5, [r3, #20]
200084c0:	1d5a      	adds	r2, r3, #5
200084c2:	f103 010d 	add.w	r1, r3, #13
200084c6:	f812 5f01 	ldrb.w	r5, [r2, #1]!
200084ca:	7c16      	ldrb	r6, [r2, #16]
200084cc:	428a      	cmp	r2, r1
200084ce:	7016      	strb	r6, [r2, #0]
200084d0:	7415      	strb	r5, [r2, #16]
200084d2:	d1f8      	bne.n	200084c6 <_Z12LoadFileListv+0x16a>
200084d4:	2800      	cmp	r0, #0
200084d6:	bfc4      	itt	gt
200084d8:	3802      	subgt	r0, #2
200084da:	3b20      	subgt	r3, #32
200084dc:	3001      	adds	r0, #1
200084de:	3310      	adds	r3, #16
200084e0:	42a0      	cmp	r0, r4
200084e2:	dbb3      	blt.n	2000844c <_Z12LoadFileListv+0xf0>
200084e4:	e8bd 8ff8 	ldmia.w	sp!, {r3, r4, r5, r6, r7, r8, r9, sl, fp, pc}
200084e8:	2000be3c 	.word	0x2000be3c
200084ec:	2000adf4 	.word	0x2000adf4
200084f0:	2003243f 	.word	0x2003243f
200084f4:	2000952a 	.word	0x2000952a
200084f8:	2000bdf8 	.word	0x2000bdf8
200084fc:	2000adf8 	.word	0x2000adf8
20008500:	2000be24 	.word	0x2000be24
20008504:	2000962a 	.word	0x2000962a
20008508:	2000be2b 	.word	0x2000be2b
2000850c:	2000be28 	.word	0x2000be28
20008510:	2e2e0200 	.word	0x2e2e0200

20008514 <_Z6Reloadv>:
20008514:	b508      	push	{r3, lr}
20008516:	2300      	movs	r3, #0
20008518:	4a06      	ldr	r2, [pc, #24]	@ (20008534 <_Z6Reloadv+0x20>)
2000851a:	6013      	str	r3, [r2, #0]
2000851c:	4a06      	ldr	r2, [pc, #24]	@ (20008538 <_Z6Reloadv+0x24>)
2000851e:	6013      	str	r3, [r2, #0]
20008520:	4a06      	ldr	r2, [pc, #24]	@ (2000853c <_Z6Reloadv+0x28>)
20008522:	6013      	str	r3, [r2, #0]
20008524:	f7ff fd94 	bl	20008050 <_Z13FrameFileListv>
20008528:	f7ff fdde 	bl	200080e8 <_Z12PathFileListv>
2000852c:	2201      	movs	r2, #1
2000852e:	4b04      	ldr	r3, [pc, #16]	@ (20008540 <_Z6Reloadv+0x2c>)
20008530:	701a      	strb	r2, [r3, #0]
20008532:	bd08      	pop	{r3, pc}
20008534:	2000be3c 	.word	0x2000be3c
20008538:	2000adf4 	.word	0x2000adf4
2000853c:	2000be40 	.word	0x2000be40
20008540:	20032530 	.word	0x20032530

20008544 <_Z9ResetRootv>:
20008544:	222f      	movs	r2, #47	@ 0x2f
20008546:	4b04      	ldr	r3, [pc, #16]	@ (20008558 <_Z9ResetRootv+0x14>)
20008548:	701a      	strb	r2, [r3, #0]
2000854a:	2200      	movs	r2, #0
2000854c:	705a      	strb	r2, [r3, #1]
2000854e:	2201      	movs	r2, #1
20008550:	4b02      	ldr	r3, [pc, #8]	@ (2000855c <_Z9ResetRootv+0x18>)
20008552:	601a      	str	r2, [r3, #0]
20008554:	f7ff bfde 	b.w	20008514 <_Z6Reloadv>
20008558:	2003243f 	.word	0x2003243f
2000855c:	2003167c 	.word	0x2003167c

20008560 <_Z11SetLastNamev>:
20008560:	e92d 43f8 	stmdb	sp!, {r3, r4, r5, r6, r7, r8, r9, lr}
20008564:	4f1c      	ldr	r7, [pc, #112]	@ (200085d8 <_Z11SetLastNamev+0x78>)
20008566:	683e      	ldr	r6, [r7, #0]
20008568:	b1e6      	cbz	r6, 200085a4 <_Z11SetLastNamev+0x44>
2000856a:	4b1c      	ldr	r3, [pc, #112]	@ (200085dc <_Z11SetLastNamev+0x7c>)
2000856c:	4a1c      	ldr	r2, [pc, #112]	@ (200085e0 <_Z11SetLastNamev+0x80>)
2000856e:	681b      	ldr	r3, [r3, #0]
20008570:	f8df 807c 	ldr.w	r8, [pc, #124]	@ 200085f0 <_Z11SetLastNamev+0x90>
20008574:	4d1b      	ldr	r5, [pc, #108]	@ (200085e4 <_Z11SetLastNamev+0x84>)
20008576:	1e5c      	subs	r4, r3, #1
20008578:	f892 9000 	ldrb.w	r9, [r2]
2000857c:	f8c8 4000 	str.w	r4, [r8]
20008580:	eb05 1503 	add.w	r5, r5, r3, lsl #4
20008584:	2c00      	cmp	r4, #0
20008586:	dc0f      	bgt.n	200085a8 <_Z11SetLastNamev+0x48>
20008588:	4b17      	ldr	r3, [pc, #92]	@ (200085e8 <_Z11SetLastNamev+0x88>)
2000858a:	681a      	ldr	r2, [r3, #0]
2000858c:	42a2      	cmp	r2, r4
2000858e:	bfc4      	itt	gt
20008590:	4622      	movgt	r2, r4
20008592:	601c      	strgt	r4, [r3, #0]
20008594:	3c0c      	subs	r4, #12
20008596:	ea24 74e4 	bic.w	r4, r4, r4, asr #31
2000859a:	4294      	cmp	r4, r2
2000859c:	bfc8      	it	gt
2000859e:	601c      	strgt	r4, [r3, #0]
200085a0:	2300      	movs	r3, #0
200085a2:	603b      	str	r3, [r7, #0]
200085a4:	e8bd 83f8 	ldmia.w	sp!, {r3, r4, r5, r6, r7, r8, r9, pc}
200085a8:	f815 3c0b 	ldrb.w	r3, [r5, #-11]
200085ac:	429e      	cmp	r6, r3
200085ae:	d10d      	bne.n	200085cc <_Z11SetLastNamev+0x6c>
200085b0:	f815 3c0c 	ldrb.w	r3, [r5, #-12]
200085b4:	f003 0310 	and.w	r3, r3, #16
200085b8:	4599      	cmp	r9, r3
200085ba:	d107      	bne.n	200085cc <_Z11SetLastNamev+0x6c>
200085bc:	4632      	mov	r2, r6
200085be:	480b      	ldr	r0, [pc, #44]	@ (200085ec <_Z11SetLastNamev+0x8c>)
200085c0:	f1a5 010a 	sub.w	r1, r5, #10
200085c4:	f000 fe44 	bl	20009250 <memcmp>
200085c8:	2800      	cmp	r0, #0
200085ca:	d0dd      	beq.n	20008588 <_Z11SetLastNamev+0x28>
200085cc:	3c01      	subs	r4, #1
200085ce:	f8c8 4000 	str.w	r4, [r8]
200085d2:	3d10      	subs	r5, #16
200085d4:	e7d6      	b.n	20008584 <_Z11SetLastNamev+0x24>
200085d6:	bf00      	nop
200085d8:	2003165c 	.word	0x2003165c
200085dc:	2000be3c 	.word	0x2000be3c
200085e0:	2003243d 	.word	0x2003243d
200085e4:	2000adf8 	.word	0x2000adf8
200085e8:	2000be40 	.word	0x2000be40
200085ec:	20032435 	.word	0x20032435
200085f0:	2000adf4 	.word	0x2000adf4

200085f4 <_Z8DispInfoPKc>:
200085f4:	b510      	push	{r4, lr}
200085f6:	4604      	mov	r4, r0
200085f8:	f7fd feec 	bl	200063d4 <StrLen>
200085fc:	f44f 62fc 	mov.w	r2, #2016	@ 0x7e0
20008600:	4b09      	ldr	r3, [pc, #36]	@ (20008628 <_Z8DispInfoPKc+0x34>)
20008602:	801a      	strh	r2, [r3, #0]
20008604:	221f      	movs	r2, #31
20008606:	4b09      	ldr	r3, [pc, #36]	@ (2000862c <_Z8DispInfoPKc+0x38>)
20008608:	801a      	strh	r2, [r3, #0]
2000860a:	2202      	movs	r2, #2
2000860c:	4b08      	ldr	r3, [pc, #32]	@ (20008630 <_Z8DispInfoPKc+0x3c>)
2000860e:	601a      	str	r2, [r3, #0]
20008610:	f1c0 0314 	rsb	r3, r0, #20
20008614:	4a07      	ldr	r2, [pc, #28]	@ (20008634 <_Z8DispInfoPKc+0x40>)
20008616:	eb03 73d3 	add.w	r3, r3, r3, lsr #31
2000861a:	4620      	mov	r0, r4
2000861c:	e8bd 4010 	ldmia.w	sp!, {r4, lr}
20008620:	105b      	asrs	r3, r3, #1
20008622:	6013      	str	r3, [r2, #0]
20008624:	f7ff bcd0 	b.w	20007fc8 <_Z8DispTextPKc>
20008628:	20032278 	.word	0x20032278
2000862c:	20032274 	.word	0x20032274
20008630:	2000ade0 	.word	0x2000ade0
20008634:	2000addc 	.word	0x2000addc

20008638 <_Z8Progressiiit>:
20008638:	b5f7      	push	{r0, r1, r2, r4, r5, r6, r7, lr}
2000863a:	4615      	mov	r5, r2
2000863c:	461e      	mov	r6, r3
2000863e:	f64f 73ff 	movw	r3, #65535	@ 0xffff
20008642:	460f      	mov	r7, r1
20008644:	9300      	str	r3, [sp, #0]
20008646:	1ea9      	subs	r1, r5, #2
20008648:	4604      	mov	r4, r0
2000864a:	2314      	movs	r3, #20
2000864c:	f44f 7282 	mov.w	r2, #260	@ 0x104
20008650:	201e      	movs	r0, #30
20008652:	f7fb fdc7 	bl	200041e4 <DrawFrame>
20008656:	f248 4310 	movw	r3, #33808	@ 0x8410
2000865a:	4629      	mov	r1, r5
2000865c:	9300      	str	r3, [sp, #0]
2000865e:	f44f 7280 	mov.w	r2, #256	@ 0x100
20008662:	2310      	movs	r3, #16
20008664:	2020      	movs	r0, #32
20008666:	0224      	lsls	r4, r4, #8
20008668:	f7fb fd30 	bl	200040cc <DrawRect>
2000866c:	fb94 f2f7 	sdiv	r2, r4, r7
20008670:	f5b2 7f80 	cmp.w	r2, #256	@ 0x100
20008674:	f04f 0310 	mov.w	r3, #16
20008678:	bfa8      	it	ge
2000867a:	f44f 7280 	movge.w	r2, #256	@ 0x100
2000867e:	4629      	mov	r1, r5
20008680:	2020      	movs	r0, #32
20008682:	9600      	str	r6, [sp, #0]
20008684:	f7fb fd22 	bl	200040cc <DrawRect>
20008688:	b003      	add	sp, #12
2000868a:	e8bd 40f0 	ldmia.w	sp!, {r4, r5, r6, r7, lr}
2000868e:	f7ff bac5 	b.w	20007c1c <DispUpdate>

20008692 <_Z11DispBigInfoPKc>:
20008692:	b513      	push	{r0, r1, r4, lr}
20008694:	4604      	mov	r4, r0
20008696:	f7fb fdbb 	bl	20004210 <DrawClear>
2000869a:	4620      	mov	r0, r4
2000869c:	f7fd fe9a 	bl	200063d4 <StrLen>
200086a0:	2300      	movs	r3, #0
200086a2:	f1c0 0114 	rsb	r1, r0, #20
200086a6:	9300      	str	r3, [sp, #0]
200086a8:	2258      	movs	r2, #88	@ 0x58
200086aa:	f64f 73e0 	movw	r3, #65504	@ 0xffe0
200086ae:	4620      	mov	r0, r4
200086b0:	00c9      	lsls	r1, r1, #3
200086b2:	f7fc f857 	bl	20004764 <DrawTextBg2>
200086b6:	b002      	add	sp, #8
200086b8:	e8bd 4010 	ldmia.w	sp!, {r4, lr}
200086bc:	f7ff baae 	b.w	20007c1c <DispUpdate>

200086c0 <_Z8ClearApph>:
200086c0:	b5f8      	push	{r3, r4, r5, r6, r7, lr}
200086c2:	4605      	mov	r5, r0
200086c4:	481f      	ldr	r0, [pc, #124]	@ (20008744 <_Z8ClearApph+0x84>)
200086c6:	f7ff ffe4 	bl	20008692 <_Z11DispBigInfoPKc>
200086ca:	2d00      	cmp	r5, #0
200086cc:	4c1e      	ldr	r4, [pc, #120]	@ (20008748 <_Z8ClearApph+0x88>)
200086ce:	bf18      	it	ne
200086d0:	f44f 0480 	movne.w	r4, #4194304	@ 0x400000
200086d4:	f104 5380 	add.w	r3, r4, #268435456	@ 0x10000000
200086d8:	f853 3c04 	ldr.w	r3, [r3, #-4]
200086dc:	3301      	adds	r3, #1
200086de:	d103      	bne.n	200086e8 <_Z8ClearApph+0x28>
200086e0:	3c04      	subs	r4, #4
200086e2:	2c03      	cmp	r4, #3
200086e4:	d8f6      	bhi.n	200086d4 <_Z8ClearApph+0x14>
200086e6:	2400      	movs	r4, #0
200086e8:	f504 447f 	add.w	r4, r4, #65280	@ 0xff00
200086ec:	34fc      	adds	r4, #252	@ 0xfc
200086ee:	f36f 040f 	bfc	r4, #0, #16
200086f2:	b91d      	cbnz	r5, 200086fc <_Z8ClearApph+0x3c>
200086f4:	4b14      	ldr	r3, [pc, #80]	@ (20008748 <_Z8ClearApph+0x88>)
200086f6:	429c      	cmp	r4, r3
200086f8:	bf28      	it	cs
200086fa:	461c      	movcs	r4, r3
200086fc:	4625      	mov	r5, r4
200086fe:	f04f 5680 	mov.w	r6, #268435456	@ 0x10000000
20008702:	f5b5 5f80 	cmp.w	r5, #4096	@ 0x1000
20008706:	f64f 33e0 	movw	r3, #64480	@ 0xfbe0
2000870a:	f04f 027a 	mov.w	r2, #122	@ 0x7a
2000870e:	4621      	mov	r1, r4
20008710:	d207      	bcs.n	20008722 <_Z8ClearApph+0x62>
20008712:	4620      	mov	r0, r4
20008714:	f7ff ff90 	bl	20008638 <_Z8Progressiiit>
20008718:	e8bd 40f8 	ldmia.w	sp!, {r3, r4, r5, r6, r7, lr}
2000871c:	2032      	movs	r0, #50	@ 0x32
2000871e:	f7f9 bae1 	b.w	20001ce4 <WaitMs>
20008722:	1b60      	subs	r0, r4, r5
20008724:	f7ff ff88 	bl	20008638 <_Z8Progressiiit>
20008728:	f5b5 3f80 	cmp.w	r5, #65536	@ 0x10000
2000872c:	462f      	mov	r7, r5
2000872e:	bfa8      	it	ge
20008730:	f44f 3780 	movge.w	r7, #65536	@ 0x10000
20008734:	f106 4070 	add.w	r0, r6, #4026531840	@ 0xf0000000
20008738:	4639      	mov	r1, r7
2000873a:	f7f7 ff03 	bl	20000544 <FlashErase>
2000873e:	443e      	add	r6, r7
20008740:	1bed      	subs	r5, r5, r7
20008742:	e7de      	b.n	20008702 <_Z8ClearApph+0x42>
20008744:	2000962e 	.word	0x2000962e
20008748:	003ff000 	.word	0x003ff000

2000874c <_Z11DispInfoScrv>:
2000874c:	b537      	push	{r0, r1, r2, r4, r5, lr}
2000874e:	2400      	movs	r4, #0
20008750:	22a0      	movs	r2, #160	@ 0xa0
20008752:	23f0      	movs	r3, #240	@ 0xf0
20008754:	4610      	mov	r0, r2
20008756:	4621      	mov	r1, r4
20008758:	9400      	str	r4, [sp, #0]
2000875a:	f7fb fcb7 	bl	200040cc <DrawRect>
2000875e:	f64f 73e0 	movw	r3, #65504	@ 0xffe0
20008762:	4622      	mov	r2, r4
20008764:	21a4      	movs	r1, #164	@ 0xa4
20008766:	4856      	ldr	r0, [pc, #344]	@ (200088c0 <_Z11DispInfoScrv+0x174>)
20008768:	f7fb ffac 	bl	200046c4 <DrawText>
2000876c:	f64f 73e0 	movw	r3, #65504	@ 0xffe0
20008770:	22c0      	movs	r2, #192	@ 0xc0
20008772:	21a4      	movs	r1, #164	@ 0xa4
20008774:	4853      	ldr	r0, [pc, #332]	@ (200088c4 <_Z11DispInfoScrv+0x178>)
20008776:	f7fb ffa5 	bl	200046c4 <DrawText>
2000877a:	f64f 73e0 	movw	r3, #65504	@ 0xffe0
2000877e:	22d0      	movs	r2, #208	@ 0xd0
20008780:	21a4      	movs	r1, #164	@ 0xa4
20008782:	4851      	ldr	r0, [pc, #324]	@ (200088c8 <_Z11DispInfoScrv+0x17c>)
20008784:	f7fb ff9e 	bl	200046c4 <DrawText>
20008788:	f64f 73e0 	movw	r3, #65504	@ 0xffe0
2000878c:	22e0      	movs	r2, #224	@ 0xe0
2000878e:	21a4      	movs	r1, #164	@ 0xa4
20008790:	484e      	ldr	r0, [pc, #312]	@ (200088cc <_Z11DispInfoScrv+0x180>)
20008792:	f7fb ff97 	bl	200046c4 <DrawText>
20008796:	f240 33ff 	movw	r3, #1023	@ 0x3ff
2000879a:	2216      	movs	r2, #22
2000879c:	21b0      	movs	r1, #176	@ 0xb0
2000879e:	484c      	ldr	r0, [pc, #304]	@ (200088d0 <_Z11DispInfoScrv+0x184>)
200087a0:	f7fb ffa8 	bl	200046f4 <DrawText2>
200087a4:	f7fb fbf8 	bl	20003f98 <ConfigLoad>
200087a8:	1c43      	adds	r3, r0, #1
200087aa:	42a3      	cmp	r3, r4
200087ac:	dd1c      	ble.n	200087e8 <_Z11DispInfoScrv+0x9c>
200087ae:	f44f 6180 	mov.w	r1, #1024	@ 0x400
200087b2:	4a48      	ldr	r2, [pc, #288]	@ (200088d4 <_Z11DispInfoScrv+0x188>)
200087b4:	4848      	ldr	r0, [pc, #288]	@ (200088d8 <_Z11DispInfoScrv+0x18c>)
200087b6:	f7ff f88d 	bl	200078d4 <MemPrint>
200087ba:	4c48      	ldr	r4, [pc, #288]	@ (200088dc <_Z11DispInfoScrv+0x190>)
200087bc:	f64f 73ff 	movw	r3, #65535	@ 0xffff
200087c0:	223a      	movs	r2, #58	@ 0x3a
200087c2:	21a8      	movs	r1, #168	@ 0xa8
200087c4:	4844      	ldr	r0, [pc, #272]	@ (200088d8 <_Z11DispInfoScrv+0x18c>)
200087c6:	f7fb ff7d 	bl	200046c4 <DrawText>
200087ca:	4a45      	ldr	r2, [pc, #276]	@ (200088e0 <_Z11DispInfoScrv+0x194>)
200087cc:	4945      	ldr	r1, [pc, #276]	@ (200088e4 <_Z11DispInfoScrv+0x198>)
200087ce:	4846      	ldr	r0, [pc, #280]	@ (200088e8 <_Z11DispInfoScrv+0x19c>)
200087d0:	f7fc fa48 	bl	20004c64 <CheckApp>
200087d4:	4623      	mov	r3, r4
200087d6:	4d45      	ldr	r5, [pc, #276]	@ (200088ec <_Z11DispInfoScrv+0x1a0>)
200087d8:	7028      	strb	r0, [r5, #0]
200087da:	461a      	mov	r2, r3
200087dc:	f813 1d01 	ldrb.w	r1, [r3, #-1]!
200087e0:	29ff      	cmp	r1, #255	@ 0xff
200087e2:	d00a      	beq.n	200087fa <_Z11DispInfoScrv+0xae>
200087e4:	4613      	mov	r3, r2
200087e6:	e00b      	b.n	20008800 <_Z11DispInfoScrv+0xb4>
200087e8:	f44f 6180 	mov.w	r1, #1024	@ 0x400
200087ec:	4a40      	ldr	r2, [pc, #256]	@ (200088f0 <_Z11DispInfoScrv+0x1a4>)
200087ee:	483a      	ldr	r0, [pc, #232]	@ (200088d8 <_Z11DispInfoScrv+0x18c>)
200087f0:	f7ff f870 	bl	200078d4 <MemPrint>
200087f4:	f04f 5482 	mov.w	r4, #272629760	@ 0x10400000
200087f8:	e7e0      	b.n	200087bc <_Z11DispInfoScrv+0x70>
200087fa:	f1b3 5f80 	cmp.w	r3, #268435456	@ 0x10000000
200087fe:	d1ec      	bne.n	200087da <_Z11DispInfoScrv+0x8e>
20008800:	4c3c      	ldr	r4, [pc, #240]	@ (200088f4 <_Z11DispInfoScrv+0x1a8>)
20008802:	f103 4370 	add.w	r3, r3, #4026531840	@ 0xf0000000
20008806:	4a37      	ldr	r2, [pc, #220]	@ (200088e4 <_Z11DispInfoScrv+0x198>)
20008808:	6023      	str	r3, [r4, #0]
2000880a:	b900      	cbnz	r0, 2000880e <_Z11DispInfoScrv+0xc2>
2000880c:	6013      	str	r3, [r2, #0]
2000880e:	6813      	ldr	r3, [r2, #0]
20008810:	f44f 6180 	mov.w	r1, #1024	@ 0x400
20008814:	4a38      	ldr	r2, [pc, #224]	@ (200088f8 <_Z11DispInfoScrv+0x1ac>)
20008816:	4830      	ldr	r0, [pc, #192]	@ (200088d8 <_Z11DispInfoScrv+0x18c>)
20008818:	f7ff f85c 	bl	200078d4 <MemPrint>
2000881c:	f64f 73ff 	movw	r3, #65535	@ 0xffff
20008820:	2252      	movs	r2, #82	@ 0x52
20008822:	21a8      	movs	r1, #168	@ 0xa8
20008824:	482c      	ldr	r0, [pc, #176]	@ (200088d8 <_Z11DispInfoScrv+0x18c>)
20008826:	f7fb ff4d 	bl	200046c4 <DrawText>
2000882a:	782b      	ldrb	r3, [r5, #0]
2000882c:	2b00      	cmp	r3, #0
2000882e:	d041      	beq.n	200088b4 <_Z11DispInfoScrv+0x168>
20008830:	f44f 6180 	mov.w	r1, #1024	@ 0x400
20008834:	6823      	ldr	r3, [r4, #0]
20008836:	4a31      	ldr	r2, [pc, #196]	@ (200088fc <_Z11DispInfoScrv+0x1b0>)
20008838:	4827      	ldr	r0, [pc, #156]	@ (200088d8 <_Z11DispInfoScrv+0x18c>)
2000883a:	f7ff f84b 	bl	200078d4 <MemPrint>
2000883e:	f64f 73ff 	movw	r3, #65535	@ 0xffff
20008842:	2262      	movs	r2, #98	@ 0x62
20008844:	21a8      	movs	r1, #168	@ 0xa8
20008846:	4824      	ldr	r0, [pc, #144]	@ (200088d8 <_Z11DispInfoScrv+0x18c>)
20008848:	f7fb ff3c 	bl	200046c4 <DrawText>
2000884c:	f64f 73ff 	movw	r3, #65535	@ 0xffff
20008850:	227a      	movs	r2, #122	@ 0x7a
20008852:	21a8      	movs	r1, #168	@ 0xa8
20008854:	482a      	ldr	r0, [pc, #168]	@ (20008900 <_Z11DispInfoScrv+0x1b4>)
20008856:	f7fb ff35 	bl	200046c4 <DrawText>
2000885a:	f44f 3380 	mov.w	r3, #65536	@ 0x10000
2000885e:	f44f 6180 	mov.w	r1, #1024	@ 0x400
20008862:	4a28      	ldr	r2, [pc, #160]	@ (20008904 <_Z11DispInfoScrv+0x1b8>)
20008864:	481c      	ldr	r0, [pc, #112]	@ (200088d8 <_Z11DispInfoScrv+0x18c>)
20008866:	f7ff f835 	bl	200078d4 <MemPrint>
2000886a:	f64f 73ff 	movw	r3, #65535	@ 0xffff
2000886e:	228a      	movs	r2, #138	@ 0x8a
20008870:	21a8      	movs	r1, #168	@ 0xa8
20008872:	4819      	ldr	r0, [pc, #100]	@ (200088d8 <_Z11DispInfoScrv+0x18c>)
20008874:	f7fb ff26 	bl	200046c4 <DrawText>
20008878:	4b1b      	ldr	r3, [pc, #108]	@ (200088e8 <_Z11DispInfoScrv+0x19c>)
2000887a:	f44f 6180 	mov.w	r1, #1024	@ 0x400
2000887e:	681b      	ldr	r3, [r3, #0]
20008880:	4a21      	ldr	r2, [pc, #132]	@ (20008908 <_Z11DispInfoScrv+0x1bc>)
20008882:	4815      	ldr	r0, [pc, #84]	@ (200088d8 <_Z11DispInfoScrv+0x18c>)
20008884:	f7ff f826 	bl	200078d4 <MemPrint>
20008888:	f64f 73ff 	movw	r3, #65535	@ 0xffff
2000888c:	229a      	movs	r2, #154	@ 0x9a
2000888e:	21a8      	movs	r1, #168	@ 0xa8
20008890:	4811      	ldr	r0, [pc, #68]	@ (200088d8 <_Z11DispInfoScrv+0x18c>)
20008892:	f7fb ff17 	bl	200046c4 <DrawText>
20008896:	4b12      	ldr	r3, [pc, #72]	@ (200088e0 <_Z11DispInfoScrv+0x194>)
20008898:	f44f 6180 	mov.w	r1, #1024	@ 0x400
2000889c:	681b      	ldr	r3, [r3, #0]
2000889e:	4a1b      	ldr	r2, [pc, #108]	@ (2000890c <_Z11DispInfoScrv+0x1c0>)
200088a0:	480d      	ldr	r0, [pc, #52]	@ (200088d8 <_Z11DispInfoScrv+0x18c>)
200088a2:	f7ff f817 	bl	200078d4 <MemPrint>
200088a6:	f64f 73ff 	movw	r3, #65535	@ 0xffff
200088aa:	22aa      	movs	r2, #170	@ 0xaa
200088ac:	21a8      	movs	r1, #168	@ 0xa8
200088ae:	480a      	ldr	r0, [pc, #40]	@ (200088d8 <_Z11DispInfoScrv+0x18c>)
200088b0:	f7fb ff08 	bl	200046c4 <DrawText>
200088b4:	b003      	add	sp, #12
200088b6:	e8bd 4030 	ldmia.w	sp!, {r4, r5, lr}
200088ba:	f7ff b9af 	b.w	20007c1c <DispUpdate>
200088be:	bf00      	nop
200088c0:	20009639 	.word	0x20009639
200088c4:	2000964d 	.word	0x2000964d
200088c8:	20009661 	.word	0x20009661
200088cc:	20009675 	.word	0x20009675
200088d0:	20009686 	.word	0x20009686
200088d4:	2000968f 	.word	0x2000968f
200088d8:	20032532 	.word	0x20032532
200088dc:	103ff000 	.word	0x103ff000
200088e0:	2000ab04 	.word	0x2000ab04
200088e4:	2003170c 	.word	0x2003170c
200088e8:	2000ab08 	.word	0x2000ab08
200088ec:	200323d6 	.word	0x200323d6
200088f0:	200096a2 	.word	0x200096a2
200088f4:	20031710 	.word	0x20031710
200088f8:	200096ad 	.word	0x200096ad
200088fc:	200096b9 	.word	0x200096b9
20008900:	200096c5 	.word	0x200096c5
20008904:	200096d8 	.word	0x200096d8
20008908:	200096e6 	.word	0x200096e6
2000890c:	200096f4 	.word	0x200096f4

20008910 <_Z10DispBigErrPKc>:
20008910:	b513      	push	{r0, r1, r4, lr}
20008912:	4604      	mov	r4, r0
20008914:	f7fb fc7c 	bl	20004210 <DrawClear>
20008918:	4620      	mov	r0, r4
2000891a:	f7fd fd5b 	bl	200063d4 <StrLen>
2000891e:	f44f 4378 	mov.w	r3, #63488	@ 0xf800
20008922:	f1c0 0114 	rsb	r1, r0, #20
20008926:	2268      	movs	r2, #104	@ 0x68
20008928:	4620      	mov	r0, r4
2000892a:	00c9      	lsls	r1, r1, #3
2000892c:	9300      	str	r3, [sp, #0]
2000892e:	f64f 73e0 	movw	r3, #65504	@ 0xffe0
20008932:	f7fb ff17 	bl	20004764 <DrawTextBg2>
20008936:	f7ff f971 	bl	20007c1c <DispUpdate>
2000893a:	f7f8 f921 	bl	20000b80 <KeyFlush>
2000893e:	f7f8 f919 	bl	20000b74 <KeyGet>
20008942:	2800      	cmp	r0, #0
20008944:	d0fb      	beq.n	2000893e <_Z10DispBigErrPKc+0x2e>
20008946:	f7ff fb83 	bl	20008050 <_Z13FrameFileListv>
2000894a:	f7ff fc79 	bl	20008240 <_Z12DispFileListv>
2000894e:	b002      	add	sp, #8
20008950:	e8bd 4010 	ldmia.w	sp!, {r4, lr}
20008954:	f7ff befa 	b.w	2000874c <_Z11DispInfoScrv>

20008958 <_Z9SaveFlashh>:
20008958:	e92d 47f0 	stmdb	sp!, {r4, r5, r6, r7, r8, r9, sl, lr}
2000895c:	b090      	sub	sp, #64	@ 0x40
2000895e:	b9c0      	cbnz	r0, 20008992 <_Z9SaveFlashh+0x3a>
20008960:	4b5e      	ldr	r3, [pc, #376]	@ (20008adc <_Z9SaveFlashh+0x184>)
20008962:	681f      	ldr	r7, [r3, #0]
20008964:	2401      	movs	r4, #1
20008966:	4623      	mov	r3, r4
20008968:	2114      	movs	r1, #20
2000896a:	4a5d      	ldr	r2, [pc, #372]	@ (20008ae0 <_Z9SaveFlashh+0x188>)
2000896c:	4668      	mov	r0, sp
2000896e:	f7fe ffb1 	bl	200078d4 <MemPrint>
20008972:	4668      	mov	r0, sp
20008974:	f7fd fc1a 	bl	200061ac <FileExist>
20008978:	4605      	mov	r5, r0
2000897a:	2800      	cmp	r0, #0
2000897c:	d05d      	beq.n	20008a3a <_Z9SaveFlashh+0xe2>
2000897e:	3401      	adds	r4, #1
20008980:	f5b4 7f7a 	cmp.w	r4, #1000	@ 0x3e8
20008984:	d1ef      	bne.n	20008966 <_Z9SaveFlashh+0xe>
20008986:	4857      	ldr	r0, [pc, #348]	@ (20008ae4 <_Z9SaveFlashh+0x18c>)
20008988:	f7ff ffc2 	bl	20008910 <_Z10DispBigErrPKc>
2000898c:	b010      	add	sp, #64	@ 0x40
2000898e:	e8bd 87f0 	ldmia.w	sp!, {r4, r5, r6, r7, r8, r9, sl, pc}
20008992:	f44f 0780 	mov.w	r7, #4194304	@ 0x400000
20008996:	e7e5      	b.n	20008964 <_Z9SaveFlashh+0xc>
20008998:	4630      	mov	r0, r6
2000899a:	f7ff fe4d 	bl	20008638 <_Z8Progressiiit>
2000899e:	f44f 7200 	mov.w	r2, #512	@ 0x200
200089a2:	2100      	movs	r1, #0
200089a4:	4850      	ldr	r0, [pc, #320]	@ (20008ae8 <_Z9SaveFlashh+0x190>)
200089a6:	f000 fc81 	bl	200092ac <memset>
200089aa:	2255      	movs	r2, #85	@ 0x55
200089ac:	7022      	strb	r2, [r4, #0]
200089ae:	2246      	movs	r2, #70	@ 0x46
200089b0:	7062      	strb	r2, [r4, #1]
200089b2:	2232      	movs	r2, #50	@ 0x32
200089b4:	70a2      	strb	r2, [r4, #2]
200089b6:	2257      	movs	r2, #87	@ 0x57
200089b8:	7122      	strb	r2, [r4, #4]
200089ba:	2251      	movs	r2, #81	@ 0x51
200089bc:	2300      	movs	r3, #0
200089be:	7162      	strb	r2, [r4, #5]
200089c0:	225d      	movs	r2, #93	@ 0x5d
200089c2:	7223      	strb	r3, [r4, #8]
200089c4:	72a3      	strb	r3, [r4, #10]
200089c6:	72e3      	strb	r3, [r4, #11]
200089c8:	2356      	movs	r3, #86	@ 0x56
200089ca:	71a2      	strb	r2, [r4, #6]
200089cc:	f06f 0261 	mvn.w	r2, #97	@ 0x61
200089d0:	7723      	strb	r3, [r4, #28]
200089d2:	f04f 33ff 	mov.w	r3, #4294967295
200089d6:	71e2      	strb	r2, [r4, #7]
200089d8:	2220      	movs	r2, #32
200089da:	7763      	strb	r3, [r4, #29]
200089dc:	f06f 0374 	mvn.w	r3, #116	@ 0x74
200089e0:	7262      	strb	r2, [r4, #9]
200089e2:	1bba      	subs	r2, r7, r6
200089e4:	f5b2 7f80 	cmp.w	r2, #256	@ 0x100
200089e8:	bfa8      	it	ge
200089ea:	f44f 7280 	movge.w	r2, #256	@ 0x100
200089ee:	f04f 0a0a 	mov.w	sl, #10
200089f2:	77a3      	strb	r3, [r4, #30]
200089f4:	f06f 031b 	mvn.w	r3, #27
200089f8:	4649      	mov	r1, r9
200089fa:	483c      	ldr	r0, [pc, #240]	@ (20008aec <_Z9SaveFlashh+0x194>)
200089fc:	6122      	str	r2, [r4, #16]
200089fe:	6165      	str	r5, [r4, #20]
20008a00:	77e3      	strb	r3, [r4, #31]
20008a02:	f884 a003 	strb.w	sl, [r4, #3]
20008a06:	f8c4 900c 	str.w	r9, [r4, #12]
20008a0a:	f8c4 8018 	str.w	r8, [r4, #24]
20008a0e:	f000 fc9b 	bl	20009348 <memcpy>
20008a12:	2330      	movs	r3, #48	@ 0x30
20008a14:	f884 31fc 	strb.w	r3, [r4, #508]	@ 0x1fc
20008a18:	236f      	movs	r3, #111	@ 0x6f
20008a1a:	f884 31fd 	strb.w	r3, [r4, #509]	@ 0x1fd
20008a1e:	f06f 034e 	mvn.w	r3, #78	@ 0x4e
20008a22:	f44f 7200 	mov.w	r2, #512	@ 0x200
20008a26:	4930      	ldr	r1, [pc, #192]	@ (20008ae8 <_Z9SaveFlashh+0x190>)
20008a28:	a805      	add	r0, sp, #20
20008a2a:	f884 31fe 	strb.w	r3, [r4, #510]	@ 0x1fe
20008a2e:	f884 a1ff 	strb.w	sl, [r4, #511]	@ 0x1ff
20008a32:	3501      	adds	r5, #1
20008a34:	f7fd fbf6 	bl	20006224 <FileWrite>
20008a38:	e00d      	b.n	20008a56 <_Z9SaveFlashh+0xfe>
20008a3a:	4669      	mov	r1, sp
20008a3c:	a805      	add	r0, sp, #20
20008a3e:	f7fd fb19 	bl	20006074 <FileCreate>
20008a42:	2800      	cmp	r0, #0
20008a44:	d09f      	beq.n	20008986 <_Z9SaveFlashh+0x2e>
20008a46:	482a      	ldr	r0, [pc, #168]	@ (20008af0 <_Z9SaveFlashh+0x198>)
20008a48:	f7ff fe23 	bl	20008692 <_Z11DispBigInfoPKc>
20008a4c:	f107 08ff 	add.w	r8, r7, #255	@ 0xff
20008a50:	4c25      	ldr	r4, [pc, #148]	@ (20008ae8 <_Z9SaveFlashh+0x190>)
20008a52:	ea4f 2828 	mov.w	r8, r8, asr #8
20008a56:	022e      	lsls	r6, r5, #8
20008a58:	42be      	cmp	r6, r7
20008a5a:	f44f 63fc 	mov.w	r3, #2016	@ 0x7e0
20008a5e:	f04f 027a 	mov.w	r2, #122	@ 0x7a
20008a62:	4639      	mov	r1, r7
20008a64:	f106 5980 	add.w	r9, r6, #268435456	@ 0x10000000
20008a68:	db96      	blt.n	20008998 <_Z9SaveFlashh+0x40>
20008a6a:	4638      	mov	r0, r7
20008a6c:	f7ff fde4 	bl	20008638 <_Z8Progressiiit>
20008a70:	2032      	movs	r0, #50	@ 0x32
20008a72:	f7f9 f937 	bl	20001ce4 <WaitMs>
20008a76:	a805      	add	r0, sp, #20
20008a78:	f7fd f99a 	bl	20005db0 <FileClose>
20008a7c:	466b      	mov	r3, sp
20008a7e:	f44f 6180 	mov.w	r1, #1024	@ 0x400
20008a82:	4a1c      	ldr	r2, [pc, #112]	@ (20008af4 <_Z9SaveFlashh+0x19c>)
20008a84:	4818      	ldr	r0, [pc, #96]	@ (20008ae8 <_Z9SaveFlashh+0x190>)
20008a86:	f7fe ff25 	bl	200078d4 <MemPrint>
20008a8a:	4817      	ldr	r0, [pc, #92]	@ (20008ae8 <_Z9SaveFlashh+0x190>)
20008a8c:	f7ff fe01 	bl	20008692 <_Z11DispBigInfoPKc>
20008a90:	f7f8 f876 	bl	20000b80 <KeyFlush>
20008a94:	f7f8 f86e 	bl	20000b74 <KeyGet>
20008a98:	2800      	cmp	r0, #0
20008a9a:	d0fb      	beq.n	20008a94 <_Z9SaveFlashh+0x13c>
20008a9c:	f10d 0001 	add.w	r0, sp, #1
20008aa0:	f7fd fc98 	bl	200063d4 <StrLen>
20008aa4:	4b14      	ldr	r3, [pc, #80]	@ (20008af8 <_Z9SaveFlashh+0x1a0>)
20008aa6:	1f02      	subs	r2, r0, #4
20008aa8:	f10d 0101 	add.w	r1, sp, #1
20008aac:	4813      	ldr	r0, [pc, #76]	@ (20008afc <_Z9SaveFlashh+0x1a4>)
20008aae:	601a      	str	r2, [r3, #0]
20008ab0:	f000 fc4a 	bl	20009348 <memcpy>
20008ab4:	2200      	movs	r2, #0
20008ab6:	4b12      	ldr	r3, [pc, #72]	@ (20008b00 <_Z9SaveFlashh+0x1a8>)
20008ab8:	701a      	strb	r2, [r3, #0]
20008aba:	2201      	movs	r2, #1
20008abc:	4b11      	ldr	r3, [pc, #68]	@ (20008b04 <_Z9SaveFlashh+0x1ac>)
20008abe:	701a      	strb	r2, [r3, #0]
20008ac0:	4b11      	ldr	r3, [pc, #68]	@ (20008b08 <_Z9SaveFlashh+0x1b0>)
20008ac2:	4a12      	ldr	r2, [pc, #72]	@ (20008b0c <_Z9SaveFlashh+0x1b4>)
20008ac4:	6a9b      	ldr	r3, [r3, #40]	@ 0x28
20008ac6:	f5a3 13f4 	sub.w	r3, r3, #1998848	@ 0x1e8000
20008aca:	f5a3 6390 	sub.w	r3, r3, #1152	@ 0x480
20008ace:	6013      	str	r3, [r2, #0]
20008ad0:	f7ff fabe 	bl	20008050 <_Z13FrameFileListv>
20008ad4:	f7ff fe3a 	bl	2000874c <_Z11DispInfoScrv>
20008ad8:	e758      	b.n	2000898c <_Z9SaveFlashh+0x34>
20008ada:	bf00      	nop
20008adc:	2003170c 	.word	0x2003170c
20008ae0:	20009703 	.word	0x20009703
20008ae4:	20009710 	.word	0x20009710
20008ae8:	20032532 	.word	0x20032532
20008aec:	20032552 	.word	0x20032552
20008af0:	20009723 	.word	0x20009723
20008af4:	2000972d 	.word	0x2000972d
20008af8:	2003165c 	.word	0x2003165c
20008afc:	20032435 	.word	0x20032435
20008b00:	2003243d 	.word	0x2003243d
20008b04:	20032530 	.word	0x20032530
20008b08:	400b0000 	.word	0x400b0000
20008b0c:	20031658 	.word	0x20031658

20008b10 <_Z9LoadFlashv>:
20008b10:	4b45      	ldr	r3, [pc, #276]	@ (20008c28 <_Z9LoadFlashv+0x118>)
20008b12:	e92d 47f0 	stmdb	sp!, {r4, r5, r6, r7, r8, r9, sl, lr}
20008b16:	681c      	ldr	r4, [r3, #0]
20008b18:	4e44      	ldr	r6, [pc, #272]	@ (20008c2c <_Z9LoadFlashv+0x11c>)
20008b1a:	0124      	lsls	r4, r4, #4
20008b1c:	1933      	adds	r3, r6, r4
20008b1e:	795f      	ldrb	r7, [r3, #5]
20008b20:	4d43      	ldr	r5, [pc, #268]	@ (20008c30 <_Z9LoadFlashv+0x120>)
20008b22:	f104 0806 	add.w	r8, r4, #6
20008b26:	44b0      	add	r8, r6
20008b28:	b08c      	sub	sp, #48	@ 0x30
20008b2a:	463a      	mov	r2, r7
20008b2c:	4641      	mov	r1, r8
20008b2e:	4628      	mov	r0, r5
20008b30:	f000 fc0a 	bl	20009348 <memcpy>
20008b34:	4b3f      	ldr	r3, [pc, #252]	@ (20008c34 <_Z9LoadFlashv+0x124>)
20008b36:	197a      	adds	r2, r7, r5
20008b38:	6819      	ldr	r1, [r3, #0]
20008b3a:	791b      	ldrb	r3, [r3, #4]
20008b3c:	51e9      	str	r1, [r5, r7]
20008b3e:	483e      	ldr	r0, [pc, #248]	@ (20008c38 <_Z9LoadFlashv+0x128>)
20008b40:	7113      	strb	r3, [r2, #4]
20008b42:	f7ff fda6 	bl	20008692 <_Z11DispBigInfoPKc>
20008b46:	483d      	ldr	r0, [pc, #244]	@ (20008c3c <_Z9LoadFlashv+0x12c>)
20008b48:	f7fd fae4 	bl	20006114 <SetDir>
20008b4c:	4629      	mov	r1, r5
20008b4e:	a801      	add	r0, sp, #4
20008b50:	f7fd fab8 	bl	200060c4 <FileOpen>
20008b54:	b928      	cbnz	r0, 20008b62 <_Z9LoadFlashv+0x52>
20008b56:	483a      	ldr	r0, [pc, #232]	@ (20008c40 <_Z9LoadFlashv+0x130>)
20008b58:	f7ff feda 	bl	20008910 <_Z10DispBigErrPKc>
20008b5c:	b00c      	add	sp, #48	@ 0x30
20008b5e:	e8bd 87f0 	ldmia.w	sp!, {r4, r5, r6, r7, r8, r9, sl, pc}
20008b62:	5934      	ldr	r4, [r6, r4]
20008b64:	2220      	movs	r2, #32
20008b66:	0a64      	lsrs	r4, r4, #9
20008b68:	f5b4 4f80 	cmp.w	r4, #16384	@ 0x4000
20008b6c:	4629      	mov	r1, r5
20008b6e:	a801      	add	r0, sp, #4
20008b70:	bf28      	it	cs
20008b72:	f44f 4480 	movcs.w	r4, #16384	@ 0x4000
20008b76:	f7fd f829 	bl	20005bcc <FileRead>
20008b7a:	68eb      	ldr	r3, [r5, #12]
20008b7c:	f1b3 5f80 	cmp.w	r3, #268435456	@ 0x10000000
20008b80:	d001      	beq.n	20008b86 <_Z9LoadFlashv+0x76>
20008b82:	4830      	ldr	r0, [pc, #192]	@ (20008c44 <_Z9LoadFlashv+0x134>)
20008b84:	e7e8      	b.n	20008b58 <_Z9LoadFlashv+0x48>
20008b86:	f643 70f0 	movw	r0, #16368	@ 0x3ff0
20008b8a:	f04f 0900 	mov.w	r9, #0
20008b8e:	4284      	cmp	r4, r0
20008b90:	bfd4      	ite	le
20008b92:	2000      	movle	r0, #0
20008b94:	2001      	movgt	r0, #1
20008b96:	f7ff fd93 	bl	200086c0 <_Z8ClearApph>
20008b9a:	4827      	ldr	r0, [pc, #156]	@ (20008c38 <_Z9LoadFlashv+0x128>)
20008b9c:	f7ff fd79 	bl	20008692 <_Z11DispBigInfoPKc>
20008ba0:	f04f 0a20 	mov.w	sl, #32
20008ba4:	464f      	mov	r7, r9
20008ba6:	42a7      	cmp	r7, r4
20008ba8:	db19      	blt.n	20008bde <_Z9LoadFlashv+0xce>
20008baa:	a801      	add	r0, sp, #4
20008bac:	f7fd f900 	bl	20005db0 <FileClose>
20008bb0:	4643      	mov	r3, r8
20008bb2:	f44f 6180 	mov.w	r1, #1024	@ 0x400
20008bb6:	4a24      	ldr	r2, [pc, #144]	@ (20008c48 <_Z9LoadFlashv+0x138>)
20008bb8:	481d      	ldr	r0, [pc, #116]	@ (20008c30 <_Z9LoadFlashv+0x120>)
20008bba:	f7fe fe8b 	bl	200078d4 <MemPrint>
20008bbe:	481c      	ldr	r0, [pc, #112]	@ (20008c30 <_Z9LoadFlashv+0x120>)
20008bc0:	f7ff fd67 	bl	20008692 <_Z11DispBigInfoPKc>
20008bc4:	f7f7 ffdc 	bl	20000b80 <KeyFlush>
20008bc8:	f7f7 ffd4 	bl	20000b74 <KeyGet>
20008bcc:	2800      	cmp	r0, #0
20008bce:	d0fb      	beq.n	20008bc8 <_Z9LoadFlashv+0xb8>
20008bd0:	f7ff fa3e 	bl	20008050 <_Z13FrameFileListv>
20008bd4:	f7ff fb34 	bl	20008240 <_Z12DispFileListv>
20008bd8:	f7ff fdb8 	bl	2000874c <_Z11DispInfoScrv>
20008bdc:	e7be      	b.n	20008b5c <_Z9LoadFlashv+0x4c>
20008bde:	2600      	movs	r6, #0
20008be0:	4651      	mov	r1, sl
20008be2:	a801      	add	r0, sp, #4
20008be4:	f7fc fd66 	bl	200056b4 <FileSeek>
20008be8:	19a9      	adds	r1, r5, r6
20008bea:	f44f 7280 	mov.w	r2, #256	@ 0x100
20008bee:	a801      	add	r0, sp, #4
20008bf0:	f506 7680 	add.w	r6, r6, #256	@ 0x100
20008bf4:	f7fc ffea 	bl	20005bcc <FileRead>
20008bf8:	f5b6 6f80 	cmp.w	r6, #1024	@ 0x400
20008bfc:	f107 0701 	add.w	r7, r7, #1
20008c00:	f50a 7a00 	add.w	sl, sl, #512	@ 0x200
20008c04:	d001      	beq.n	20008c0a <_Z9LoadFlashv+0xfa>
20008c06:	42bc      	cmp	r4, r7
20008c08:	d1ea      	bne.n	20008be0 <_Z9LoadFlashv+0xd0>
20008c0a:	f44f 63fc 	mov.w	r3, #2016	@ 0x7e0
20008c0e:	227a      	movs	r2, #122	@ 0x7a
20008c10:	4621      	mov	r1, r4
20008c12:	4638      	mov	r0, r7
20008c14:	f7ff fd10 	bl	20008638 <_Z8Progressiiit>
20008c18:	4648      	mov	r0, r9
20008c1a:	4632      	mov	r2, r6
20008c1c:	4629      	mov	r1, r5
20008c1e:	f7f7 fcc9 	bl	200005b4 <FlashProgram>
20008c22:	44b1      	add	r9, r6
20008c24:	e7bf      	b.n	20008ba6 <_Z9LoadFlashv+0x96>
20008c26:	bf00      	nop
20008c28:	2000adf4 	.word	0x2000adf4
20008c2c:	2000adf8 	.word	0x2000adf8
20008c30:	20032532 	.word	0x20032532
20008c34:	2000970b 	.word	0x2000970b
20008c38:	20009736 	.word	0x20009736
20008c3c:	2003243f 	.word	0x2003243f
20008c40:	20009741 	.word	0x20009741
20008c44:	20009752 	.word	0x20009752
20008c48:	20009764 	.word	0x20009764

20008c4c <main>:
20008c4c:	e92d 4ff7 	stmdb	sp!, {r0, r1, r2, r4, r5, r6, r7, r8, r9, sl, fp, lr}
20008c50:	2400      	movs	r4, #0
20008c52:	f8df a26c 	ldr.w	sl, [pc, #620]	@ 20008ec0 <main+0x274>
20008c56:	2004      	movs	r0, #4
20008c58:	f7f7 fc54 	bl	20000504 <QMI_InitFlash>
20008c5c:	f8ca 4000 	str.w	r4, [sl]
20008c60:	f7ff fc70 	bl	20008544 <_Z9ResetRootv>
20008c64:	f7ff fd72 	bl	2000874c <_Z11DispInfoScrv>
20008c68:	f7ff f9f2 	bl	20008050 <_Z13FrameFileListv>
20008c6c:	4887      	ldr	r0, [pc, #540]	@ (20008e8c <main+0x240>)
20008c6e:	f7ff fcc1 	bl	200085f4 <_Z8DispInfoPKc>
20008c72:	4b87      	ldr	r3, [pc, #540]	@ (20008e90 <main+0x244>)
20008c74:	f8df 824c 	ldr.w	r8, [pc, #588]	@ 20008ec4 <main+0x278>
20008c78:	6a9b      	ldr	r3, [r3, #40]	@ 0x28
20008c7a:	f8df 924c 	ldr.w	r9, [pc, #588]	@ 20008ec8 <main+0x27c>
20008c7e:	f5a3 13f4 	sub.w	r3, r3, #1998848	@ 0x1e8000
20008c82:	f5a3 6390 	sub.w	r3, r3, #1152	@ 0x480
20008c86:	f8c8 3000 	str.w	r3, [r8]
20008c8a:	2301      	movs	r3, #1
20008c8c:	f889 3000 	strb.w	r3, [r9]
20008c90:	f7fc fe94 	bl	200059bc <DiskMount>
20008c94:	b160      	cbz	r0, 20008cb0 <main+0x64>
20008c96:	4b7f      	ldr	r3, [pc, #508]	@ (20008e94 <main+0x248>)
20008c98:	487f      	ldr	r0, [pc, #508]	@ (20008e98 <main+0x24c>)
20008c9a:	601c      	str	r4, [r3, #0]
20008c9c:	f7ff fcaa 	bl	200085f4 <_Z8DispInfoPKc>
20008ca0:	f889 4000 	strb.w	r4, [r9]
20008ca4:	f7ff fb5a 	bl	2000835c <_Z12LoadFileListv>
20008ca8:	f7ff fc5a 	bl	20008560 <_Z11SetLastNamev>
20008cac:	f7ff fac8 	bl	20008240 <_Z12DispFileListv>
20008cb0:	f7f7 ff66 	bl	20000b80 <KeyFlush>
20008cb4:	f8df b214 	ldr.w	fp, [pc, #532]	@ 20008ecc <main+0x280>
20008cb8:	f7fe ffb0 	bl	20007c1c <DispUpdate>
20008cbc:	4b74      	ldr	r3, [pc, #464]	@ (20008e90 <main+0x244>)
20008cbe:	4977      	ldr	r1, [pc, #476]	@ (20008e9c <main+0x250>)
20008cc0:	6a9a      	ldr	r2, [r3, #40]	@ 0x28
20008cc2:	f8d8 3000 	ldr.w	r3, [r8]
20008cc6:	1ad3      	subs	r3, r2, r3
20008cc8:	428b      	cmp	r3, r1
20008cca:	dd0c      	ble.n	20008ce6 <main+0x9a>
20008ccc:	f8c8 2000 	str.w	r2, [r8]
20008cd0:	f7fc fe74 	bl	200059bc <DiskMount>
20008cd4:	f899 3000 	ldrb.w	r3, [r9]
20008cd8:	b9b0      	cbnz	r0, 20008d08 <main+0xbc>
20008cda:	b923      	cbnz	r3, 20008ce6 <main+0x9a>
20008cdc:	f7ff fc32 	bl	20008544 <_Z9ResetRootv>
20008ce0:	486a      	ldr	r0, [pc, #424]	@ (20008e8c <main+0x240>)
20008ce2:	f7ff fc87 	bl	200085f4 <_Z8DispInfoPKc>
20008ce6:	f7f7 ff45 	bl	20000b74 <KeyGet>
20008cea:	2800      	cmp	r0, #0
20008cec:	d0e4      	beq.n	20008cb8 <main+0x6c>
20008cee:	3801      	subs	r0, #1
20008cf0:	2807      	cmp	r0, #7
20008cf2:	d8f8      	bhi.n	20008ce6 <main+0x9a>
20008cf4:	e8df f010 	tbh	[pc, r0, lsl #1]
20008cf8:	004f0045 	.word	0x004f0045
20008cfc:	00170029 	.word	0x00170029
20008d00:	00c700c0 	.word	0x00c700c0
20008d04:	00b70063 	.word	0x00b70063
20008d08:	2b00      	cmp	r3, #0
20008d0a:	d0ec      	beq.n	20008ce6 <main+0x9a>
20008d0c:	4862      	ldr	r0, [pc, #392]	@ (20008e98 <main+0x24c>)
20008d0e:	f7ff fc71 	bl	200085f4 <_Z8DispInfoPKc>
20008d12:	2300      	movs	r3, #0
20008d14:	f889 3000 	strb.w	r3, [r9]
20008d18:	f7ff fb20 	bl	2000835c <_Z12LoadFileListv>
20008d1c:	f7ff fc20 	bl	20008560 <_Z11SetLastNamev>
20008d20:	f7ff fa8e 	bl	20008240 <_Z12DispFileListv>
20008d24:	e7df      	b.n	20008ce6 <main+0x9a>
20008d26:	4a5e      	ldr	r2, [pc, #376]	@ (20008ea0 <main+0x254>)
20008d28:	495e      	ldr	r1, [pc, #376]	@ (20008ea4 <main+0x258>)
20008d2a:	6812      	ldr	r2, [r2, #0]
20008d2c:	680b      	ldr	r3, [r1, #0]
20008d2e:	3a01      	subs	r2, #1
20008d30:	429a      	cmp	r2, r3
20008d32:	ddd8      	ble.n	20008ce6 <main+0x9a>
20008d34:	1c5a      	adds	r2, r3, #1
20008d36:	600a      	str	r2, [r1, #0]
20008d38:	4a56      	ldr	r2, [pc, #344]	@ (20008e94 <main+0x248>)
20008d3a:	3b0b      	subs	r3, #11
20008d3c:	6811      	ldr	r1, [r2, #0]
20008d3e:	ea23 73e3 	bic.w	r3, r3, r3, asr #31
20008d42:	4299      	cmp	r1, r3
20008d44:	daec      	bge.n	20008d20 <main+0xd4>
20008d46:	6013      	str	r3, [r2, #0]
20008d48:	e7ea      	b.n	20008d20 <main+0xd4>
20008d4a:	4b55      	ldr	r3, [pc, #340]	@ (20008ea0 <main+0x254>)
20008d4c:	4855      	ldr	r0, [pc, #340]	@ (20008ea4 <main+0x258>)
20008d4e:	681a      	ldr	r2, [r3, #0]
20008d50:	6801      	ldr	r1, [r0, #0]
20008d52:	1e54      	subs	r4, r2, #1
20008d54:	428c      	cmp	r4, r1
20008d56:	ddc6      	ble.n	20008ce6 <main+0x9a>
20008d58:	4d4e      	ldr	r5, [pc, #312]	@ (20008e94 <main+0x248>)
20008d5a:	3a0d      	subs	r2, #13
20008d5c:	682b      	ldr	r3, [r5, #0]
20008d5e:	ea22 72e2 	bic.w	r2, r2, r2, asr #31
20008d62:	4293      	cmp	r3, r2
20008d64:	da0b      	bge.n	20008d7e <main+0x132>
20008d66:	330c      	adds	r3, #12
20008d68:	4293      	cmp	r3, r2
20008d6a:	bfc9      	itett	gt
20008d6c:	1a9b      	subgt	r3, r3, r2
20008d6e:	240c      	movle	r4, #12
20008d70:	f1c3 040c 	rsbgt	r4, r3, #12
20008d74:	4613      	movgt	r3, r2
20008d76:	4421      	add	r1, r4
20008d78:	602b      	str	r3, [r5, #0]
20008d7a:	6001      	str	r1, [r0, #0]
20008d7c:	e7d0      	b.n	20008d20 <main+0xd4>
20008d7e:	6004      	str	r4, [r0, #0]
20008d80:	e7ce      	b.n	20008d20 <main+0xd4>
20008d82:	4a48      	ldr	r2, [pc, #288]	@ (20008ea4 <main+0x258>)
20008d84:	6813      	ldr	r3, [r2, #0]
20008d86:	2b00      	cmp	r3, #0
20008d88:	ddad      	ble.n	20008ce6 <main+0x9a>
20008d8a:	3b01      	subs	r3, #1
20008d8c:	6013      	str	r3, [r2, #0]
20008d8e:	4a41      	ldr	r2, [pc, #260]	@ (20008e94 <main+0x248>)
20008d90:	6811      	ldr	r1, [r2, #0]
20008d92:	428b      	cmp	r3, r1
20008d94:	e7d6      	b.n	20008d44 <main+0xf8>
20008d96:	4943      	ldr	r1, [pc, #268]	@ (20008ea4 <main+0x258>)
20008d98:	680a      	ldr	r2, [r1, #0]
20008d9a:	2a00      	cmp	r2, #0
20008d9c:	dda3      	ble.n	20008ce6 <main+0x9a>
20008d9e:	483d      	ldr	r0, [pc, #244]	@ (20008e94 <main+0x248>)
20008da0:	6803      	ldr	r3, [r0, #0]
20008da2:	2b00      	cmp	r3, #0
20008da4:	dd08      	ble.n	20008db8 <main+0x16c>
20008da6:	f1b3 040c 	subs.w	r4, r3, #12
20008daa:	bf54      	ite	pl
20008dac:	230c      	movpl	r3, #12
20008dae:	2400      	movmi	r4, #0
20008db0:	1ad2      	subs	r2, r2, r3
20008db2:	6004      	str	r4, [r0, #0]
20008db4:	600a      	str	r2, [r1, #0]
20008db6:	e7b3      	b.n	20008d20 <main+0xd4>
20008db8:	2300      	movs	r3, #0
20008dba:	600b      	str	r3, [r1, #0]
20008dbc:	e7b0      	b.n	20008d20 <main+0xd4>
20008dbe:	4b39      	ldr	r3, [pc, #228]	@ (20008ea4 <main+0x258>)
20008dc0:	4a37      	ldr	r2, [pc, #220]	@ (20008ea0 <main+0x254>)
20008dc2:	681b      	ldr	r3, [r3, #0]
20008dc4:	6812      	ldr	r2, [r2, #0]
20008dc6:	4293      	cmp	r3, r2
20008dc8:	d28d      	bcs.n	20008ce6 <main+0x9a>
20008dca:	0119      	lsls	r1, r3, #4
20008dcc:	eb0b 1303 	add.w	r3, fp, r3, lsl #4
20008dd0:	791a      	ldrb	r2, [r3, #4]
20008dd2:	06d2      	lsls	r2, r2, #27
20008dd4:	d544      	bpl.n	20008e60 <main+0x214>
20008dd6:	685a      	ldr	r2, [r3, #4]
20008dd8:	4833      	ldr	r0, [pc, #204]	@ (20008ea8 <main+0x25c>)
20008dda:	4e34      	ldr	r6, [pc, #208]	@ (20008eac <main+0x260>)
20008ddc:	f022 02ff 	bic.w	r2, r2, #255	@ 0xff
20008de0:	4282      	cmp	r2, r0
20008de2:	6834      	ldr	r4, [r6, #0]
20008de4:	4d32      	ldr	r5, [pc, #200]	@ (20008eb0 <main+0x264>)
20008de6:	d129      	bne.n	20008e3c <main+0x1f0>
20008de8:	4627      	mov	r7, r4
20008dea:	2200      	movs	r2, #0
20008dec:	463b      	mov	r3, r7
20008dee:	3f01      	subs	r7, #1
20008df0:	5de9      	ldrb	r1, [r5, r7]
20008df2:	292f      	cmp	r1, #47	@ 0x2f
20008df4:	d120      	bne.n	20008e38 <main+0x1ec>
20008df6:	b102      	cbz	r2, 20008dfa <main+0x1ae>
20008df8:	6033      	str	r3, [r6, #0]
20008dfa:	1ae2      	subs	r2, r4, r3
20008dfc:	18e9      	adds	r1, r5, r3
20008dfe:	482d      	ldr	r0, [pc, #180]	@ (20008eb4 <main+0x268>)
20008e00:	f8ca 2000 	str.w	r2, [sl]
20008e04:	9301      	str	r3, [sp, #4]
20008e06:	f000 fa9f 	bl	20009348 <memcpy>
20008e0a:	2110      	movs	r1, #16
20008e0c:	9b01      	ldr	r3, [sp, #4]
20008e0e:	4a2a      	ldr	r2, [pc, #168]	@ (20008eb8 <main+0x26c>)
20008e10:	2b01      	cmp	r3, #1
20008e12:	7011      	strb	r1, [r2, #0]
20008e14:	dd00      	ble.n	20008e18 <main+0x1cc>
20008e16:	6037      	str	r7, [r6, #0]
20008e18:	2300      	movs	r3, #0
20008e1a:	6832      	ldr	r2, [r6, #0]
20008e1c:	54ab      	strb	r3, [r5, r2]
20008e1e:	4a1d      	ldr	r2, [pc, #116]	@ (20008e94 <main+0x248>)
20008e20:	6013      	str	r3, [r2, #0]
20008e22:	f7ff fb77 	bl	20008514 <_Z6Reloadv>
20008e26:	4b1a      	ldr	r3, [pc, #104]	@ (20008e90 <main+0x244>)
20008e28:	6a9b      	ldr	r3, [r3, #40]	@ 0x28
20008e2a:	f5a3 13f4 	sub.w	r3, r3, #1998848	@ 0x1e8000
20008e2e:	f5a3 6390 	sub.w	r3, r3, #1152	@ 0x480
20008e32:	f8c8 3000 	str.w	r3, [r8]
20008e36:	e756      	b.n	20008ce6 <main+0x9a>
20008e38:	2201      	movs	r2, #1
20008e3a:	e7d7      	b.n	20008dec <main+0x1a0>
20008e3c:	795f      	ldrb	r7, [r3, #5]
20008e3e:	1c62      	adds	r2, r4, #1
20008e40:	19d3      	adds	r3, r2, r7
20008e42:	2bf0      	cmp	r3, #240	@ 0xf0
20008e44:	dce8      	bgt.n	20008e18 <main+0x1cc>
20008e46:	2c01      	cmp	r4, #1
20008e48:	bf1e      	ittt	ne
20008e4a:	232f      	movne	r3, #47	@ 0x2f
20008e4c:	552b      	strbne	r3, [r5, r4]
20008e4e:	4614      	movne	r4, r2
20008e50:	3106      	adds	r1, #6
20008e52:	463a      	mov	r2, r7
20008e54:	4459      	add	r1, fp
20008e56:	1928      	adds	r0, r5, r4
20008e58:	f000 fa76 	bl	20009348 <memcpy>
20008e5c:	4427      	add	r7, r4
20008e5e:	e7da      	b.n	20008e16 <main+0x1ca>
20008e60:	f7ff fe56 	bl	20008b10 <_Z9LoadFlashv>
20008e64:	e73f      	b.n	20008ce6 <main+0x9a>
20008e66:	4b15      	ldr	r3, [pc, #84]	@ (20008ebc <main+0x270>)
20008e68:	781b      	ldrb	r3, [r3, #0]
20008e6a:	2b00      	cmp	r3, #0
20008e6c:	f43f af3b 	beq.w	20008ce6 <main+0x9a>
20008e70:	2000      	movs	r0, #0
20008e72:	f7ff fd71 	bl	20008958 <_Z9SaveFlashh>
20008e76:	e736      	b.n	20008ce6 <main+0x9a>
20008e78:	4b10      	ldr	r3, [pc, #64]	@ (20008ebc <main+0x270>)
20008e7a:	781b      	ldrb	r3, [r3, #0]
20008e7c:	2b00      	cmp	r3, #0
20008e7e:	f43f af32 	beq.w	20008ce6 <main+0x9a>
20008e82:	2001      	movs	r0, #1
20008e84:	e7f5      	b.n	20008e72 <main+0x226>
20008e86:	f7f8 ff61 	bl	20001d4c <ResetToBootLoader>
20008e8a:	e72c      	b.n	20008ce6 <main+0x9a>
20008e8c:	2000976e 	.word	0x2000976e
20008e90:	400b0000 	.word	0x400b0000
20008e94:	2000be40 	.word	0x2000be40
20008e98:	2000977d 	.word	0x2000977d
20008e9c:	000f4240 	.word	0x000f4240
20008ea0:	2000be3c 	.word	0x2000be3c
20008ea4:	2000adf4 	.word	0x2000adf4
20008ea8:	2e2e0200 	.word	0x2e2e0200
20008eac:	2003167c 	.word	0x2003167c
20008eb0:	2003243f 	.word	0x2003243f
20008eb4:	20032435 	.word	0x20032435
20008eb8:	2003243d 	.word	0x2003243d
20008ebc:	200323fc 	.word	0x200323fc
20008ec0:	2003165c 	.word	0x2003165c
20008ec4:	20031658 	.word	0x20031658
20008ec8:	20032530 	.word	0x20032530
20008ecc:	2000adf8 	.word	0x2000adf8

20008ed0 <__aeabi_uldivmod>:
20008ed0:	b953      	cbnz	r3, 20008ee8 <__aeabi_uldivmod+0x18>
20008ed2:	b94a      	cbnz	r2, 20008ee8 <__aeabi_uldivmod+0x18>
20008ed4:	2900      	cmp	r1, #0
20008ed6:	bf08      	it	eq
20008ed8:	2800      	cmpeq	r0, #0
20008eda:	bf1c      	itt	ne
20008edc:	f04f 31ff 	movne.w	r1, #4294967295
20008ee0:	f04f 30ff 	movne.w	r0, #4294967295
20008ee4:	f000 b9b2 	b.w	2000924c <__aeabi_idiv0>
20008ee8:	f1ad 0c08 	sub.w	ip, sp, #8
20008eec:	e96d ce04 	strd	ip, lr, [sp, #-16]!
20008ef0:	f000 f806 	bl	20008f00 <__udivmoddi4>
20008ef4:	f8dd e004 	ldr.w	lr, [sp, #4]
20008ef8:	e9dd 2302 	ldrd	r2, r3, [sp, #8]
20008efc:	b004      	add	sp, #16
20008efe:	4770      	bx	lr

20008f00 <__udivmoddi4>:
20008f00:	e92d 4ff0 	stmdb	sp!, {r4, r5, r6, r7, r8, r9, sl, fp, lr}
20008f04:	468c      	mov	ip, r1
20008f06:	9e09      	ldr	r6, [sp, #36]	@ 0x24
20008f08:	4604      	mov	r4, r0
20008f0a:	460f      	mov	r7, r1
20008f0c:	2b00      	cmp	r3, #0
20008f0e:	d148      	bne.n	20008fa2 <__udivmoddi4+0xa2>
20008f10:	428a      	cmp	r2, r1
20008f12:	4615      	mov	r5, r2
20008f14:	d95e      	bls.n	20008fd4 <__udivmoddi4+0xd4>
20008f16:	fab2 f382 	clz	r3, r2
20008f1a:	b13b      	cbz	r3, 20008f2c <__udivmoddi4+0x2c>
20008f1c:	f1c3 0220 	rsb	r2, r3, #32
20008f20:	409f      	lsls	r7, r3
20008f22:	409d      	lsls	r5, r3
20008f24:	409c      	lsls	r4, r3
20008f26:	fa20 f202 	lsr.w	r2, r0, r2
20008f2a:	4317      	orrs	r7, r2
20008f2c:	ea4f 4e15 	mov.w	lr, r5, lsr #16
20008f30:	fa1f fc85 	uxth.w	ip, r5
20008f34:	0c22      	lsrs	r2, r4, #16
20008f36:	fbb7 f1fe 	udiv	r1, r7, lr
20008f3a:	fb0e 7711 	mls	r7, lr, r1, r7
20008f3e:	fb01 f00c 	mul.w	r0, r1, ip
20008f42:	ea42 4207 	orr.w	r2, r2, r7, lsl #16
20008f46:	4290      	cmp	r0, r2
20008f48:	d907      	bls.n	20008f5a <__udivmoddi4+0x5a>
20008f4a:	18aa      	adds	r2, r5, r2
20008f4c:	f101 37ff 	add.w	r7, r1, #4294967295
20008f50:	d202      	bcs.n	20008f58 <__udivmoddi4+0x58>
20008f52:	4290      	cmp	r0, r2
20008f54:	f200 8158 	bhi.w	20009208 <__udivmoddi4+0x308>
20008f58:	4639      	mov	r1, r7
20008f5a:	1a12      	subs	r2, r2, r0
20008f5c:	b2a4      	uxth	r4, r4
20008f5e:	fbb2 f0fe 	udiv	r0, r2, lr
20008f62:	fb0e 2210 	mls	r2, lr, r0, r2
20008f66:	fb00 fc0c 	mul.w	ip, r0, ip
20008f6a:	ea44 4402 	orr.w	r4, r4, r2, lsl #16
20008f6e:	45a4      	cmp	ip, r4
20008f70:	d90b      	bls.n	20008f8a <__udivmoddi4+0x8a>
20008f72:	192c      	adds	r4, r5, r4
20008f74:	f100 32ff 	add.w	r2, r0, #4294967295
20008f78:	bf2c      	ite	cs
20008f7a:	2701      	movcs	r7, #1
20008f7c:	2700      	movcc	r7, #0
20008f7e:	45a4      	cmp	ip, r4
20008f80:	d902      	bls.n	20008f88 <__udivmoddi4+0x88>
20008f82:	2f00      	cmp	r7, #0
20008f84:	f000 8143 	beq.w	2000920e <__udivmoddi4+0x30e>
20008f88:	4610      	mov	r0, r2
20008f8a:	ea40 4001 	orr.w	r0, r0, r1, lsl #16
20008f8e:	eba4 040c 	sub.w	r4, r4, ip
20008f92:	2100      	movs	r1, #0
20008f94:	b11e      	cbz	r6, 20008f9e <__udivmoddi4+0x9e>
20008f96:	40dc      	lsrs	r4, r3
20008f98:	2300      	movs	r3, #0
20008f9a:	e9c6 4300 	strd	r4, r3, [r6]
20008f9e:	e8bd 8ff0 	ldmia.w	sp!, {r4, r5, r6, r7, r8, r9, sl, fp, pc}
20008fa2:	428b      	cmp	r3, r1
20008fa4:	d906      	bls.n	20008fb4 <__udivmoddi4+0xb4>
20008fa6:	b10e      	cbz	r6, 20008fac <__udivmoddi4+0xac>
20008fa8:	e9c6 0100 	strd	r0, r1, [r6]
20008fac:	2100      	movs	r1, #0
20008fae:	4608      	mov	r0, r1
20008fb0:	e8bd 8ff0 	ldmia.w	sp!, {r4, r5, r6, r7, r8, r9, sl, fp, pc}
20008fb4:	fab3 f183 	clz	r1, r3
20008fb8:	2900      	cmp	r1, #0
20008fba:	d151      	bne.n	20009060 <__udivmoddi4+0x160>
20008fbc:	4563      	cmp	r3, ip
20008fbe:	f0c0 8116 	bcc.w	200091ee <__udivmoddi4+0x2ee>
20008fc2:	4282      	cmp	r2, r0
20008fc4:	f240 8113 	bls.w	200091ee <__udivmoddi4+0x2ee>
20008fc8:	4608      	mov	r0, r1
20008fca:	2e00      	cmp	r6, #0
20008fcc:	d0e7      	beq.n	20008f9e <__udivmoddi4+0x9e>
20008fce:	e9c6 4700 	strd	r4, r7, [r6]
20008fd2:	e7e4      	b.n	20008f9e <__udivmoddi4+0x9e>
20008fd4:	2a00      	cmp	r2, #0
20008fd6:	f000 80af 	beq.w	20009138 <__udivmoddi4+0x238>
20008fda:	fab2 f382 	clz	r3, r2
20008fde:	2b00      	cmp	r3, #0
20008fe0:	f040 80c2 	bne.w	20009168 <__udivmoddi4+0x268>
20008fe4:	1a8a      	subs	r2, r1, r2
20008fe6:	ea4f 4e15 	mov.w	lr, r5, lsr #16
20008fea:	b2af      	uxth	r7, r5
20008fec:	2101      	movs	r1, #1
20008fee:	0c20      	lsrs	r0, r4, #16
20008ff0:	fbb2 fcfe 	udiv	ip, r2, lr
20008ff4:	fb0e 221c 	mls	r2, lr, ip, r2
20008ff8:	ea40 4202 	orr.w	r2, r0, r2, lsl #16
20008ffc:	fb07 f00c 	mul.w	r0, r7, ip
20009000:	4290      	cmp	r0, r2
20009002:	d90e      	bls.n	20009022 <__udivmoddi4+0x122>
20009004:	18aa      	adds	r2, r5, r2
20009006:	f10c 38ff 	add.w	r8, ip, #4294967295
2000900a:	bf2c      	ite	cs
2000900c:	f04f 0901 	movcs.w	r9, #1
20009010:	f04f 0900 	movcc.w	r9, #0
20009014:	4290      	cmp	r0, r2
20009016:	d903      	bls.n	20009020 <__udivmoddi4+0x120>
20009018:	f1b9 0f00 	cmp.w	r9, #0
2000901c:	f000 80f0 	beq.w	20009200 <__udivmoddi4+0x300>
20009020:	46c4      	mov	ip, r8
20009022:	1a12      	subs	r2, r2, r0
20009024:	b2a4      	uxth	r4, r4
20009026:	fbb2 f0fe 	udiv	r0, r2, lr
2000902a:	fb0e 2210 	mls	r2, lr, r0, r2
2000902e:	fb00 f707 	mul.w	r7, r0, r7
20009032:	ea44 4402 	orr.w	r4, r4, r2, lsl #16
20009036:	42a7      	cmp	r7, r4
20009038:	d90e      	bls.n	20009058 <__udivmoddi4+0x158>
2000903a:	192c      	adds	r4, r5, r4
2000903c:	f100 32ff 	add.w	r2, r0, #4294967295
20009040:	bf2c      	ite	cs
20009042:	f04f 0e01 	movcs.w	lr, #1
20009046:	f04f 0e00 	movcc.w	lr, #0
2000904a:	42a7      	cmp	r7, r4
2000904c:	d903      	bls.n	20009056 <__udivmoddi4+0x156>
2000904e:	f1be 0f00 	cmp.w	lr, #0
20009052:	f000 80d2 	beq.w	200091fa <__udivmoddi4+0x2fa>
20009056:	4610      	mov	r0, r2
20009058:	1be4      	subs	r4, r4, r7
2000905a:	ea40 400c 	orr.w	r0, r0, ip, lsl #16
2000905e:	e799      	b.n	20008f94 <__udivmoddi4+0x94>
20009060:	f1c1 0520 	rsb	r5, r1, #32
20009064:	408b      	lsls	r3, r1
20009066:	fa0c f401 	lsl.w	r4, ip, r1
2000906a:	fa00 f901 	lsl.w	r9, r0, r1
2000906e:	fa22 f705 	lsr.w	r7, r2, r5
20009072:	fa2c fc05 	lsr.w	ip, ip, r5
20009076:	408a      	lsls	r2, r1
20009078:	431f      	orrs	r7, r3
2000907a:	fa20 f305 	lsr.w	r3, r0, r5
2000907e:	0c38      	lsrs	r0, r7, #16
20009080:	4323      	orrs	r3, r4
20009082:	fa1f fe87 	uxth.w	lr, r7
20009086:	0c1c      	lsrs	r4, r3, #16
20009088:	fbbc f8f0 	udiv	r8, ip, r0
2000908c:	fb00 cc18 	mls	ip, r0, r8, ip
20009090:	ea44 440c 	orr.w	r4, r4, ip, lsl #16
20009094:	fb08 fc0e 	mul.w	ip, r8, lr
20009098:	45a4      	cmp	ip, r4
2000909a:	d90e      	bls.n	200090ba <__udivmoddi4+0x1ba>
2000909c:	193c      	adds	r4, r7, r4
2000909e:	f108 3aff 	add.w	sl, r8, #4294967295
200090a2:	bf2c      	ite	cs
200090a4:	f04f 0b01 	movcs.w	fp, #1
200090a8:	f04f 0b00 	movcc.w	fp, #0
200090ac:	45a4      	cmp	ip, r4
200090ae:	d903      	bls.n	200090b8 <__udivmoddi4+0x1b8>
200090b0:	f1bb 0f00 	cmp.w	fp, #0
200090b4:	f000 80b8 	beq.w	20009228 <__udivmoddi4+0x328>
200090b8:	46d0      	mov	r8, sl
200090ba:	eba4 040c 	sub.w	r4, r4, ip
200090be:	fa1f fc83 	uxth.w	ip, r3
200090c2:	fbb4 f3f0 	udiv	r3, r4, r0
200090c6:	fb00 4413 	mls	r4, r0, r3, r4
200090ca:	fb03 fe0e 	mul.w	lr, r3, lr
200090ce:	ea4c 4404 	orr.w	r4, ip, r4, lsl #16
200090d2:	45a6      	cmp	lr, r4
200090d4:	d90e      	bls.n	200090f4 <__udivmoddi4+0x1f4>
200090d6:	193c      	adds	r4, r7, r4
200090d8:	f103 30ff 	add.w	r0, r3, #4294967295
200090dc:	bf2c      	ite	cs
200090de:	f04f 0c01 	movcs.w	ip, #1
200090e2:	f04f 0c00 	movcc.w	ip, #0
200090e6:	45a6      	cmp	lr, r4
200090e8:	d903      	bls.n	200090f2 <__udivmoddi4+0x1f2>
200090ea:	f1bc 0f00 	cmp.w	ip, #0
200090ee:	f000 809f 	beq.w	20009230 <__udivmoddi4+0x330>
200090f2:	4603      	mov	r3, r0
200090f4:	ea43 4008 	orr.w	r0, r3, r8, lsl #16
200090f8:	eba4 040e 	sub.w	r4, r4, lr
200090fc:	fba0 ec02 	umull	lr, ip, r0, r2
20009100:	4564      	cmp	r4, ip
20009102:	4673      	mov	r3, lr
20009104:	46e0      	mov	r8, ip
20009106:	d302      	bcc.n	2000910e <__udivmoddi4+0x20e>
20009108:	d107      	bne.n	2000911a <__udivmoddi4+0x21a>
2000910a:	45f1      	cmp	r9, lr
2000910c:	d205      	bcs.n	2000911a <__udivmoddi4+0x21a>
2000910e:	ebbe 0302 	subs.w	r3, lr, r2
20009112:	eb6c 0c07 	sbc.w	ip, ip, r7
20009116:	3801      	subs	r0, #1
20009118:	46e0      	mov	r8, ip
2000911a:	b15e      	cbz	r6, 20009134 <__udivmoddi4+0x234>
2000911c:	ebb9 0203 	subs.w	r2, r9, r3
20009120:	eb64 0408 	sbc.w	r4, r4, r8
20009124:	fa04 f505 	lsl.w	r5, r4, r5
20009128:	fa22 f301 	lsr.w	r3, r2, r1
2000912c:	40cc      	lsrs	r4, r1
2000912e:	431d      	orrs	r5, r3
20009130:	e9c6 5400 	strd	r5, r4, [r6]
20009134:	2100      	movs	r1, #0
20009136:	e732      	b.n	20008f9e <__udivmoddi4+0x9e>
20009138:	0842      	lsrs	r2, r0, #1
2000913a:	462f      	mov	r7, r5
2000913c:	084b      	lsrs	r3, r1, #1
2000913e:	46ac      	mov	ip, r5
20009140:	ea42 72c1 	orr.w	r2, r2, r1, lsl #31
20009144:	46ae      	mov	lr, r5
20009146:	07c4      	lsls	r4, r0, #31
20009148:	0c11      	lsrs	r1, r2, #16
2000914a:	b292      	uxth	r2, r2
2000914c:	ea41 4103 	orr.w	r1, r1, r3, lsl #16
20009150:	ea42 4201 	orr.w	r2, r2, r1, lsl #16
20009154:	fbb1 f1f5 	udiv	r1, r1, r5
20009158:	fbb3 f0f5 	udiv	r0, r3, r5
2000915c:	231f      	movs	r3, #31
2000915e:	eba2 020c 	sub.w	r2, r2, ip
20009162:	ea41 4100 	orr.w	r1, r1, r0, lsl #16
20009166:	e742      	b.n	20008fee <__udivmoddi4+0xee>
20009168:	409d      	lsls	r5, r3
2000916a:	f1c3 0220 	rsb	r2, r3, #32
2000916e:	4099      	lsls	r1, r3
20009170:	409c      	lsls	r4, r3
20009172:	fa2c fc02 	lsr.w	ip, ip, r2
20009176:	ea4f 4e15 	mov.w	lr, r5, lsr #16
2000917a:	fa20 f202 	lsr.w	r2, r0, r2
2000917e:	b2af      	uxth	r7, r5
20009180:	fbbc f8fe 	udiv	r8, ip, lr
20009184:	430a      	orrs	r2, r1
20009186:	fb0e cc18 	mls	ip, lr, r8, ip
2000918a:	0c11      	lsrs	r1, r2, #16
2000918c:	ea41 410c 	orr.w	r1, r1, ip, lsl #16
20009190:	fb08 fc07 	mul.w	ip, r8, r7
20009194:	458c      	cmp	ip, r1
20009196:	d950      	bls.n	2000923a <__udivmoddi4+0x33a>
20009198:	1869      	adds	r1, r5, r1
2000919a:	f108 30ff 	add.w	r0, r8, #4294967295
2000919e:	bf2c      	ite	cs
200091a0:	f04f 0901 	movcs.w	r9, #1
200091a4:	f04f 0900 	movcc.w	r9, #0
200091a8:	458c      	cmp	ip, r1
200091aa:	d902      	bls.n	200091b2 <__udivmoddi4+0x2b2>
200091ac:	f1b9 0f00 	cmp.w	r9, #0
200091b0:	d030      	beq.n	20009214 <__udivmoddi4+0x314>
200091b2:	eba1 010c 	sub.w	r1, r1, ip
200091b6:	fbb1 f8fe 	udiv	r8, r1, lr
200091ba:	fb08 fc07 	mul.w	ip, r8, r7
200091be:	fb0e 1118 	mls	r1, lr, r8, r1
200091c2:	b292      	uxth	r2, r2
200091c4:	ea42 4201 	orr.w	r2, r2, r1, lsl #16
200091c8:	4562      	cmp	r2, ip
200091ca:	d234      	bcs.n	20009236 <__udivmoddi4+0x336>
200091cc:	18aa      	adds	r2, r5, r2
200091ce:	f108 31ff 	add.w	r1, r8, #4294967295
200091d2:	bf2c      	ite	cs
200091d4:	f04f 0901 	movcs.w	r9, #1
200091d8:	f04f 0900 	movcc.w	r9, #0
200091dc:	4562      	cmp	r2, ip
200091de:	d2be      	bcs.n	2000915e <__udivmoddi4+0x25e>
200091e0:	f1b9 0f00 	cmp.w	r9, #0
200091e4:	d1bb      	bne.n	2000915e <__udivmoddi4+0x25e>
200091e6:	f1a8 0102 	sub.w	r1, r8, #2
200091ea:	442a      	add	r2, r5
200091ec:	e7b7      	b.n	2000915e <__udivmoddi4+0x25e>
200091ee:	1a84      	subs	r4, r0, r2
200091f0:	eb6c 0203 	sbc.w	r2, ip, r3
200091f4:	2001      	movs	r0, #1
200091f6:	4617      	mov	r7, r2
200091f8:	e6e7      	b.n	20008fca <__udivmoddi4+0xca>
200091fa:	442c      	add	r4, r5
200091fc:	3802      	subs	r0, #2
200091fe:	e72b      	b.n	20009058 <__udivmoddi4+0x158>
20009200:	f1ac 0c02 	sub.w	ip, ip, #2
20009204:	442a      	add	r2, r5
20009206:	e70c      	b.n	20009022 <__udivmoddi4+0x122>
20009208:	3902      	subs	r1, #2
2000920a:	442a      	add	r2, r5
2000920c:	e6a5      	b.n	20008f5a <__udivmoddi4+0x5a>
2000920e:	442c      	add	r4, r5
20009210:	3802      	subs	r0, #2
20009212:	e6ba      	b.n	20008f8a <__udivmoddi4+0x8a>
20009214:	eba5 0c0c 	sub.w	ip, r5, ip
20009218:	f1a8 0002 	sub.w	r0, r8, #2
2000921c:	4461      	add	r1, ip
2000921e:	fbb1 f8fe 	udiv	r8, r1, lr
20009222:	fb08 fc07 	mul.w	ip, r8, r7
20009226:	e7ca      	b.n	200091be <__udivmoddi4+0x2be>
20009228:	f1a8 0802 	sub.w	r8, r8, #2
2000922c:	443c      	add	r4, r7
2000922e:	e744      	b.n	200090ba <__udivmoddi4+0x1ba>
20009230:	3b02      	subs	r3, #2
20009232:	443c      	add	r4, r7
20009234:	e75e      	b.n	200090f4 <__udivmoddi4+0x1f4>
20009236:	4641      	mov	r1, r8
20009238:	e791      	b.n	2000915e <__udivmoddi4+0x25e>
2000923a:	eba1 010c 	sub.w	r1, r1, ip
2000923e:	4640      	mov	r0, r8
20009240:	fbb1 f8fe 	udiv	r8, r1, lr
20009244:	fb08 fc07 	mul.w	ip, r8, r7
20009248:	e7b9      	b.n	200091be <__udivmoddi4+0x2be>
2000924a:	bf00      	nop

2000924c <__aeabi_idiv0>:
2000924c:	4770      	bx	lr
2000924e:	bf00      	nop

20009250 <memcmp>:
20009250:	2a03      	cmp	r2, #3
20009252:	b430      	push	{r4, r5}
20009254:	d912      	bls.n	2000927c <memcmp+0x2c>
20009256:	ea41 0400 	orr.w	r4, r1, r0
2000925a:	4684      	mov	ip, r0
2000925c:	460b      	mov	r3, r1
2000925e:	07a4      	lsls	r4, r4, #30
20009260:	d121      	bne.n	200092a6 <memcmp+0x56>
20009262:	4619      	mov	r1, r3
20009264:	4660      	mov	r0, ip
20009266:	f853 4b04 	ldr.w	r4, [r3], #4
2000926a:	f85c 5b04 	ldr.w	r5, [ip], #4
2000926e:	42a5      	cmp	r5, r4
20009270:	d119      	bne.n	200092a6 <memcmp+0x56>
20009272:	3a04      	subs	r2, #4
20009274:	2a03      	cmp	r2, #3
20009276:	d8f4      	bhi.n	20009262 <memcmp+0x12>
20009278:	4660      	mov	r0, ip
2000927a:	4619      	mov	r1, r3
2000927c:	1e54      	subs	r4, r2, #1
2000927e:	b17a      	cbz	r2, 200092a0 <memcmp+0x50>
20009280:	1e43      	subs	r3, r0, #1
20009282:	3901      	subs	r1, #1
20009284:	1902      	adds	r2, r0, r4
20009286:	e001      	b.n	2000928c <memcmp+0x3c>
20009288:	429a      	cmp	r2, r3
2000928a:	d009      	beq.n	200092a0 <memcmp+0x50>
2000928c:	f813 0f01 	ldrb.w	r0, [r3, #1]!
20009290:	f811 cf01 	ldrb.w	ip, [r1, #1]!
20009294:	4560      	cmp	r0, ip
20009296:	d0f7      	beq.n	20009288 <memcmp+0x38>
20009298:	eba0 000c 	sub.w	r0, r0, ip
2000929c:	bc30      	pop	{r4, r5}
2000929e:	4770      	bx	lr
200092a0:	2000      	movs	r0, #0
200092a2:	bc30      	pop	{r4, r5}
200092a4:	4770      	bx	lr
200092a6:	1e54      	subs	r4, r2, #1
200092a8:	e7ea      	b.n	20009280 <memcmp+0x30>
200092aa:	bf00      	nop

200092ac <memset>:
200092ac:	0783      	lsls	r3, r0, #30
200092ae:	b530      	push	{r4, r5, lr}
200092b0:	d046      	beq.n	20009340 <memset+0x94>
200092b2:	1884      	adds	r4, r0, r2
200092b4:	4684      	mov	ip, r0
200092b6:	e004      	b.n	200092c2 <memset+0x16>
200092b8:	f803 1b01 	strb.w	r1, [r3], #1
200092bc:	079d      	lsls	r5, r3, #30
200092be:	d004      	beq.n	200092ca <memset+0x1e>
200092c0:	469c      	mov	ip, r3
200092c2:	45a4      	cmp	ip, r4
200092c4:	4663      	mov	r3, ip
200092c6:	d1f7      	bne.n	200092b8 <memset+0xc>
200092c8:	bd30      	pop	{r4, r5, pc}
200092ca:	3a01      	subs	r2, #1
200092cc:	4402      	add	r2, r0
200092ce:	eba2 020c 	sub.w	r2, r2, ip
200092d2:	2a03      	cmp	r2, #3
200092d4:	d929      	bls.n	2000932a <memset+0x7e>
200092d6:	b2cc      	uxtb	r4, r1
200092d8:	2a0f      	cmp	r2, #15
200092da:	eb04 2404 	add.w	r4, r4, r4, lsl #8
200092de:	eb04 4404 	add.w	r4, r4, r4, lsl #16
200092e2:	d92f      	bls.n	20009344 <memset+0x98>
200092e4:	f1a2 0c10 	sub.w	ip, r2, #16
200092e8:	f103 0510 	add.w	r5, r3, #16
200092ec:	f02c 0c0f 	bic.w	ip, ip, #15
200092f0:	44ac      	add	ip, r5
200092f2:	e9c3 4400 	strd	r4, r4, [r3]
200092f6:	e9c3 4402 	strd	r4, r4, [r3, #8]
200092fa:	3310      	adds	r3, #16
200092fc:	4563      	cmp	r3, ip
200092fe:	d1f8      	bne.n	200092f2 <memset+0x46>
20009300:	f012 0f0c 	tst.w	r2, #12
20009304:	f002 0e0f 	and.w	lr, r2, #15
20009308:	d018      	beq.n	2000933c <memset+0x90>
2000930a:	f02e 0c03 	bic.w	ip, lr, #3
2000930e:	f1ae 0504 	sub.w	r5, lr, #4
20009312:	461a      	mov	r2, r3
20009314:	449c      	add	ip, r3
20009316:	f842 4b04 	str.w	r4, [r2], #4
2000931a:	4562      	cmp	r2, ip
2000931c:	d1fb      	bne.n	20009316 <memset+0x6a>
2000931e:	f025 0403 	bic.w	r4, r5, #3
20009322:	3304      	adds	r3, #4
20009324:	f00e 0203 	and.w	r2, lr, #3
20009328:	4423      	add	r3, r4
2000932a:	2a00      	cmp	r2, #0
2000932c:	d0cc      	beq.n	200092c8 <memset+0x1c>
2000932e:	b2c9      	uxtb	r1, r1
20009330:	441a      	add	r2, r3
20009332:	f803 1b01 	strb.w	r1, [r3], #1
20009336:	4293      	cmp	r3, r2
20009338:	d1fb      	bne.n	20009332 <memset+0x86>
2000933a:	bd30      	pop	{r4, r5, pc}
2000933c:	4672      	mov	r2, lr
2000933e:	e7f4      	b.n	2000932a <memset+0x7e>
20009340:	4603      	mov	r3, r0
20009342:	e7c6      	b.n	200092d2 <memset+0x26>
20009344:	4696      	mov	lr, r2
20009346:	e7e0      	b.n	2000930a <memset+0x5e>

20009348 <memcpy>:
20009348:	4684      	mov	ip, r0
2000934a:	ea41 0300 	orr.w	r3, r1, r0
2000934e:	f013 0303 	ands.w	r3, r3, #3
20009352:	d149      	bne.n	200093e8 <memcpy+0xa0>
20009354:	3a40      	subs	r2, #64	@ 0x40
20009356:	d323      	bcc.n	200093a0 <memcpy+0x58>
20009358:	680b      	ldr	r3, [r1, #0]
2000935a:	6003      	str	r3, [r0, #0]
2000935c:	684b      	ldr	r3, [r1, #4]
2000935e:	6043      	str	r3, [r0, #4]
20009360:	688b      	ldr	r3, [r1, #8]
20009362:	6083      	str	r3, [r0, #8]
20009364:	68cb      	ldr	r3, [r1, #12]
20009366:	60c3      	str	r3, [r0, #12]
20009368:	690b      	ldr	r3, [r1, #16]
2000936a:	6103      	str	r3, [r0, #16]
2000936c:	694b      	ldr	r3, [r1, #20]
2000936e:	6143      	str	r3, [r0, #20]
20009370:	698b      	ldr	r3, [r1, #24]
20009372:	6183      	str	r3, [r0, #24]
20009374:	69cb      	ldr	r3, [r1, #28]
20009376:	61c3      	str	r3, [r0, #28]
20009378:	6a0b      	ldr	r3, [r1, #32]
2000937a:	6203      	str	r3, [r0, #32]
2000937c:	6a4b      	ldr	r3, [r1, #36]	@ 0x24
2000937e:	6243      	str	r3, [r0, #36]	@ 0x24
20009380:	6a8b      	ldr	r3, [r1, #40]	@ 0x28
20009382:	6283      	str	r3, [r0, #40]	@ 0x28
20009384:	6acb      	ldr	r3, [r1, #44]	@ 0x2c
20009386:	62c3      	str	r3, [r0, #44]	@ 0x2c
20009388:	6b0b      	ldr	r3, [r1, #48]	@ 0x30
2000938a:	6303      	str	r3, [r0, #48]	@ 0x30
2000938c:	6b4b      	ldr	r3, [r1, #52]	@ 0x34
2000938e:	6343      	str	r3, [r0, #52]	@ 0x34
20009390:	6b8b      	ldr	r3, [r1, #56]	@ 0x38
20009392:	6383      	str	r3, [r0, #56]	@ 0x38
20009394:	6bcb      	ldr	r3, [r1, #60]	@ 0x3c
20009396:	63c3      	str	r3, [r0, #60]	@ 0x3c
20009398:	3040      	adds	r0, #64	@ 0x40
2000939a:	3140      	adds	r1, #64	@ 0x40
2000939c:	3a40      	subs	r2, #64	@ 0x40
2000939e:	d2db      	bcs.n	20009358 <memcpy+0x10>
200093a0:	3230      	adds	r2, #48	@ 0x30
200093a2:	d30b      	bcc.n	200093bc <memcpy+0x74>
200093a4:	680b      	ldr	r3, [r1, #0]
200093a6:	6003      	str	r3, [r0, #0]
200093a8:	684b      	ldr	r3, [r1, #4]
200093aa:	6043      	str	r3, [r0, #4]
200093ac:	688b      	ldr	r3, [r1, #8]
200093ae:	6083      	str	r3, [r0, #8]
200093b0:	68cb      	ldr	r3, [r1, #12]
200093b2:	60c3      	str	r3, [r0, #12]
200093b4:	3010      	adds	r0, #16
200093b6:	3110      	adds	r1, #16
200093b8:	3a10      	subs	r2, #16
200093ba:	d2f3      	bcs.n	200093a4 <memcpy+0x5c>
200093bc:	320c      	adds	r2, #12
200093be:	d305      	bcc.n	200093cc <memcpy+0x84>
200093c0:	f851 3b04 	ldr.w	r3, [r1], #4
200093c4:	f840 3b04 	str.w	r3, [r0], #4
200093c8:	3a04      	subs	r2, #4
200093ca:	d2f9      	bcs.n	200093c0 <memcpy+0x78>
200093cc:	3204      	adds	r2, #4
200093ce:	d008      	beq.n	200093e2 <memcpy+0x9a>
200093d0:	07d2      	lsls	r2, r2, #31
200093d2:	bf1c      	itt	ne
200093d4:	f811 3b01 	ldrbne.w	r3, [r1], #1
200093d8:	f800 3b01 	strbne.w	r3, [r0], #1
200093dc:	d301      	bcc.n	200093e2 <memcpy+0x9a>
200093de:	880b      	ldrh	r3, [r1, #0]
200093e0:	8003      	strh	r3, [r0, #0]
200093e2:	4660      	mov	r0, ip
200093e4:	4770      	bx	lr
200093e6:	bf00      	nop
200093e8:	2a08      	cmp	r2, #8
200093ea:	d313      	bcc.n	20009414 <memcpy+0xcc>
200093ec:	078b      	lsls	r3, r1, #30
200093ee:	d0b1      	beq.n	20009354 <memcpy+0xc>
200093f0:	f010 0303 	ands.w	r3, r0, #3
200093f4:	d0ae      	beq.n	20009354 <memcpy+0xc>
200093f6:	f1c3 0304 	rsb	r3, r3, #4
200093fa:	1ad2      	subs	r2, r2, r3
200093fc:	07db      	lsls	r3, r3, #31
200093fe:	bf1c      	itt	ne
20009400:	f811 3b01 	ldrbne.w	r3, [r1], #1
20009404:	f800 3b01 	strbne.w	r3, [r0], #1
20009408:	d3a4      	bcc.n	20009354 <memcpy+0xc>
2000940a:	f831 3b02 	ldrh.w	r3, [r1], #2
2000940e:	f820 3b02 	strh.w	r3, [r0], #2
20009412:	e79f      	b.n	20009354 <memcpy+0xc>
20009414:	3a04      	subs	r2, #4
20009416:	d3d9      	bcc.n	200093cc <memcpy+0x84>
20009418:	3a01      	subs	r2, #1
2000941a:	f811 3b01 	ldrb.w	r3, [r1], #1
2000941e:	f800 3b01 	strb.w	r3, [r0], #1
20009422:	d2f9      	bcs.n	20009418 <memcpy+0xd0>
20009424:	780b      	ldrb	r3, [r1, #0]
20009426:	7003      	strb	r3, [r0, #0]
20009428:	784b      	ldrb	r3, [r1, #1]
2000942a:	7043      	strb	r3, [r0, #1]
2000942c:	788b      	ldrb	r3, [r1, #2]
2000942e:	7083      	strb	r3, [r0, #2]
20009430:	4660      	mov	r0, ip
20009432:	4770      	bx	lr
